---
triple:          'arm64-apple-darwin'
binary-path:     mujoco_renderer.cpython-311-darwin.so
relocations:
  - { offsetInCU: 0x90F, offset: 0x90F, size: 0x8, addend: 0x0, symName: __ZN17GLFWWindowManagerC2Ev, symObjAddr: 0x0, symBinAddr: 0x2DB8, symSize: 0x34 }
  - { offsetInCU: 0x939, offset: 0x939, size: 0x8, addend: 0x0, symName: __ZN17GLFWWindowManager14initializeGLFWEv, symObjAddr: 0x34, symBinAddr: 0x2DEC, symSize: 0x88 }
  - { offsetInCU: 0x95F, offset: 0x95F, size: 0x8, addend: 0x0, symName: __ZN17GLFWWindowManager12createWindowEv, symObjAddr: 0xBC, symBinAddr: 0x2E74, symSize: 0xCC }
  - { offsetInCU: 0x985, offset: 0x985, size: 0x8, addend: 0x0, symName: __ZN17GLFWWindowManagerC1Ev, symObjAddr: 0x188, symBinAddr: 0x2F40, symSize: 0x2C }
  - { offsetInCU: 0x9AF, offset: 0x9AF, size: 0x8, addend: 0x0, symName: __ZN17GLFWWindowManagerD2Ev, symObjAddr: 0x1B4, symBinAddr: 0x2F6C, symSize: 0x34 }
  - { offsetInCU: 0x9D9, offset: 0x9D9, size: 0x8, addend: 0x0, symName: __ZN17GLFWWindowManager13destroyWindowEv, symObjAddr: 0x1E8, symBinAddr: 0x2FA0, symSize: 0x54 }
  - { offsetInCU: 0x9FF, offset: 0x9FF, size: 0x8, addend: 0x0, symName: __ZN17GLFWWindowManagerD1Ev, symObjAddr: 0x248, symBinAddr: 0x3000, symSize: 0x2C }
  - { offsetInCU: 0x6057, offset: 0x6A85, size: 0x8, addend: 0x0, symName: __ZN12CustomAntEnvC2EPKc, symObjAddr: 0x0, symBinAddr: 0x302C, symSize: 0x2E8 }
  - { offsetInCU: 0x60AC, offset: 0x6ADA, size: 0x8, addend: 0x0, symName: __Z8keyboardP10GLFWwindowiiii, symObjAddr: 0x2E8, symBinAddr: 0x3314, symSize: 0x8C }
  - { offsetInCU: 0x6128, offset: 0x6B56, size: 0x8, addend: 0x0, symName: __Z10mouse_moveP10GLFWwindowdd, symObjAddr: 0x374, symBinAddr: 0x33A0, symSize: 0x1EC }
  - { offsetInCU: 0x61CE, offset: 0x6BFC, size: 0x8, addend: 0x0, symName: __Z12mouse_buttonP10GLFWwindowiii, symObjAddr: 0x560, symBinAddr: 0x358C, symSize: 0xCC }
  - { offsetInCU: 0x622E, offset: 0x6C5C, size: 0x8, addend: 0x0, symName: __Z6scrollP10GLFWwindowdd, symObjAddr: 0x62C, symBinAddr: 0x3658, symSize: 0x64 }
  - { offsetInCU: 0x6280, offset: 0x6CAE, size: 0x8, addend: 0x0, symName: __ZN12CustomAntEnvC1EPKc, symObjAddr: 0x690, symBinAddr: 0x36BC, symSize: 0x34 }
  - { offsetInCU: 0x62B8, offset: 0x6CE6, size: 0x8, addend: 0x0, symName: __ZN12CustomAntEnvD2Ev, symObjAddr: 0x6C4, symBinAddr: 0x36F0, symSize: 0x84 }
  - { offsetInCU: 0x62E2, offset: 0x6D10, size: 0x8, addend: 0x0, symName: __ZN12CustomAntEnvD1Ev, symObjAddr: 0x754, symBinAddr: 0x3774, symSize: 0x2C }
  - { offsetInCU: 0x630C, offset: 0x6D3A, size: 0x8, addend: 0x0, symName: __ZNK12CustomAntEnv9getRewardEv, symObjAddr: 0x780, symBinAddr: 0x37A0, symSize: 0x14 }
  - { offsetInCU: 0x6332, offset: 0x6D60, size: 0x8, addend: 0x0, symName: __ZNK12CustomAntEnv14getObservationEv, symObjAddr: 0x794, symBinAddr: 0x37B4, symSize: 0x14 }
  - { offsetInCU: 0x6358, offset: 0x6D86, size: 0x8, addend: 0x0, symName: __ZN12CustomAntEnv6renderEv, symObjAddr: 0x7A8, symBinAddr: 0x37C8, symSize: 0xA8 }
  - { offsetInCU: 0x638C, offset: 0x6DBA, size: 0x8, addend: 0x0, symName: __ZNK12CustomAntEnv12should_closeEv, symObjAddr: 0x850, symBinAddr: 0x3870, symSize: 0x34 }
  - { offsetInCU: 0x5C, offset: 0x6E9E, size: 0x8, addend: 0x0, symName: __ZN8pybind116detail16get_internals_ppEv, symObjAddr: 0xB34, symBinAddr: 0x43CC, symSize: 0xC }
  - { offsetInCU: 0x87, offset: 0x6EC9, size: 0x8, addend: 0x0, symName: __ZZN8pybind116detail16get_internals_ppEvE12internals_pp, symObjAddr: 0x48690, symBinAddr: 0x545E8, symSize: 0x0 }
  - { offsetInCU: 0x21D6, offset: 0x9018, size: 0x8, addend: 0x0, symName: __ZN8pybind116detail23all_type_info_get_cacheEP11_typeobject, symObjAddr: 0xDDA0, symBinAddr: 0x11638, symSize: 0xF4 }
  - { offsetInCU: 0x2294, offset: 0x90D6, size: 0x8, addend: 0x0, symName: __ZN8pybind116detail19get_local_internalsEv, symObjAddr: 0x1A1DC, symBinAddr: 0x1DA74, symSize: 0xD8 }
  - { offsetInCU: 0x22BF, offset: 0x9101, size: 0x8, addend: 0x0, symName: __ZZN8pybind116detail19get_local_internalsEvE6locals, symObjAddr: 0x48698, symBinAddr: 0x545F0, symSize: 0x0 }
  - { offsetInCU: 0x232F, offset: 0x9171, size: 0x8, addend: 0x0, symName: __ZN8pybind116detail25enable_dynamic_attributesEP15_heaptypeobject, symObjAddr: 0x38F10, symBinAddr: 0x3C7A8, symSize: 0x68 }
  - { offsetInCU: 0x2356, offset: 0x9198, size: 0x8, addend: 0x0, symName: __ZZN8pybind116detail25enable_dynamic_attributesEP15_heaptypeobjectE6getset, symObjAddr: 0x486B0, symBinAddr: 0x54608, symSize: 0x0 }
  - { offsetInCU: 0x23BD, offset: 0x91FF, size: 0x8, addend: 0x0, symName: __ZN8pybind116detail8initimpl23construct_or_initializeI12CustomAntEnvJPKcELi0EEEPT_DpOT0_, symObjAddr: 0x42698, symBinAddr: 0x45F30, symSize: 0x60 }
  - { offsetInCU: 0x4B8E, offset: 0xB9D0, size: 0x8, addend: 0x0, symName: __ZN8pybind116detail13get_internalsEv, symObjAddr: 0x254, symBinAddr: 0x3AF8, symSize: 0x5C0 }
  - { offsetInCU: 0x4C89, offset: 0xBACB, size: 0x8, addend: 0x0, symName: __ZN8pybind116detail25translate_local_exceptionESt13exception_ptr, symObjAddr: 0xFFC, symBinAddr: 0x4894, symSize: 0x11C }
  - { offsetInCU: 0x4CD2, offset: 0xBB14, size: 0x8, addend: 0x0, symName: __ZN8pybind116detail19translate_exceptionESt13exception_ptr, symObjAddr: 0x1278, symBinAddr: 0x4B10, symSize: 0x658 }
  - { offsetInCU: 0x4DC1, offset: 0xBC03, size: 0x8, addend: 0x0, symName: __ZN8pybind116detail25make_static_property_typeEv, symObjAddr: 0x18D0, symBinAddr: 0x5168, symSize: 0x210 }
  - { offsetInCU: 0x4E17, offset: 0xBC59, size: 0x8, addend: 0x0, symName: __ZN8pybind116detail22make_default_metaclassEv, symObjAddr: 0x1AE0, symBinAddr: 0x5378, symSize: 0x224 }
  - { offsetInCU: 0x4E6F, offset: 0xBCB1, size: 0x8, addend: 0x0, symName: __ZN8pybind116detail21make_object_base_typeEP11_typeobject, symObjAddr: 0x1D04, symBinAddr: 0x559C, symSize: 0x2C4 }
  - { offsetInCU: 0x4ED9, offset: 0xBD1B, size: 0x8, addend: 0x0, symName: __ZN8pybind116detail14obj_class_nameEP7_object, symObjAddr: 0x2CC4, symBinAddr: 0x655C, symSize: 0x5C }
  - { offsetInCU: 0x4F07, offset: 0xBD49, size: 0x8, addend: 0x0, symName: __ZN8pybind116detail12error_stringEv, symObjAddr: 0x3B60, symBinAddr: 0x73F8, symSize: 0x7C }
  - { offsetInCU: 0x4F25, offset: 0xBD67, size: 0x8, addend: 0x0, symName: __ZN8pybind116detail7cast_opINSt3__112basic_stringIcNS2_11char_traitsIcEENS2_9allocatorIcEEEEEENS0_11type_casterINS0_14intrinsic_typeIT_E4typeEvE12cast_op_typeINS2_20add_rvalue_referenceISB_E4typeEEEOSE_, symObjAddr: 0x443C, symBinAddr: 0x7CD4, symSize: 0x24 }
  - { offsetInCU: 0x4F5A, offset: 0xBD9C, size: 0x8, addend: 0x0, symName: __ZN8pybind116detail9load_typeINSt3__112basic_stringIcNS2_11char_traitsIcEENS2_9allocatorIcEEEEEENS0_11type_casterINS0_14intrinsic_typeIT_E4typeEvEERKNS_6handleE, symObjAddr: 0x4460, symBinAddr: 0x7CF8, symSize: 0xA0 }
  - { offsetInCU: 0x4FA1, offset: 0xBDE3, size: 0x8, addend: 0x0, symName: __ZN8pybind116detail9load_typeINSt3__112basic_stringIcNS2_11char_traitsIcEENS2_9allocatorIcEEEEvEERNS0_11type_casterIT_T0_EESD_RKNS_6handleE, symObjAddr: 0x456C, symBinAddr: 0x7E04, symSize: 0x260 }
  - { offsetInCU: 0x4FEC, offset: 0xBE2E, size: 0x8, addend: 0x0, symName: __ZN8pybind116detail13clean_type_idEPKc, symObjAddr: 0x51C8, symBinAddr: 0x8A60, symSize: 0xA0 }
  - { offsetInCU: 0x5027, offset: 0xBE69, size: 0x8, addend: 0x0, symName: __ZN8pybind116detail13clean_type_idERNSt3__112basic_stringIcNS1_11char_traitsIcEENS1_9allocatorIcEEEE, symObjAddr: 0x528C, symBinAddr: 0x8B24, symSize: 0x104 }
  - { offsetInCU: 0x506B, offset: 0xBEAD, size: 0x8, addend: 0x0, symName: __ZN8pybind116detail9erase_allERNSt3__112basic_stringIcNS1_11char_traitsIcEENS1_9allocatorIcEEEERKS7_, symObjAddr: 0x5418, symBinAddr: 0x8CB0, symSize: 0x80 }
  - { offsetInCU: 0x50BD, offset: 0xBEFF, size: 0x8, addend: 0x0, symName: __ZN8pybind116detail26get_thread_state_uncheckedEv, symObjAddr: 0x5EBC, symBinAddr: 0x9754, symSize: 0x14 }
  - { offsetInCU: 0x50DB, offset: 0xBF1D, size: 0x8, addend: 0x0, symName: __ZN8pybind116detail17collect_argumentsILNS_19return_value_policyE1EJRNS_3strEEvEENS0_16simple_collectorIXT_EEEDpOT0_, symObjAddr: 0x6D88, symBinAddr: 0xA620, symSize: 0x38 }
  - { offsetInCU: 0x5209, offset: 0xC04B, size: 0x8, addend: 0x0, symName: __ZN8pybind116detail7cast_opIbEENS0_11type_casterINS0_14intrinsic_typeIT_E4typeEvE12cast_op_typeINSt3__120add_rvalue_referenceIS4_E4typeEEEOS7_, symObjAddr: 0x7E1C, symBinAddr: 0xB6B4, symSize: 0x24 }
  - { offsetInCU: 0x523E, offset: 0xC080, size: 0x8, addend: 0x0, symName: __ZN8pybind116detail9load_typeIbEENS0_11type_casterINS0_14intrinsic_typeIT_E4typeEvEERKNS_6handleE, symObjAddr: 0x7E40, symBinAddr: 0xB6D8, symSize: 0x2C }
  - { offsetInCU: 0x539E, offset: 0xC1E0, size: 0x8, addend: 0x0, symName: __ZN8pybind116detail9load_typeIbvEERNS0_11type_casterIT_T0_EES6_RKNS_6handleE, symObjAddr: 0x7E80, symBinAddr: 0xB718, symSize: 0x260 }
  - { offsetInCU: 0x53E9, offset: 0xC22B, size: 0x8, addend: 0x0, symName: __ZN8pybind116detail27get_fully_qualified_tp_nameEP11_typeobject, symObjAddr: 0x8974, symBinAddr: 0xC20C, symSize: 0x3C }
  - { offsetInCU: 0x5415, offset: 0xC257, size: 0x8, addend: 0x0, symName: __ZN8pybind116detail14object_or_castINS_7capsuleELi0EEEDTclsr3stdE7forwardIT_Efp_EEOS3_, symObjAddr: 0xC8B8, symBinAddr: 0x10150, symSize: 0x14 }
  - { offsetInCU: 0x5452, offset: 0xC294, size: 0x8, addend: 0x0, symName: __ZN8pybind116detail9raise_errEP7_objectPKc, symObjAddr: 0xC8CC, symBinAddr: 0x10164, symSize: 0x7C }
  - { offsetInCU: 0x548F, offset: 0xC2D1, size: 0x8, addend: 0x0, symName: __ZN8pybind116detail23handle_nested_exceptionISt16nested_exceptionLi0EEEbRKT_RKSt13exception_ptr, symObjAddr: 0xC948, symBinAddr: 0x101E0, symSize: 0x120 }
  - { offsetInCU: 0x54EA, offset: 0xC32C, size: 0x8, addend: 0x0, symName: __ZN8pybind116detail23handle_nested_exceptionISt9exceptionLi0EEEbRKT_RKSt13exception_ptr, symObjAddr: 0xCA68, symBinAddr: 0x10300, symSize: 0xBC }
  - { offsetInCU: 0x554B, offset: 0xC38D, size: 0x8, addend: 0x0, symName: __ZN8pybind116detail23handle_nested_exceptionISt14overflow_errorLi0EEEbRKT_RKSt13exception_ptr, symObjAddr: 0xCB24, symBinAddr: 0x103BC, symSize: 0xBC }
  - { offsetInCU: 0x55AC, offset: 0xC3EE, size: 0x8, addend: 0x0, symName: __ZN8pybind116detail23handle_nested_exceptionISt11range_errorLi0EEEbRKT_RKSt13exception_ptr, symObjAddr: 0xCBE0, symBinAddr: 0x10478, symSize: 0xBC }
  - { offsetInCU: 0x560D, offset: 0xC44F, size: 0x8, addend: 0x0, symName: __ZN8pybind116detail23handle_nested_exceptionISt12out_of_rangeLi0EEEbRKT_RKSt13exception_ptr, symObjAddr: 0xCC9C, symBinAddr: 0x10534, symSize: 0xBC }
  - { offsetInCU: 0x566E, offset: 0xC4B0, size: 0x8, addend: 0x0, symName: __ZN8pybind116detail23handle_nested_exceptionISt12length_errorLi0EEEbRKT_RKSt13exception_ptr, symObjAddr: 0xCD58, symBinAddr: 0x105F0, symSize: 0xBC }
  - { offsetInCU: 0x56CF, offset: 0xC511, size: 0x8, addend: 0x0, symName: __ZN8pybind116detail23handle_nested_exceptionISt16invalid_argumentLi0EEEbRKT_RKSt13exception_ptr, symObjAddr: 0xCE14, symBinAddr: 0x106AC, symSize: 0xBC }
  - { offsetInCU: 0x5730, offset: 0xC572, size: 0x8, addend: 0x0, symName: __ZN8pybind116detail23handle_nested_exceptionISt12domain_errorLi0EEEbRKT_RKSt13exception_ptr, symObjAddr: 0xCED0, symBinAddr: 0x10768, symSize: 0xBC }
  - { offsetInCU: 0x5791, offset: 0xC5D3, size: 0x8, addend: 0x0, symName: __ZN8pybind116detail23handle_nested_exceptionISt9bad_allocLi0EEEbRKT_RKSt13exception_ptr, symObjAddr: 0xCF8C, symBinAddr: 0x10824, symSize: 0xBC }
  - { offsetInCU: 0x57F2, offset: 0xC634, size: 0x8, addend: 0x0, symName: __ZN8pybind116detail23handle_nested_exceptionINS_17error_already_setELi0EEEbRKT_RKSt13exception_ptr, symObjAddr: 0xD048, symBinAddr: 0x108E0, symSize: 0xBC }
  - { offsetInCU: 0x5853, offset: 0xC695, size: 0x8, addend: 0x0, symName: __ZN8pybind116detail11type_increfEP11_typeobject, symObjAddr: 0xD35C, symBinAddr: 0x10BF4, symSize: 0x28 }
  - { offsetInCU: 0x587F, offset: 0xC6C1, size: 0x8, addend: 0x0, symName: __ZN8pybind116detail13all_type_infoEP11_typeobject, symObjAddr: 0xDD38, symBinAddr: 0x115D0, symSize: 0x68 }
  - { offsetInCU: 0x58B9, offset: 0xC6FB, size: 0x8, addend: 0x0, symName: __ZN8pybind116detail22all_type_info_populateEP11_typeobjectRNSt3__16vectorIPNS0_9type_infoENS3_9allocatorIS6_EEEE, symObjAddr: 0xDE94, symBinAddr: 0x1172C, symSize: 0x4B0 }
  - { offsetInCU: 0x5C04, offset: 0xCA46, size: 0x8, addend: 0x0, symName: __ZN8pybind116detail7cast_opINS_6handleEEENS0_11type_casterINS0_14intrinsic_typeIT_E4typeEvE12cast_op_typeINSt3__120add_rvalue_referenceIS5_E4typeEEEOS8_, symObjAddr: 0x1438C, symBinAddr: 0x17C24, symSize: 0x24 }
  - { offsetInCU: 0x5C39, offset: 0xCA7B, size: 0x8, addend: 0x0, symName: __ZN8pybind116detail13get_type_infoERKNSt3__110type_indexEb, symObjAddr: 0x1587C, symBinAddr: 0x19114, symSize: 0x150 }
  - { offsetInCU: 0x5CB7, offset: 0xCAF9, size: 0x8, addend: 0x0, symName: __ZN8pybind116detail26is_function_record_capsuleERKNS_7capsuleE, symObjAddr: 0x15C04, symBinAddr: 0x1949C, symSize: 0x40 }
  - { offsetInCU: 0x5CE5, offset: 0xCB27, size: 0x8, addend: 0x0, symName: __ZN8pybind116detail32get_function_record_capsule_nameEv, symObjAddr: 0x17FC0, symBinAddr: 0x1B858, symSize: 0x8 }
  - { offsetInCU: 0x5D04, offset: 0xCB46, size: 0x8, addend: 0x0, symName: __ZN8pybind116detail19get_local_type_infoERKNSt3__110type_indexE, symObjAddr: 0x1A074, symBinAddr: 0x1D90C, symSize: 0x80 }
  - { offsetInCU: 0x5D4C, offset: 0xCB8E, size: 0x8, addend: 0x0, symName: __ZN8pybind116detail20get_global_type_infoERKNSt3__110type_indexE, symObjAddr: 0x1A0F4, symBinAddr: 0x1D98C, symSize: 0x80 }
  - { offsetInCU: 0x5D94, offset: 0xCBD6, size: 0x8, addend: 0x0, symName: __ZN8pybind116detail13get_type_infoEP11_typeobject, symObjAddr: 0x1E6E4, symBinAddr: 0x21F7C, symSize: 0x7C }
  - { offsetInCU: 0x5DCE, offset: 0xCC10, size: 0x8, addend: 0x0, symName: __ZN8pybind116detail18dict_getitemstringEP7_objectPKc, symObjAddr: 0x1EC04, symBinAddr: 0x2249C, symSize: 0x124 }
  - { offsetInCU: 0x5E29, offset: 0xCC6B, size: 0x8, addend: 0x0, symName: __ZN8pybind116detail27apply_exception_translatorsERNSt3__112forward_listIPFvSt13exception_ptrENS1_9allocatorIS5_EEEE, symObjAddr: 0x1F630, symBinAddr: 0x22EC8, symSize: 0x17C }
  - { offsetInCU: 0x5EA5, offset: 0xCCE7, size: 0x8, addend: 0x0, symName: __ZN8pybind116detailneERKNS0_16generic_iteratorINS0_17iterator_policies13dict_readonlyEEES6_, symObjAddr: 0x1F96C, symBinAddr: 0x23204, symSize: 0x34 }
  - { offsetInCU: 0x5EE2, offset: 0xCD24, size: 0x8, addend: 0x0, symName: __ZN8pybind116detail14object_or_castEP7_object, symObjAddr: 0x23DD0, symBinAddr: 0x27668, symSize: 0x2C }
  - { offsetInCU: 0x5F10, offset: 0xCD52, size: 0x8, addend: 0x0, symName: __ZN8pybind116detaileqERKNS0_16generic_iteratorINS0_17iterator_policies13dict_readonlyEEES6_, symObjAddr: 0x28DAC, symBinAddr: 0x2C644, symSize: 0x30 }
  - { offsetInCU: 0x5F4D, offset: 0xCD8F, size: 0x8, addend: 0x0, symName: __ZN8pybind116detail17collect_argumentsILNS_19return_value_policyE1EJRNS_6handleEEvEENS0_16simple_collectorIXT_EEEDpOT0_, symObjAddr: 0x28FB4, symBinAddr: 0x2C84C, symSize: 0x38 }
  - { offsetInCU: 0x5F92, offset: 0xCDD4, size: 0x8, addend: 0x0, symName: __ZN8pybind116detailneERKNS0_16generic_iteratorINS0_17iterator_policies22sequence_fast_readonlyEEES6_, symObjAddr: 0x2A7D8, symBinAddr: 0x2E070, symSize: 0x34 }
  - { offsetInCU: 0x5FCF, offset: 0xCE11, size: 0x8, addend: 0x0, symName: __ZN8pybind116detaileqERKNS0_16generic_iteratorINS0_17iterator_policies22sequence_fast_readonlyEEES6_, symObjAddr: 0x2AEDC, symBinAddr: 0x2E774, symSize: 0x30 }
  - { offsetInCU: 0x600C, offset: 0xCE4E, size: 0x8, addend: 0x0, symName: __ZN8pybind116detail17make_new_instanceEP11_typeobject, symObjAddr: 0x30D8C, symBinAddr: 0x34624, symSize: 0x48 }
  - { offsetInCU: 0x6058, offset: 0xCE9A, size: 0x8, addend: 0x0, symName: __ZN8pybind116detail30instance_simple_holder_in_ptrsEv, symObjAddr: 0x30FE4, symBinAddr: 0x3487C, symSize: 0x18 }
  - { offsetInCU: 0x6076, offset: 0xCEB8, size: 0x8, addend: 0x0, symName: __ZN8pybind116detailL12size_in_ptrsEm, symObjAddr: 0x30FFC, symBinAddr: 0x34894, symSize: 0x44 }
  - { offsetInCU: 0x60A5, offset: 0xCEE7, size: 0x8, addend: 0x0, symName: __ZN8pybind116detailL4log2Emi, symObjAddr: 0x31040, symBinAddr: 0x348D8, symSize: 0x60 }
  - { offsetInCU: 0x60E3, offset: 0xCF25, size: 0x8, addend: 0x0, symName: __ZN8pybind116detail14clear_instanceEP7_object, symObjAddr: 0x310A0, symBinAddr: 0x34938, symSize: 0x1C8 }
  - { offsetInCU: 0x619B, offset: 0xCFDD, size: 0x8, addend: 0x0, symName: __ZN8pybind116detail19deregister_instanceEPNS0_8instanceEPvPKNS0_9type_infoE, symObjAddr: 0x31268, symBinAddr: 0x34B00, symSize: 0x70 }
  - { offsetInCU: 0x61F6, offset: 0xD038, size: 0x8, addend: 0x0, symName: __ZN8pybind116detail14clear_patientsEP7_object, symObjAddr: 0x31318, symBinAddr: 0x34BB0, symSize: 0x1B0 }
  - { offsetInCU: 0x62B3, offset: 0xD0F5, size: 0x8, addend: 0x0, symName: __ZN8pybind116detail24deregister_instance_implEPvPNS0_8instanceE, symObjAddr: 0x314C8, symBinAddr: 0x34D60, symSize: 0xEC }
  - { offsetInCU: 0x632B, offset: 0xD16D, size: 0x8, addend: 0x0, symName: __ZN8pybind116detail21traverse_offset_basesEPvPKNS0_9type_infoEPNS0_8instanceEPFbS1_S6_E, symObjAddr: 0x315B4, symBinAddr: 0x34E4C, symSize: 0x228 }
  - { offsetInCU: 0x6458, offset: 0xD29A, size: 0x8, addend: 0x0, symName: __ZN8pybind116detail16set_operator_newI12CustomAntEnvEEvz, symObjAddr: 0x350C4, symBinAddr: 0x3895C, symSize: 0x4 }
  - { offsetInCU: 0x6479, offset: 0xD2BB, size: 0x8, addend: 0x0, symName: __ZN8pybind116detail17register_instanceEPNS0_8instanceEPvPKNS0_9type_infoE, symObjAddr: 0x35AA0, symBinAddr: 0x39338, symSize: 0x5C }
  - { offsetInCU: 0x64C1, offset: 0xD303, size: 0x8, addend: 0x0, symName: __ZN8pybind116detail22register_instance_implEPvPNS0_8instanceE, symObjAddr: 0x35C70, symBinAddr: 0x39508, symSize: 0x50 }
  - { offsetInCU: 0x64FE, offset: 0xD340, size: 0x8, addend: 0x0, symName: __ZN8pybind116detail20call_operator_deleteEPvmm, symObjAddr: 0x37414, symBinAddr: 0x3ACAC, symSize: 0x54 }
  - { offsetInCU: 0x6546, offset: 0xD388, size: 0x8, addend: 0x0, symName: __ZN8pybind116detail20make_new_python_typeERKNS0_11type_recordE, symObjAddr: 0x37640, symBinAddr: 0x3AED8, symSize: 0xB94 }
  - { offsetInCU: 0x6643, offset: 0xD485, size: 0x8, addend: 0x0, symName: __ZN8pybind116detail17collect_argumentsILNS_19return_value_policyE1EJRKPKcEvEENS0_16simple_collectorIXT_EEEDpOT0_, symObjAddr: 0x387A8, symBinAddr: 0x3C040, symSize: 0x38 }
  - { offsetInCU: 0x6688, offset: 0xD4CA, size: 0x8, addend: 0x0, symName: __ZN8pybind116detail5c_strIJNSt3__112basic_stringIcNS2_11char_traitsIcEENS2_9allocatorIcEEEEEEEPKcDpOT_, symObjAddr: 0x38E0C, symBinAddr: 0x3C6A4, symSize: 0x40 }
  - { offsetInCU: 0x66D0, offset: 0xD512, size: 0x8, addend: 0x0, symName: __ZN8pybind116detail22enable_buffer_protocolEP15_heaptypeobject, symObjAddr: 0x38F78, symBinAddr: 0x3C810, symSize: 0x40 }
  - { offsetInCU: 0x66FA, offset: 0xD53C, size: 0x8, addend: 0x0, symName: __ZN8pybind116detail9same_typeERKSt9type_infoS3_, symObjAddr: 0x3F604, symBinAddr: 0x42E9C, symSize: 0x8C }
  - { offsetInCU: 0x6734, offset: 0xD576, size: 0x8, addend: 0x0, symName: __ZN8pybind116detail16add_class_methodERNS_6objectEPKcRKNS_12cpp_functionE, symObjAddr: 0x41810, symBinAddr: 0x450A8, symSize: 0x23C }
  - { offsetInCU: 0x69C5, offset: 0xD807, size: 0x8, addend: 0x0, symName: __ZN8pybind116detail7cast_opIRNS0_16value_and_holderEEENS0_11type_casterINS0_14intrinsic_typeIT_E4typeEvE12cast_op_typeINSt3__120add_rvalue_referenceIS6_E4typeEEEOS9_, symObjAddr: 0x42650, symBinAddr: 0x45EE8, symSize: 0x24 }
  - { offsetInCU: 0x69FA, offset: 0xD83C, size: 0x8, addend: 0x0, symName: __ZN8pybind116detail7cast_opIPKcEENS0_11type_casterINS0_14intrinsic_typeIT_E4typeEvE12cast_op_typeINSt3__120add_rvalue_referenceIS6_E4typeEEEOS9_, symObjAddr: 0x42674, symBinAddr: 0x45F0C, symSize: 0x24 }
  - { offsetInCU: 0x6B07, offset: 0xD949, size: 0x8, addend: 0x0, symName: __ZN8pybind116detail14object_or_castIRKNS_12cpp_functionELi0EEEDTclsr3stdE7forwardIT_Efp_EEOS5_, symObjAddr: 0x42D84, symBinAddr: 0x4661C, symSize: 0x14 }
  - { offsetInCU: 0x6B44, offset: 0xD986, size: 0x8, addend: 0x0, symName: __ZN8pybind116detail17collect_argumentsILNS_19return_value_policyE1EJRA9_KcEvEENS0_16simple_collectorIXT_EEEDpOT0_, symObjAddr: 0x42F5C, symBinAddr: 0x467F4, symSize: 0x38 }
  - { offsetInCU: 0x6B89, offset: 0xD9CB, size: 0x8, addend: 0x0, symName: __ZN8pybind116detail14object_or_castINS_4noneELi0EEEDTclsr3stdE7forwardIT_Efp_EEOS3_, symObjAddr: 0x43420, symBinAddr: 0x46CB8, symSize: 0x14 }
  - { offsetInCU: 0x6D8B, offset: 0xDBCD, size: 0x8, addend: 0x0, symName: __ZN8pybind116detail7cast_opIPK12CustomAntEnvEENS0_11type_casterINS0_14intrinsic_typeIT_E4typeEvE12cast_op_typeINSt3__120add_rvalue_referenceIS7_E4typeEEEOSA_, symObjAddr: 0x43DD8, symBinAddr: 0x47670, symSize: 0x24 }
  - { offsetInCU: 0x6DC0, offset: 0xDC02, size: 0x8, addend: 0x0, symName: __ZN8pybind116detail7cast_opIP12CustomAntEnvEENS0_11type_casterINS0_14intrinsic_typeIT_E4typeEvE12cast_op_typeINSt3__120add_rvalue_referenceIS6_E4typeEEEOS9_, symObjAddr: 0x443DC, symBinAddr: 0x47C74, symSize: 0x24 }
  - { offsetInCU: 0x8CC3, offset: 0xFB05, size: 0x8, addend: 0x0, symName: __ZN8pybind1110raise_fromERNS_17error_already_setEP7_objectPKc, symObjAddr: 0xAD0, symBinAddr: 0x4368, symSize: 0x38 }
  - { offsetInCU: 0x8D87, offset: 0xFBC9, size: 0x8, addend: 0x0, symName: __ZN8pybind1110isinstanceINS_7capsuleELi0EEEbNS_6handleE, symObjAddr: 0xCE4, symBinAddr: 0x457C, symSize: 0x30 }
  - { offsetInCU: 0x8DC4, offset: 0xFC06, size: 0x8, addend: 0x0, symName: __ZN8pybind1113pybind11_failEPKc, symObjAddr: 0x1144, symBinAddr: 0x49DC, symSize: 0x9C }
  - { offsetInCU: 0x8F20, offset: 0xFD62, size: 0x8, addend: 0x0, symName: __ZN8pybind1113pybind11_failERKNSt3__112basic_stringIcNS0_11char_traitsIcEENS0_9allocatorIcEEEE, symObjAddr: 0x2B70, symBinAddr: 0x6408, symSize: 0x9C }
  - { offsetInCU: 0x8F4B, offset: 0xFD8D, size: 0x8, addend: 0x0, symName: __ZN8pybind1117reinterpret_stealINS_6objectEEET_NS_6handleE, symObjAddr: 0x3B08, symBinAddr: 0x73A0, symSize: 0x40 }
  - { offsetInCU: 0x8F82, offset: 0xFDC4, size: 0x8, addend: 0x0, symName: __ZN8pybind114castINSt3__112basic_stringIcNS1_11char_traitsIcEENS1_9allocatorIcEEEELi0EEET_RKNS_6handleE, symObjAddr: 0x43C4, symBinAddr: 0x7C5C, symSize: 0x78 }
  - { offsetInCU: 0x90A8, offset: 0xFEEA, size: 0x8, addend: 0x0, symName: __ZN8pybind11L7type_idINSt3__112basic_stringIcNS1_11char_traitsIcEENS1_9allocatorIcEEEEEES7_v, symObjAddr: 0x4C00, symBinAddr: 0x8498, symSize: 0x34 }
  - { offsetInCU: 0x917E, offset: 0xFFC0, size: 0x8, addend: 0x0, symName: __ZN8pybind1110make_tupleILNS_19return_value_policyE1EJRNS_3strEEEENS_5tupleEDpOT0_, symObjAddr: 0x6F58, symBinAddr: 0xA7F0, symSize: 0x3C0 }
  - { offsetInCU: 0x9271, offset: 0x100B3, size: 0x8, addend: 0x0, symName: __ZN8pybind11L7type_idIRNS_3strEEENSt3__112basic_stringIcNS3_11char_traitsIcEENS3_9allocatorIcEEEEv, symObjAddr: 0x73B8, symBinAddr: 0xAC50, symSize: 0x34 }
  - { offsetInCU: 0x9299, offset: 0x100DB, size: 0x8, addend: 0x0, symName: __ZN8pybind1137cast_error_unable_to_convert_call_argERKNSt3__112basic_stringIcNS0_11char_traitsIcEENS0_9allocatorIcEEEES8_, symObjAddr: 0x73EC, symBinAddr: 0xAC84, symSize: 0x128 }
  - { offsetInCU: 0x92D6, offset: 0x10118, size: 0x8, addend: 0x0, symName: __ZN8pybind1112ssize_t_castImEElRKT_, symObjAddr: 0x7860, symBinAddr: 0xB0F8, symSize: 0x18 }
  - { offsetInCU: 0x930D, offset: 0x1014F, size: 0x8, addend: 0x0, symName: __ZN8pybind117getattrENS_6handleEPKc, symObjAddr: 0x79D0, symBinAddr: 0xB268, symSize: 0xC4 }
  - { offsetInCU: 0x9359, offset: 0x1019B, size: 0x8, addend: 0x0, symName: __ZN8pybind114castIbEENSt3__19enable_ifIXaantsr6detail11is_pyobjectIT_EE5valuesr6detail20move_if_unreferencedIS3_EE5valueES3_E4typeEONS_6objectE, symObjAddr: 0x7AC0, symBinAddr: 0xB358, symSize: 0x6C }
  - { offsetInCU: 0x9390, offset: 0x101D2, size: 0x8, addend: 0x0, symName: __ZN8pybind114castIbLi0EEET_RKNS_6handleE, symObjAddr: 0x7B58, symBinAddr: 0xB3F0, symSize: 0x3C }
  - { offsetInCU: 0x93D5, offset: 0x10217, size: 0x8, addend: 0x0, symName: __ZN8pybind114moveIbEENSt3__19enable_ifIXntsr6detail10move_neverIT_EE5valueES3_E4typeEONS_6objectE, symObjAddr: 0x7B94, symBinAddr: 0xB42C, symSize: 0x270 }
  - { offsetInCU: 0x941B, offset: 0x1025D, size: 0x8, addend: 0x0, symName: __ZN8pybind11L7type_idIbEENSt3__112basic_stringIcNS1_11char_traitsIcEENS1_9allocatorIcEEEEv, symObjAddr: 0x8310, symBinAddr: 0xBBA8, symSize: 0x34 }
  - { offsetInCU: 0x9443, offset: 0x10285, size: 0x8, addend: 0x0, symName: __ZN8pybind1118reinterpret_borrowINS_6objectEEET_NS_6handleE, symObjAddr: 0x8438, symBinAddr: 0xBCD0, symSize: 0x40 }
  - { offsetInCU: 0x947A, offset: 0x102BC, size: 0x8, addend: 0x0, symName: __ZN8pybind1110raise_fromEP7_objectPKc, symObjAddr: 0xD104, symBinAddr: 0x1099C, symSize: 0x168 }
  - { offsetInCU: 0x94EF, offset: 0x10331, size: 0x8, addend: 0x0, symName: __ZN8pybind117setattrENS_6handleEPKcS0_, symObjAddr: 0xD448, symBinAddr: 0x10CE0, symSize: 0xC8 }
  - { offsetInCU: 0x9702, offset: 0x10544, size: 0x8, addend: 0x0, symName: __ZN8pybind114reprENS_6handleE, symObjAddr: 0x15728, symBinAddr: 0x18FC0, symSize: 0xBC }
  - { offsetInCU: 0x973F, offset: 0x10581, size: 0x8, addend: 0x0, symName: __ZN8pybind1118reinterpret_borrowINS_7capsuleEEET_NS_6handleE, symObjAddr: 0x15BC4, symBinAddr: 0x1945C, symSize: 0x40 }
  - { offsetInCU: 0x9776, offset: 0x105B8, size: 0x8, addend: 0x0, symName: __ZN8pybind117hasattrENS_6handleEPKc, symObjAddr: 0x17FEC, symBinAddr: 0x1B884, symSize: 0x44 }
  - { offsetInCU: 0x97B3, offset: 0x105F5, size: 0x8, addend: 0x0, symName: __ZN8pybind1117reinterpret_stealINS_3strEEET_NS_6handleE, symObjAddr: 0x19C90, symBinAddr: 0x1D528, symSize: 0x40 }
  - { offsetInCU: 0x97EA, offset: 0x1062C, size: 0x8, addend: 0x0, symName: __ZN8pybind114castINSt3__112basic_stringIcNS1_11char_traitsIcEENS1_9allocatorIcEEEEEENS1_9enable_ifIXaantsr6detail11is_pyobjectIT_EE5valuesr6detail20move_if_unreferencedIS9_EE5valueES9_E4typeEONS_6objectE, symObjAddr: 0x19D40, symBinAddr: 0x1D5D8, symSize: 0x5C }
  - { offsetInCU: 0x9821, offset: 0x10663, size: 0x8, addend: 0x0, symName: __ZN8pybind114moveINSt3__112basic_stringIcNS1_11char_traitsIcEENS1_9allocatorIcEEEEEENS1_9enable_ifIXntsr6detail10move_neverIT_EE5valueES9_E4typeEONS_6objectE, symObjAddr: 0x19D9C, symBinAddr: 0x1D634, symSize: 0x2C4 }
  - { offsetInCU: 0x9868, offset: 0x106AA, size: 0x8, addend: 0x0, symName: __ZN8pybind1118reinterpret_borrowINS_4dictEEET_NS_6handleE, symObjAddr: 0x1ED94, symBinAddr: 0x2262C, symSize: 0x40 }
  - { offsetInCU: 0x989F, offset: 0x106E1, size: 0x8, addend: 0x0, symName: __ZN8pybind1117reinterpret_stealINS_4dictEEET_NS_6handleE, symObjAddr: 0x1EDD4, symBinAddr: 0x2266C, symSize: 0x40 }
  - { offsetInCU: 0x98D6, offset: 0x10718, size: 0x8, addend: 0x0, symName: __ZN8pybind1118reinterpret_borrowINS_5tupleEEET_NS_6handleE, symObjAddr: 0x1EF6C, symBinAddr: 0x22804, symSize: 0x40 }
  - { offsetInCU: 0x990D, offset: 0x1074F, size: 0x8, addend: 0x0, symName: __ZN8pybind1112ssize_t_castIlEElRKT_, symObjAddr: 0x23B40, symBinAddr: 0x273D8, symSize: 0x18 }
  - { offsetInCU: 0x9944, offset: 0x10786, size: 0x8, addend: 0x0, symName: __ZN8pybind1112ssize_t_castIiEElRKT_, symObjAddr: 0x23C68, symBinAddr: 0x27500, symSize: 0x18 }
  - { offsetInCU: 0x997B, offset: 0x107BD, size: 0x8, addend: 0x0, symName: __ZN8pybind1110make_tupleILNS_19return_value_policyE1EJRNS_6handleEEEENS_5tupleEDpOT0_, symObjAddr: 0x29054, symBinAddr: 0x2C8EC, symSize: 0x3C0 }
  - { offsetInCU: 0x9A6E, offset: 0x108B0, size: 0x8, addend: 0x0, symName: __ZN8pybind11L7type_idIRNS_6handleEEENSt3__112basic_stringIcNS3_11char_traitsIcEENS3_9allocatorIcEEEEv, symObjAddr: 0x2944C, symBinAddr: 0x2CCE4, symSize: 0x34 }
  - { offsetInCU: 0x9A96, offset: 0x108D8, size: 0x8, addend: 0x0, symName: __ZN8pybind1118reinterpret_borrowINS_7module_EEET_NS_6handleE, symObjAddr: 0x34798, symBinAddr: 0x38030, symSize: 0x40 }
  - { offsetInCU: 0x9ACD, offset: 0x1090F, size: 0x8, addend: 0x0, symName: __ZN8pybind114initIJPKcEEENS_6detail8initimpl11constructorIJDpT_EEEv, symObjAddr: 0x348E0, symBinAddr: 0x38178, symSize: 0x4 }
  - { offsetInCU: 0x9AF7, offset: 0x10939, size: 0x8, addend: 0x0, symName: __ZN8pybind1110make_tupleILNS_19return_value_policyE1EJRKPKcEEENS_5tupleEDpOT0_, symObjAddr: 0x38848, symBinAddr: 0x3C0E0, symSize: 0x3B0 }
  - { offsetInCU: 0x9BEA, offset: 0x10A2C, size: 0x8, addend: 0x0, symName: __ZN8pybind11L7type_idIRKPKcEENSt3__112basic_stringIcNS5_11char_traitsIcEENS5_9allocatorIcEEEEv, symObjAddr: 0x38CE0, symBinAddr: 0x3C578, symSize: 0x34 }
  - { offsetInCU: 0x9C12, offset: 0x10A54, size: 0x8, addend: 0x0, symName: __ZN8pybind1114method_adaptorI12CustomAntEnvZNS_6detail8initimpl11constructorIJPKcEE7executeINS_6class_IS1_JEEEJELi0EEEvRT_DpRKT0_EUlRNS2_16value_and_holderES6_E_EEDTclsr3stdE7forwardIT0_Efp_EEOSK_, symObjAddr: 0x41674, symBinAddr: 0x44F0C, symSize: 0x14 }
  - { offsetInCU: 0x9C4E, offset: 0x10A90, size: 0x8, addend: 0x0, symName: __ZN8pybind117getattrENS_6handleEPKcS0_, symObjAddr: 0x416F0, symBinAddr: 0x44F88, symSize: 0x98 }
  - { offsetInCU: 0x9CAF, offset: 0x10AF1, size: 0x8, addend: 0x0, symName: __ZN8pybind117setattrENS_6handleES0_S0_, symObjAddr: 0x42D98, symBinAddr: 0x46630, symSize: 0xDC }
  - { offsetInCU: 0x9CF7, offset: 0x10B39, size: 0x8, addend: 0x0, symName: __ZN8pybind1110make_tupleILNS_19return_value_policyE1EJRA9_KcEEENS_5tupleEDpOT0_, symObjAddr: 0x42FFC, symBinAddr: 0x46894, symSize: 0x3AC }
  - { offsetInCU: 0x9DEA, offset: 0x10C2C, size: 0x8, addend: 0x0, symName: __ZN8pybind11L7type_idIRA9_KcEENSt3__112basic_stringIcNS4_11char_traitsIcEENS4_9allocatorIcEEEEv, symObjAddr: 0x433A8, symBinAddr: 0x46C40, symSize: 0x34 }
  - { offsetInCU: 0x9E12, offset: 0x10C54, size: 0x8, addend: 0x0, symName: __ZN8pybind1114method_adaptorI12CustomAntEnvdS1_JEEEMT_KFT0_DpT2_EMT1_KFS3_S5_E, symObjAddr: 0x43434, symBinAddr: 0x46CCC, symSize: 0x3C }
  - { offsetInCU: 0x9E60, offset: 0x10CA2, size: 0x8, addend: 0x0, symName: __ZN8pybind1114method_adaptorI12CustomAntEnvvS1_JEEEMT_FT0_DpT2_EMT1_FS3_S5_E, symObjAddr: 0x43E14, symBinAddr: 0x476AC, symSize: 0x3C }
  - { offsetInCU: 0x9EAA, offset: 0x10CEC, size: 0x8, addend: 0x0, symName: __ZN8pybind1114method_adaptorI12CustomAntEnvbS1_JEEEMT_KFT0_DpT2_EMT1_KFS3_S5_E, symObjAddr: 0x44400, symBinAddr: 0x47C98, symSize: 0x3C }
  - { offsetInCU: 0x2D05E, offset: 0x33EA0, size: 0x8, addend: 0x0, symName: __ZNSt3__1L19piecewise_constructE, symObjAddr: 0x482D7, symBinAddr: 0x4D60E, symSize: 0x0 }
  - { offsetInCU: 0x34E5B, offset: 0x3BC9D, size: 0x8, addend: 0x0, symName: __ZNSt3__114__copy_alignedB7v160006INS_6vectorIbNS_9allocatorIbEEEELb0EEENS_14__bit_iteratorIT_Lb0EXLi0EEEENS5_IS6_XT0_EXLi0EEEES8_S7_, symObjAddr: 0x220B4, symBinAddr: 0x2594C, symSize: 0x278 }
  - { offsetInCU: 0x34F89, offset: 0x3BDCB, size: 0x8, addend: 0x0, symName: __ZNSt3__16copy_nB7v160006IPmmS1_EENS_9enable_ifIXsr33__is_cpp17_random_access_iteratorIT_EE5valueET1_E4typeES3_T0_S4_, symObjAddr: 0x22898, symBinAddr: 0x26130, symSize: 0x44 }
  - { offsetInCU: 0x35030, offset: 0x3BE72, size: 0x8, addend: 0x0, symName: __ZNSt3__116__copy_unalignedB7v160006INS_6vectorIbNS_9allocatorIbEEEELb0EEENS_14__bit_iteratorIT_Lb0EXLi0EEEENS5_IS6_XT0_EXLi0EEEES8_S7_, symObjAddr: 0x2232C, symBinAddr: 0x25BC4, symSize: 0x540 }
  - { offsetInCU: 0x351AE, offset: 0x3BFF0, size: 0x8, addend: 0x0, symName: __ZNSt3__114__copy_alignedB7v160006INS_6vectorIbNS_9allocatorIbEEEELb1EEENS_14__bit_iteratorIT_Lb0EXLi0EEEENS5_IS6_XT0_EXLi0EEEES8_S7_, symObjAddr: 0x24230, symBinAddr: 0x27AC8, symSize: 0x268 }
  - { offsetInCU: 0x352DA, offset: 0x3C11C, size: 0x8, addend: 0x0, symName: __ZNSt3__16copy_nB7v160006IPKmmPmEENS_9enable_ifIXsr33__is_cpp17_random_access_iteratorIT_EE5valueET1_E4typeES5_T0_S6_, symObjAddr: 0x24A00, symBinAddr: 0x28298, symSize: 0x44 }
  - { offsetInCU: 0x35381, offset: 0x3C1C3, size: 0x8, addend: 0x0, symName: __ZNSt3__116__copy_unalignedB7v160006INS_6vectorIbNS_9allocatorIbEEEELb1EEENS_14__bit_iteratorIT_Lb0EXLi0EEEENS5_IS6_XT0_EXLi0EEEES8_S7_, symObjAddr: 0x24498, symBinAddr: 0x27D30, symSize: 0x520 }
  - { offsetInCU: 0x35501, offset: 0x3C343, size: 0x8, addend: 0x0, symName: __ZNSt3__113__fill_n_trueB7v160006INS_6vectorIbNS_9allocatorIbEEEEEEvNS_14__bit_iteratorIT_Lb0EXLi0EEEENS6_9size_typeE, symObjAddr: 0x250BC, symBinAddr: 0x28954, symSize: 0x160 }
  - { offsetInCU: 0x355C6, offset: 0x3C408, size: 0x8, addend: 0x0, symName: __ZNSt3__114__fill_n_falseB7v160006INS_6vectorIbNS_9allocatorIbEEEEEEvNS_14__bit_iteratorIT_Lb0EXLi0EEEENS6_9size_typeE, symObjAddr: 0x2521C, symBinAddr: 0x28AB4, symSize: 0x15C }
  - { offsetInCU: 0x3C36E, offset: 0x431B0, size: 0x8, addend: 0x0, symName: __ZNSt3__17advanceB7v160006IPKPN8pybind116detail9type_infoEmmvEEvRT_T0_, symObjAddr: 0x3DB70, symBinAddr: 0x41408, symSize: 0x50 }
  - { offsetInCU: 0x3E1FE, offset: 0x45040, size: 0x8, addend: 0x0, symName: __ZNSt3__1plB7v160006IcNS_11char_traitsIcEENS_9allocatorIcEEEENS_12basic_stringIT_T0_T1_EEOS9_PKS6_, symObjAddr: 0x2C0C, symBinAddr: 0x64A4, symSize: 0x40 }
  - { offsetInCU: 0x3E256, offset: 0x45098, size: 0x8, addend: 0x0, symName: __ZNSt3__1plB7v160006IcNS_11char_traitsIcEENS_9allocatorIcEEEENS_12basic_stringIT_T0_T1_EEPKS6_OS9_, symObjAddr: 0x2C4C, symBinAddr: 0x64E4, symSize: 0x44 }
  - { offsetInCU: 0x3E2AE, offset: 0x450F0, size: 0x8, addend: 0x0, symName: __ZNSt3__1neB7v160006IcNS_11char_traitsIcEENS_9allocatorIcEEEEbPKT_RKNS_12basic_stringIS5_T0_T1_EE, symObjAddr: 0x2D4C, symBinAddr: 0x65E4, symSize: 0x34 }
  - { offsetInCU: 0x3E307, offset: 0x45149, size: 0x8, addend: 0x0, symName: __ZNSt3__119__debug_db_insert_cB7v160006INS_12basic_stringIcNS_11char_traitsIcEENS_9allocatorIcEEEEEEvPT_, symObjAddr: 0x34C0, symBinAddr: 0x6D58, symSize: 0x10 }
  - { offsetInCU: 0x3E339, offset: 0x4517B, size: 0x8, addend: 0x0, symName: __ZNSt3__115__debug_db_swapB7v160006INS_12basic_stringIcNS_11char_traitsIcEENS_9allocatorIcEEEEEEvPT_S8_, symObjAddr: 0x36F0, symBinAddr: 0x6F88, symSize: 0x14 }
  - { offsetInCU: 0x3E378, offset: 0x451BA, size: 0x8, addend: 0x0, symName: __ZNSt3__118__constexpr_strlenB7v160006EPKc, symObjAddr: 0x37D0, symBinAddr: 0x7068, symSize: 0x24 }
  - { offsetInCU: 0x3E3A4, offset: 0x451E6, size: 0x8, addend: 0x0, symName: __ZNSt3__1eqB7v160006IcNS_11char_traitsIcEENS_9allocatorIcEEEEbPKT_RKNS_12basic_stringIS5_T0_T1_EE, symObjAddr: 0x386C, symBinAddr: 0x7104, symSize: 0xAC }
  - { offsetInCU: 0x3E40C, offset: 0x4524E, size: 0x8, addend: 0x0, symName: __ZNSt3__112__to_addressB7v160006IKcEEPT_S3_, symObjAddr: 0x3A3C, symBinAddr: 0x72D4, symSize: 0x14 }
  - { offsetInCU: 0x3E474, offset: 0x452B6, size: 0x8, addend: 0x0, symName: __ZNSt3__119__libcpp_deallocateB7v160006EPvmm, symObjAddr: 0x4188, symBinAddr: 0x7A20, symSize: 0x60 }
  - { offsetInCU: 0x3E4D9, offset: 0x4531B, size: 0x8, addend: 0x0, symName: __ZNSt3__124__is_overaligned_for_newB7v160006Em, symObjAddr: 0x41E8, symBinAddr: 0x7A80, symSize: 0x20 }
  - { offsetInCU: 0x3E507, offset: 0x45349, size: 0x8, addend: 0x0, symName: __ZNSt3__127__do_deallocate_handle_sizeB7v160006IJSt11align_val_tEEEvPvmDpT_, symObjAddr: 0x4208, symBinAddr: 0x7AA0, symSize: 0x30 }
  - { offsetInCU: 0x3E55A, offset: 0x4539C, size: 0x8, addend: 0x0, symName: __ZNSt3__127__do_deallocate_handle_sizeB7v160006IJEEEvPvmDpT_, symObjAddr: 0x4238, symBinAddr: 0x7AD0, symSize: 0x28 }
  - { offsetInCU: 0x3E598, offset: 0x453DA, size: 0x8, addend: 0x0, symName: __ZNSt3__124__libcpp_operator_deleteB7v160006IJPvSt11align_val_tEEEvDpT_, symObjAddr: 0x4260, symBinAddr: 0x7AF8, symSize: 0x2C }
  - { offsetInCU: 0x3E5E1, offset: 0x45423, size: 0x8, addend: 0x0, symName: __ZNSt3__124__libcpp_operator_deleteB7v160006IJPvEEEvDpT_, symObjAddr: 0x428C, symBinAddr: 0x7B24, symSize: 0x24 }
  - { offsetInCU: 0x3E649, offset: 0x4548B, size: 0x8, addend: 0x0, symName: __ZNSt3__1plB7v160006IcNS_11char_traitsIcEENS_9allocatorIcEEEENS_12basic_stringIT_T0_T1_EEOS9_SA_, symObjAddr: 0x496C, symBinAddr: 0x8204, symSize: 0x40 }
  - { offsetInCU: 0x3EADD, offset: 0x4591F, size: 0x8, addend: 0x0, symName: __ZNSt3__110__str_findB7v160006IcmNS_11char_traitsIcEELm18446744073709551615EEET0_PKT_S3_S6_S3_S3_, symObjAddr: 0x56AC, symBinAddr: 0x8F44, symSize: 0xE4 }
  - { offsetInCU: 0x3EB84, offset: 0x459C6, size: 0x8, addend: 0x0, symName: __ZNSt3__118__search_substringB7v160006IcNS_11char_traitsIcEEEEPKT_S5_S5_S5_S5_, symObjAddr: 0x5790, symBinAddr: 0x9028, symSize: 0x154 }
  - { offsetInCU: 0x3EC1E, offset: 0x45A60, size: 0x8, addend: 0x0, symName: __ZNSt3__123__constexpr_char_memchrB7v160006EPKcim, symObjAddr: 0x59C0, symBinAddr: 0x9258, symSize: 0x34 }
  - { offsetInCU: 0x3EC66, offset: 0x45AA8, size: 0x8, addend: 0x0, symName: __ZNSt3__118__constexpr_memcmpB7v160006IcEEiPKT_S3_m, symObjAddr: 0x59F4, symBinAddr: 0x928C, symSize: 0x34 }
  - { offsetInCU: 0x3F532, offset: 0x46374, size: 0x8, addend: 0x0, symName: __ZNSt3__134__libcpp_atomic_refcount_decrementB7v160006IlEET_RS1_, symObjAddr: 0x6B48, symBinAddr: 0xA3E0, symSize: 0x30 }
  - { offsetInCU: 0x3F841, offset: 0x46683, size: 0x8, addend: 0x0, symName: __ZNSt3__1plB7v160006IcNS_11char_traitsIcEENS_9allocatorIcEEEENS_12basic_stringIT_T0_T1_EEOS9_RKS9_, symObjAddr: 0x771C, symBinAddr: 0xAFB4, symSize: 0x40 }
  - { offsetInCU: 0x3FDE2, offset: 0x46C24, size: 0x8, addend: 0x0, symName: __ZNSt3__117__libcpp_allocateB7v160006Emm, symObjAddr: 0x8F20, symBinAddr: 0xC7B8, symSize: 0x60 }
  - { offsetInCU: 0x3FE3C, offset: 0x46C7E, size: 0x8, addend: 0x0, symName: __ZNSt3__121__libcpp_operator_newB7v160006IJmSt11align_val_tEEEPvDpT_, symObjAddr: 0x8F94, symBinAddr: 0xC82C, symSize: 0x2C }
  - { offsetInCU: 0x3FE89, offset: 0x46CCB, size: 0x8, addend: 0x0, symName: __ZNSt3__121__libcpp_operator_newB7v160006IJmEEEPvDpT_, symObjAddr: 0x8FC0, symBinAddr: 0xC858, symSize: 0x24 }
  - { offsetInCU: 0x3FEF6, offset: 0x46D38, size: 0x8, addend: 0x0, symName: __ZNSt3__119__debug_db_insert_cB7v160006INS_13unordered_mapINS_10type_indexEPN8pybind116detail9type_infoENS4_9type_hashENS4_13type_equal_toENS_9allocatorINS_4pairIKS2_S6_EEEEEEEEvPT_, symObjAddr: 0x9774, symBinAddr: 0xD00C, symSize: 0x10 }
  - { offsetInCU: 0x3FF28, offset: 0x46D6A, size: 0x8, addend: 0x0, symName: __ZNSt3__119__debug_db_insert_cB7v160006INS_13unordered_mapIP11_typeobjectNS_6vectorIPN8pybind116detail9type_infoENS_9allocatorIS8_EEEENS_4hashIS3_EENS_8equal_toIS3_EENS9_INS_4pairIKS3_SB_EEEEEEEEvPT_, symObjAddr: 0x9DE0, symBinAddr: 0xD678, symSize: 0x10 }
  - { offsetInCU: 0x3FF5A, offset: 0x46D9C, size: 0x8, addend: 0x0, symName: __ZNSt3__119__debug_db_insert_cB7v160006INS_18unordered_multimapIPKvPN8pybind116detail8instanceENS_4hashIS3_EENS_8equal_toIS3_EENS_9allocatorINS_4pairIKS3_S7_EEEEEEEEvPT_, symObjAddr: 0xA404, symBinAddr: 0xDC9C, symSize: 0x10 }
  - { offsetInCU: 0x3FF8C, offset: 0x46DCE, size: 0x8, addend: 0x0, symName: __ZNSt3__119__debug_db_insert_cB7v160006INS_13unordered_setINS_4pairIPK7_objectPKcEEN8pybind116detail13override_hashENS_8equal_toIS8_EENS_9allocatorIS8_EEEEEEvPT_, symObjAddr: 0xAA28, symBinAddr: 0xE2C0, symSize: 0x10 }
  - { offsetInCU: 0x3FFBE, offset: 0x46E00, size: 0x8, addend: 0x0, symName: __ZNSt3__119__debug_db_insert_cB7v160006INS_13unordered_mapINS_10type_indexENS_6vectorIPFbP7_objectRPvENS_9allocatorIS9_EEEEN8pybind116detail9type_hashENSE_13type_equal_toENSA_INS_4pairIKS2_SC_EEEEEEEEvPT_, symObjAddr: 0xAFF4, symBinAddr: 0xE88C, symSize: 0x10 }
  - { offsetInCU: 0x3FFF0, offset: 0x46E32, size: 0x8, addend: 0x0, symName: __ZNSt3__119__debug_db_insert_cB7v160006INS_13unordered_mapIPK7_objectNS_6vectorIPS2_NS_9allocatorIS6_EEEENS_4hashIS4_EENS_8equal_toIS4_EENS7_INS_4pairIKS4_S9_EEEEEEEEvPT_, symObjAddr: 0xB618, symBinAddr: 0xEEB0, symSize: 0x10 }
  - { offsetInCU: 0x40022, offset: 0x46E64, size: 0x8, addend: 0x0, symName: __ZNSt3__119__debug_db_insert_cB7v160006INS_13unordered_mapINS_12basic_stringIcNS_11char_traitsIcEENS_9allocatorIcEEEEPvNS_4hashIS7_EENS_8equal_toIS7_EENS5_INS_4pairIKS7_S8_EEEEEEEEvPT_, symObjAddr: 0xBE04, symBinAddr: 0xF69C, symSize: 0x10 }
  - { offsetInCU: 0x40054, offset: 0x46E96, size: 0x8, addend: 0x0, symName: __ZNSt3__119__debug_db_insert_cB7v160006INS_6vectorIP7_objectNS_9allocatorIS3_EEEEEEvPT_, symObjAddr: 0xC454, symBinAddr: 0xFCEC, symSize: 0x10 }
  - { offsetInCU: 0x400BC, offset: 0x46EFE, size: 0x8, addend: 0x0, symName: __ZNSt3__116forward_as_tupleB7v160006IJRKP11_typeobjectEEENS_5tupleIJDpOT_EEES8_, symObjAddr: 0xE98C, symBinAddr: 0x12224, symSize: 0x2C }
  - { offsetInCU: 0x400F5, offset: 0x46F37, size: 0x8, addend: 0x0, symName: __ZNSt3__116forward_as_tupleB7v160006IJEEENS_5tupleIJDpOT_EEES4_, symObjAddr: 0xE9B8, symBinAddr: 0x12250, symSize: 0x4 }
  - { offsetInCU: 0x4011A, offset: 0x46F5C, size: 0x8, addend: 0x0, symName: __ZNSt3__116__constrain_hashB7v160006Emm, symObjAddr: 0xEA70, symBinAddr: 0x12308, symSize: 0x98 }
  - { offsetInCU: 0x40154, offset: 0x46F96, size: 0x8, addend: 0x0, symName: __ZNSt3__13maxB7v160006ImEERKT_S3_S3_, symObjAddr: 0xEDB4, symBinAddr: 0x1264C, symSize: 0x2C }
  - { offsetInCU: 0x40198, offset: 0x46FDA, size: 0x8, addend: 0x0, symName: __ZNSt3__116__is_hash_power2B7v160006Em, symObjAddr: 0xEDE0, symBinAddr: 0x12678, symSize: 0x50 }
  - { offsetInCU: 0x401C5, offset: 0x47007, size: 0x8, addend: 0x0, symName: __ZNSt3__110__loadwordB7v160006ImEET_PKv, symObjAddr: 0xFA00, symBinAddr: 0x13298, symSize: 0x20 }
  - { offsetInCU: 0x40209, offset: 0x4704B, size: 0x8, addend: 0x0, symName: __ZNSt3__14swapB7v160006ImEENS_9enable_ifIXaasr21is_move_constructibleIT_EE5valuesr18is_move_assignableIS2_EE5valueEvE4typeERS2_S5_, symObjAddr: 0xFBBC, symBinAddr: 0x13454, symSize: 0x3C }
  - { offsetInCU: 0x4025B, offset: 0x4709D, size: 0x8, addend: 0x0, symName: __ZNSt3__110__loadwordB7v160006IjEET_PKv, symObjAddr: 0xFC4C, symBinAddr: 0x134E4, symSize: 0x20 }
  - { offsetInCU: 0x4029E, offset: 0x470E0, size: 0x8, addend: 0x0, symName: __ZNSt3__17launderB7v160006IKNS_4pairIKP11_typeobjectNS_6vectorIPN8pybind116detail9type_infoENS_9allocatorIS9_EEEEEEEEPT_SG_, symObjAddr: 0xFF3C, symBinAddr: 0x137D4, symSize: 0x24 }
  - { offsetInCU: 0x402D5, offset: 0x47117, size: 0x8, addend: 0x0, symName: __ZNSt3__19__launderB7v160006IKNS_4pairIKP11_typeobjectNS_6vectorIPN8pybind116detail9type_infoENS_9allocatorIS9_EEEEEEEEPT_SG_, symObjAddr: 0xFF60, symBinAddr: 0x137F8, symSize: 0x14 }
  - { offsetInCU: 0x40369, offset: 0x471AB, size: 0x8, addend: 0x0, symName: __ZNSt3__13getB7v160006ILm0EJRKP11_typeobjectEEERNS_13tuple_elementIXT_ENS_5tupleIJDpT0_EEEE4typeERS9_, symObjAddr: 0x10418, symBinAddr: 0x13CB0, symSize: 0x24 }
  - { offsetInCU: 0x403AD, offset: 0x471EF, size: 0x8, addend: 0x0, symName: __ZNSt3__119__debug_db_insert_cB7v160006INS_6vectorIPN8pybind116detail9type_infoENS_9allocatorIS5_EEEEEEvPT_, symObjAddr: 0x10514, symBinAddr: 0x13DAC, symSize: 0x10 }
  - { offsetInCU: 0x403DE, offset: 0x47220, size: 0x8, addend: 0x0, symName: __ZNSt3__17launderB7v160006INS_4pairIKP11_typeobjectNS_6vectorIPN8pybind116detail9type_infoENS_9allocatorIS9_EEEEEEEEPT_SF_, symObjAddr: 0x10610, symBinAddr: 0x13EA8, symSize: 0x24 }
  - { offsetInCU: 0x40415, offset: 0x47257, size: 0x8, addend: 0x0, symName: __ZNSt3__19__launderB7v160006INS_4pairIKP11_typeobjectNS_6vectorIPN8pybind116detail9type_infoENS_9allocatorIS9_EEEEEEEEPT_SF_, symObjAddr: 0x10634, symBinAddr: 0x13ECC, symSize: 0x14 }
  - { offsetInCU: 0x4044C, offset: 0x4728E, size: 0x8, addend: 0x0, symName: __ZNSt3__116__next_hash_pow2B7v160006Em, symObjAddr: 0x10B2C, symBinAddr: 0x143C4, symSize: 0x6C }
  - { offsetInCU: 0x40479, offset: 0x472BB, size: 0x8, addend: 0x0, symName: __ZNSt3__125__debug_db_invalidate_allB7v160006INS_12__hash_tableINS_17__hash_value_typeIP11_typeobjectNS_6vectorIPN8pybind116detail9type_infoENS_9allocatorIS9_EEEEEENS_22__unordered_map_hasherIS4_SD_NS_4hashIS4_EENS_8equal_toIS4_EELb1EEENS_21__unordered_map_equalIS4_SD_SI_SG_Lb1EEENSA_ISD_EEEEEEvPT_, symObjAddr: 0x10B98, symBinAddr: 0x14430, symSize: 0x10 }
  - { offsetInCU: 0x404C8, offset: 0x4730A, size: 0x8, addend: 0x0, symName: __ZNSt3__112__libcpp_clzB7v160006Em, symObjAddr: 0x10EE4, symBinAddr: 0x1477C, symSize: 0x1C }
  - { offsetInCU: 0x404F4, offset: 0x47336, size: 0x8, addend: 0x0, symName: __ZNSt3__13maxB7v160006ImNS_6__lessImmEEEERKT_S5_S5_T0_, symObjAddr: 0x10F00, symBinAddr: 0x14798, symSize: 0x54 }
  - { offsetInCU: 0x4058B, offset: 0x473CD, size: 0x8, addend: 0x0, symName: __ZNSt3__118__debug_db_erase_cB7v160006INS_6vectorIPN8pybind116detail9type_infoENS_9allocatorIS5_EEEEEEvPT_, symObjAddr: 0x1141C, symBinAddr: 0x14CB4, symSize: 0x10 }
  - { offsetInCU: 0x405BD, offset: 0x473FF, size: 0x8, addend: 0x0, symName: __ZNSt3__112__to_addressB7v160006IPN8pybind116detail9type_infoEEEPT_S6_, symObjAddr: 0x11560, symBinAddr: 0x14DF8, symSize: 0x14 }
  - { offsetInCU: 0x40617, offset: 0x47459, size: 0x8, addend: 0x0, symName: __ZNSt3__119__debug_db_insert_cB7v160006INS_6vectorIN8pybind116detail15argument_recordENS_9allocatorIS4_EEEEEEvPT_, symObjAddr: 0x13944, symBinAddr: 0x171DC, symSize: 0x10 }
  - { offsetInCU: 0x40682, offset: 0x474C4, size: 0x8, addend: 0x0, symName: __ZNSt3__13getB7v160006ILm0EJN8pybind116detail11type_casterINS1_6handleEvEEEEERNS_13tuple_elementIXT_ENS_5tupleIJDpT0_EEEE4typeERSA_, symObjAddr: 0x13FD4, symBinAddr: 0x1786C, symSize: 0x24 }
  - { offsetInCU: 0x406C5, offset: 0x47507, size: 0x8, addend: 0x0, symName: __ZNSt3__1neB7v160006ERKNS_21__hash_const_iteratorIPNS_11__hash_nodeINS_4pairIPK7_objectPKcEEPvEEEESE_, symObjAddr: 0x1444C, symBinAddr: 0x17CE4, symSize: 0x34 }
  - { offsetInCU: 0x40702, offset: 0x47544, size: 0x8, addend: 0x0, symName: __ZNSt3__1eqB7v160006ERKNS_15__hash_iteratorIPNS_11__hash_nodeINS_17__hash_value_typeIP11_typeobjectNS_6vectorIPN8pybind116detail9type_infoENS_9allocatorIS9_EEEEEEPvEEEESJ_, symObjAddr: 0x14764, symBinAddr: 0x17FFC, symSize: 0x30 }
  - { offsetInCU: 0x4073F, offset: 0x47581, size: 0x8, addend: 0x0, symName: __ZNSt3__1eqB7v160006ERKNS_21__hash_const_iteratorIPNS_11__hash_nodeINS_4pairIPK7_objectPKcEEPvEEEESE_, symObjAddr: 0x14C2C, symBinAddr: 0x184C4, symSize: 0x30 }
  - { offsetInCU: 0x40800, offset: 0x47642, size: 0x8, addend: 0x0, symName: __ZNSt3__1neB7v160006IPN8pybind116detail15argument_recordEEEbRKNS_11__wrap_iterIT_EES9_, symObjAddr: 0x156DC, symBinAddr: 0x18F74, symSize: 0x34 }
  - { offsetInCU: 0x40844, offset: 0x47686, size: 0x8, addend: 0x0, symName: __ZNSt3__119__debug_db_insert_cB7v160006INS_6vectorIPcNS_9allocatorIS2_EEEEEEvPT_, symObjAddr: 0x182BC, symBinAddr: 0x1BB54, symSize: 0x10 }
  - { offsetInCU: 0x40876, offset: 0x476B8, size: 0x8, addend: 0x0, symName: __ZNSt3__112__to_addressB7v160006IPcEEPT_S3_, symObjAddr: 0x18660, symBinAddr: 0x1BEF8, symSize: 0x14 }
  - { offsetInCU: 0x408AB, offset: 0x476ED, size: 0x8, addend: 0x0, symName: __ZNSt3__13minB7v160006ImEERKT_S3_S3_, symObjAddr: 0x18A84, symBinAddr: 0x1C31C, symSize: 0x2C }
  - { offsetInCU: 0x40AE1, offset: 0x47923, size: 0x8, addend: 0x0, symName: __ZNSt3__13minB7v160006ImNS_6__lessImmEEEERKT_S5_S5_T0_, symObjAddr: 0x18B10, symBinAddr: 0x1C3A8, symSize: 0x54 }
  - { offsetInCU: 0x40B3C, offset: 0x4797E, size: 0x8, addend: 0x0, symName: __ZNSt3__120__throw_length_errorB7v160006EPKc, symObjAddr: 0x18BB8, symBinAddr: 0x1C450, symSize: 0x64 }
  - { offsetInCU: 0x40B64, offset: 0x479A6, size: 0x8, addend: 0x0, symName: __ZNSt3__119__allocate_at_leastB7v160006INS_9allocatorIPcEEEENS_19__allocation_resultINS_16allocator_traitsIT_E7pointerEEERS6_m, symObjAddr: 0x18E0C, symBinAddr: 0x1C6A4, symSize: 0x40 }
  - { offsetInCU: 0x40BA7, offset: 0x479E9, size: 0x8, addend: 0x0, symName: __ZNSt3__142__uninitialized_allocator_move_if_noexceptB7v160006INS_9allocatorIPcEENS_16reverse_iteratorIPS2_EES6_S2_vEET1_RT_T0_SA_S7_, symObjAddr: 0x19078, symBinAddr: 0x1C910, symSize: 0x78 }
  - { offsetInCU: 0x40C27, offset: 0x47A69, size: 0x8, addend: 0x0, symName: __ZNSt3__14swapB7v160006IPPcEENS_9enable_ifIXaasr21is_move_constructibleIT_EE5valuesr18is_move_assignableIS4_EE5valueEvE4typeERS4_S7_, symObjAddr: 0x1913C, symBinAddr: 0x1C9D4, symSize: 0x3C }
  - { offsetInCU: 0x40C79, offset: 0x47ABB, size: 0x8, addend: 0x0, symName: __ZNSt3__125__debug_db_invalidate_allB7v160006INS_6vectorIPcNS_9allocatorIS2_EEEEEEvPT_, symObjAddr: 0x19224, symBinAddr: 0x1CABC, symSize: 0x10 }
  - { offsetInCU: 0x40CAA, offset: 0x47AEC, size: 0x8, addend: 0x0, symName: __ZNSt3__14moveB7v160006INS_16reverse_iteratorIPPcEES4_EET0_T_S6_S5_, symObjAddr: 0x1927C, symBinAddr: 0x1CB14, symSize: 0x78 }
  - { offsetInCU: 0x40D04, offset: 0x47B46, size: 0x8, addend: 0x0, symName: __ZNSt3__16__moveB7v160006INS_17_ClassicAlgPolicyENS_16reverse_iteratorIPPcEES5_S5_EENS_4pairIT0_T2_EES7_T1_S8_, symObjAddr: 0x192F4, symBinAddr: 0x1CB8C, symSize: 0x64 }
  - { offsetInCU: 0x40D70, offset: 0x47BB2, size: 0x8, addend: 0x0, symName: __ZNSt3__123__dispatch_copy_or_moveB7v160006INS_17_ClassicAlgPolicyENS_11__move_loopIS1_EENS_14__move_trivialENS_16reverse_iteratorIPPcEES8_S8_EENS_4pairIT2_T4_EESA_T3_SB_, symObjAddr: 0x19358, symBinAddr: 0x1CBF0, symSize: 0x64 }
  - { offsetInCU: 0x40DEE, offset: 0x47C30, size: 0x8, addend: 0x0, symName: __ZNSt3__121__unwrap_and_dispatchB7v160006INS_10__overloadINS_11__move_loopINS_17_ClassicAlgPolicyEEENS_14__move_trivialEEENS_16reverse_iteratorIPPcEESA_SA_Li0EEENS_4pairIT0_T2_EESC_T1_SD_, symObjAddr: 0x193BC, symBinAddr: 0x1CC54, symSize: 0x12C }
  - { offsetInCU: 0x40E7E, offset: 0x47CC0, size: 0x8, addend: 0x0, symName: __ZNSt3__114__unwrap_rangeB7v160006INS_16reverse_iteratorIPPcEES4_EENS_4pairIT0_S6_EET_S8_, symObjAddr: 0x194E8, symBinAddr: 0x1CD80, symSize: 0x84 }
  - { offsetInCU: 0x410F6, offset: 0x47F38, size: 0x8, addend: 0x0, symName: __ZNSt3__113__unwrap_iterB7v160006INS_16reverse_iteratorIPPcEENS_18__unwrap_iter_implIS4_Lb0EEELi0EEEDTclsrT0_8__unwrapclsr3stdE7declvalIT_EEEES8_, symObjAddr: 0x1960C, symBinAddr: 0x1CEA4, symSize: 0x44 }
  - { offsetInCU: 0x4113A, offset: 0x47F7C, size: 0x8, addend: 0x0, symName: __ZNSt3__19make_pairB7v160006INS_16reverse_iteratorIPPcEES4_EENS_4pairINS_18__unwrap_ref_decayIT_E4typeENS6_IT0_E4typeEEEOS7_OSA_, symObjAddr: 0x19650, symBinAddr: 0x1CEE8, symSize: 0x38 }
  - { offsetInCU: 0x41189, offset: 0x47FCB, size: 0x8, addend: 0x0, symName: __ZNSt3__114__rewrap_rangeB7v160006INS_16reverse_iteratorIPPcEES4_EET_S5_T0_, symObjAddr: 0x19688, symBinAddr: 0x1CF20, symSize: 0x5C }
  - { offsetInCU: 0x411D5, offset: 0x48017, size: 0x8, addend: 0x0, symName: __ZNSt3__113__rewrap_iterB7v160006INS_16reverse_iteratorIPPcEES4_NS_18__unwrap_iter_implIS4_Lb0EEEEET_S7_T0_, symObjAddr: 0x196E4, symBinAddr: 0x1CF7C, symSize: 0x74 }
  - { offsetInCU: 0x4122A, offset: 0x4806C, size: 0x8, addend: 0x0, symName: __ZNSt3__1neB7v160006IPPcS2_EEbRKNS_16reverse_iteratorIT_EERKNS3_IT0_EE, symObjAddr: 0x19758, symBinAddr: 0x1CFF0, symSize: 0x48 }
  - { offsetInCU: 0x41418, offset: 0x4825A, size: 0x8, addend: 0x0, symName: __ZNSt3__1eqB7v160006IPN8pybind116detail15argument_recordEEEbRKNS_11__wrap_iterIT_EES9_, symObjAddr: 0x19C30, symBinAddr: 0x1D4C8, symSize: 0x48 }
  - { offsetInCU: 0x4145B, offset: 0x4829D, size: 0x8, addend: 0x0, symName: __ZNSt3__1plB7v160006IcNS_11char_traitsIcEENS_9allocatorIcEEEENS_12basic_stringIT_T0_T1_EEOS9_S6_, symObjAddr: 0x1A19C, symBinAddr: 0x1DA34, symSize: 0x40 }
  - { offsetInCU: 0x414B3, offset: 0x482F5, size: 0x8, addend: 0x0, symName: __ZNSt3__1neB7v160006ERKNS_19__hash_map_iteratorINS_15__hash_iteratorIPNS_11__hash_nodeINS_17__hash_value_typeINS_10type_indexEPN8pybind116detail9type_infoEEEPvEEEEEESG_, symObjAddr: 0x1A2F4, symBinAddr: 0x1DB8C, symSize: 0x30 }
  - { offsetInCU: 0x414F0, offset: 0x48332, size: 0x8, addend: 0x0, symName: __ZNSt3__116forward_as_tupleB7v160006IJNS_12basic_stringIcNS_11char_traitsIcEENS_9allocatorIcEEEEEEENS_5tupleIJDpOT_EEESA_, symObjAddr: 0x1AAC8, symBinAddr: 0x1E360, symSize: 0x2C }
  - { offsetInCU: 0x41529, offset: 0x4836B, size: 0x8, addend: 0x0, symName: __ZNSt3__116__do_string_hashB7v160006IPKcEEmT_S3_, symObjAddr: 0x1B08C, symBinAddr: 0x1E924, symSize: 0x3C }
  - { offsetInCU: 0x4156F, offset: 0x483B1, size: 0x8, addend: 0x0, symName: __ZNSt3__1eqB7v160006INS_9allocatorIcEEEEbRKNS_12basic_stringIcNS_11char_traitsIcEET_EES9_, symObjAddr: 0x1B23C, symBinAddr: 0x1EAD4, symSize: 0x148 }
  - { offsetInCU: 0x415E2, offset: 0x48424, size: 0x8, addend: 0x0, symName: __ZNSt3__17launderB7v160006IKNS_4pairIKNS_12basic_stringIcNS_11char_traitsIcEENS_9allocatorIcEEEEPvEEEEPT_SD_, symObjAddr: 0x1B384, symBinAddr: 0x1EC1C, symSize: 0x24 }
  - { offsetInCU: 0x41619, offset: 0x4845B, size: 0x8, addend: 0x0, symName: __ZNSt3__19__launderB7v160006IKNS_4pairIKNS_12basic_stringIcNS_11char_traitsIcEENS_9allocatorIcEEEEPvEEEEPT_SD_, symObjAddr: 0x1B3A8, symBinAddr: 0x1EC40, symSize: 0x14 }
  - { offsetInCU: 0x416A1, offset: 0x484E3, size: 0x8, addend: 0x0, symName: __ZNSt3__13getB7v160006ILm0EJONS_12basic_stringIcNS_11char_traitsIcEENS_9allocatorIcEEEEEEERNS_13tuple_elementIXT_ENS_5tupleIJDpT0_EEEE4typeERSC_, symObjAddr: 0x1B85C, symBinAddr: 0x1F0F4, symSize: 0x24 }
  - { offsetInCU: 0x416E5, offset: 0x48527, size: 0x8, addend: 0x0, symName: __ZNSt3__125__debug_db_invalidate_allB7v160006INS_12__hash_tableINS_17__hash_value_typeINS_12basic_stringIcNS_11char_traitsIcEENS_9allocatorIcEEEEPvEENS_22__unordered_map_hasherIS8_SA_NS_4hashIS8_EENS_8equal_toIS8_EELb1EEENS_21__unordered_map_equalIS8_SA_SF_SD_Lb1EEENS6_ISA_EEEEEEvPT_, symObjAddr: 0x1BD54, symBinAddr: 0x1F5EC, symSize: 0x10 }
  - { offsetInCU: 0x4175E, offset: 0x485A0, size: 0x8, addend: 0x0, symName: __ZNSt3__17launderB7v160006INS_4pairIKNS_12basic_stringIcNS_11char_traitsIcEENS_9allocatorIcEEEEPvEEEEPT_SC_, symObjAddr: 0x1C4BC, symBinAddr: 0x1FD54, symSize: 0x24 }
  - { offsetInCU: 0x41795, offset: 0x485D7, size: 0x8, addend: 0x0, symName: __ZNSt3__19__launderB7v160006INS_4pairIKNS_12basic_stringIcNS_11char_traitsIcEENS_9allocatorIcEEEEPvEEEEPT_SC_, symObjAddr: 0x1C4E0, symBinAddr: 0x1FD78, symSize: 0x14 }
  - { offsetInCU: 0x417CD, offset: 0x4860F, size: 0x8, addend: 0x0, symName: __ZNSt3__118__debug_db_erase_cB7v160006INS_12__hash_tableINS_17__hash_value_typeINS_10type_indexEPN8pybind116detail9type_infoEEENS_22__unordered_map_hasherIS3_S8_NS5_9type_hashENS5_13type_equal_toELb1EEENS_21__unordered_map_equalIS3_S8_SB_SA_Lb1EEENS_9allocatorIS8_EEEEEEvPT_, symObjAddr: 0x1C7F4, symBinAddr: 0x2008C, symSize: 0x10 }
  - { offsetInCU: 0x41831, offset: 0x48673, size: 0x8, addend: 0x0, symName: __ZNSt3__17launderB7v160006INS_4pairIKNS_10type_indexEPN8pybind116detail9type_infoEEEEEPT_SA_, symObjAddr: 0x1C958, symBinAddr: 0x201F0, symSize: 0x24 }
  - { offsetInCU: 0x41868, offset: 0x486AA, size: 0x8, addend: 0x0, symName: __ZNSt3__19__launderB7v160006INS_4pairIKNS_10type_indexEPN8pybind116detail9type_infoEEEEEPT_SA_, symObjAddr: 0x1C97C, symBinAddr: 0x20214, symSize: 0x14 }
  - { offsetInCU: 0x4189F, offset: 0x486E1, size: 0x8, addend: 0x0, symName: __ZNSt3__17launderB7v160006IKNS_4pairIKNS_10type_indexEPN8pybind116detail9type_infoEEEEEPT_SB_, symObjAddr: 0x1D278, symBinAddr: 0x20B10, symSize: 0x24 }
  - { offsetInCU: 0x418D6, offset: 0x48718, size: 0x8, addend: 0x0, symName: __ZNSt3__19__launderB7v160006IKNS_4pairIKNS_10type_indexEPN8pybind116detail9type_infoEEEEEPT_SB_, symObjAddr: 0x1D29C, symBinAddr: 0x20B34, symSize: 0x14 }
  - { offsetInCU: 0x4190D, offset: 0x4874F, size: 0x8, addend: 0x0, symName: __ZNSt3__1neB7v160006ERKNS_15__hash_iteratorIPNS_11__hash_nodeINS_17__hash_value_typeINS_10type_indexEPN8pybind116detail9type_infoEEEPvEEEESE_, symObjAddr: 0x1D2F4, symBinAddr: 0x20B8C, symSize: 0x34 }
  - { offsetInCU: 0x4194A, offset: 0x4878C, size: 0x8, addend: 0x0, symName: __ZNSt3__1eqB7v160006ERKNS_15__hash_iteratorIPNS_11__hash_nodeINS_17__hash_value_typeINS_10type_indexEPN8pybind116detail9type_infoEEEPvEEEESE_, symObjAddr: 0x1D328, symBinAddr: 0x20BC0, symSize: 0x30 }
  - { offsetInCU: 0x419ED, offset: 0x4882F, size: 0x8, addend: 0x0, symName: __ZNSt3__119__allocate_at_leastB7v160006INS_9allocatorIN8pybind116detail15argument_recordEEEEENS_19__allocation_resultINS_16allocator_traitsIT_E7pointerEEERS8_m, symObjAddr: 0x1D794, symBinAddr: 0x2102C, symSize: 0x40 }
  - { offsetInCU: 0x41A30, offset: 0x48872, size: 0x8, addend: 0x0, symName: __ZNSt3__142__uninitialized_allocator_move_if_noexceptB7v160006INS_9allocatorIN8pybind116detail15argument_recordEEENS_16reverse_iteratorIPS4_EES8_S4_vEET1_RT_T0_SC_S9_, symObjAddr: 0x1DA4C, symBinAddr: 0x212E4, symSize: 0x78 }
  - { offsetInCU: 0x41AB0, offset: 0x488F2, size: 0x8, addend: 0x0, symName: __ZNSt3__14swapB7v160006IPN8pybind116detail15argument_recordEEENS_9enable_ifIXaasr21is_move_constructibleIT_EE5valuesr18is_move_assignableIS6_EE5valueEvE4typeERS6_S9_, symObjAddr: 0x1DB10, symBinAddr: 0x213A8, symSize: 0x3C }
  - { offsetInCU: 0x41B02, offset: 0x48944, size: 0x8, addend: 0x0, symName: __ZNSt3__125__debug_db_invalidate_allB7v160006INS_6vectorIN8pybind116detail15argument_recordENS_9allocatorIS4_EEEEEEvPT_, symObjAddr: 0x1DC20, symBinAddr: 0x214B8, symSize: 0x10 }
  - { offsetInCU: 0x41B34, offset: 0x48976, size: 0x8, addend: 0x0, symName: __ZNSt3__112__to_addressB7v160006IN8pybind116detail15argument_recordEEEPT_S5_, symObjAddr: 0x1DC78, symBinAddr: 0x21510, symSize: 0x14 }
  - { offsetInCU: 0x41B69, offset: 0x489AB, size: 0x8, addend: 0x0, symName: __ZNSt3__14moveB7v160006INS_16reverse_iteratorIPN8pybind116detail15argument_recordEEES6_EET0_T_S8_S7_, symObjAddr: 0x1DC8C, symBinAddr: 0x21524, symSize: 0x78 }
  - { offsetInCU: 0x41BC3, offset: 0x48A05, size: 0x8, addend: 0x0, symName: __ZNSt3__16__moveB7v160006INS_17_ClassicAlgPolicyENS_16reverse_iteratorIPN8pybind116detail15argument_recordEEES7_S7_EENS_4pairIT0_T2_EES9_T1_SA_, symObjAddr: 0x1DD04, symBinAddr: 0x2159C, symSize: 0x64 }
  - { offsetInCU: 0x41C2F, offset: 0x48A71, size: 0x8, addend: 0x0, symName: __ZNSt3__123__dispatch_copy_or_moveB7v160006INS_17_ClassicAlgPolicyENS_11__move_loopIS1_EENS_14__move_trivialENS_16reverse_iteratorIPN8pybind116detail15argument_recordEEESA_SA_EENS_4pairIT2_T4_EESC_T3_SD_, symObjAddr: 0x1DD68, symBinAddr: 0x21600, symSize: 0x64 }
  - { offsetInCU: 0x41CAD, offset: 0x48AEF, size: 0x8, addend: 0x0, symName: __ZNSt3__121__unwrap_and_dispatchB7v160006INS_10__overloadINS_11__move_loopINS_17_ClassicAlgPolicyEEENS_14__move_trivialEEENS_16reverse_iteratorIPN8pybind116detail15argument_recordEEESC_SC_Li0EEENS_4pairIT0_T2_EESE_T1_SF_, symObjAddr: 0x1DDCC, symBinAddr: 0x21664, symSize: 0x12C }
  - { offsetInCU: 0x41D3D, offset: 0x48B7F, size: 0x8, addend: 0x0, symName: __ZNSt3__114__unwrap_rangeB7v160006INS_16reverse_iteratorIPN8pybind116detail15argument_recordEEES6_EENS_4pairIT0_S8_EET_SA_, symObjAddr: 0x1DEF8, symBinAddr: 0x21790, symSize: 0x84 }
  - { offsetInCU: 0x41E5D, offset: 0x48C9F, size: 0x8, addend: 0x0, symName: __ZNSt3__113__unwrap_iterB7v160006INS_16reverse_iteratorIPN8pybind116detail15argument_recordEEENS_18__unwrap_iter_implIS6_Lb0EEELi0EEEDTclsrT0_8__unwrapclsr3stdE7declvalIT_EEEESA_, symObjAddr: 0x1E024, symBinAddr: 0x218BC, symSize: 0x44 }
  - { offsetInCU: 0x41EA1, offset: 0x48CE3, size: 0x8, addend: 0x0, symName: __ZNSt3__19make_pairB7v160006INS_16reverse_iteratorIPN8pybind116detail15argument_recordEEES6_EENS_4pairINS_18__unwrap_ref_decayIT_E4typeENS8_IT0_E4typeEEEOS9_OSC_, symObjAddr: 0x1E068, symBinAddr: 0x21900, symSize: 0x38 }
  - { offsetInCU: 0x41EF0, offset: 0x48D32, size: 0x8, addend: 0x0, symName: __ZNSt3__114__rewrap_rangeB7v160006INS_16reverse_iteratorIPN8pybind116detail15argument_recordEEES6_EET_S7_T0_, symObjAddr: 0x1E0A0, symBinAddr: 0x21938, symSize: 0x5C }
  - { offsetInCU: 0x41F3C, offset: 0x48D7E, size: 0x8, addend: 0x0, symName: __ZNSt3__113__rewrap_iterB7v160006INS_16reverse_iteratorIPN8pybind116detail15argument_recordEEES6_NS_18__unwrap_iter_implIS6_Lb0EEEEET_S9_T0_, symObjAddr: 0x1E0FC, symBinAddr: 0x21994, symSize: 0x74 }
  - { offsetInCU: 0x41F91, offset: 0x48DD3, size: 0x8, addend: 0x0, symName: __ZNSt3__1neB7v160006IPN8pybind116detail15argument_recordES4_EEbRKNS_16reverse_iteratorIT_EERKNS5_IT0_EE, symObjAddr: 0x1E170, symBinAddr: 0x21A08, symSize: 0x48 }
  - { offsetInCU: 0x4204A, offset: 0x48E8C, size: 0x8, addend: 0x0, symName: __ZNSt3__1neB7v160006IPN8pybind116detail13function_callEEEbRKNS_11__wrap_iterIT_EES9_, symObjAddr: 0x1F598, symBinAddr: 0x22E30, symSize: 0x34 }
  - { offsetInCU: 0x4208E, offset: 0x48ED0, size: 0x8, addend: 0x0, symName: __ZNSt3__119__debug_db_insert_cB7v160006INS_6vectorIN8pybind116detail13function_callENS_9allocatorIS4_EEEEEEvPT_, symObjAddr: 0x1FDE4, symBinAddr: 0x2367C, symSize: 0x10 }
  - { offsetInCU: 0x420C0, offset: 0x48F02, size: 0x8, addend: 0x0, symName: __ZNSt3__119__debug_db_insert_cB7v160006INS_6vectorIN8pybind116handleENS_9allocatorIS3_EEEEEEvPT_, symObjAddr: 0x202A0, symBinAddr: 0x23B38, symSize: 0x10 }
  - { offsetInCU: 0x420F1, offset: 0x48F33, size: 0x8, addend: 0x0, symName: __ZNSt3__119__allocate_at_leastB7v160006INS_9allocatorIN8pybind116handleEEEEENS_19__allocation_resultINS_16allocator_traitsIT_E7pointerEEERS7_m, symObjAddr: 0x20824, symBinAddr: 0x240BC, symSize: 0x40 }
  - { offsetInCU: 0x42134, offset: 0x48F76, size: 0x8, addend: 0x0, symName: __ZNSt3__142__uninitialized_allocator_move_if_noexceptB7v160006INS_9allocatorIN8pybind116handleEEENS_16reverse_iteratorIPS3_EES7_S3_vEET1_RT_T0_SB_S8_, symObjAddr: 0x20AA4, symBinAddr: 0x2433C, symSize: 0x78 }
  - { offsetInCU: 0x421B4, offset: 0x48FF6, size: 0x8, addend: 0x0, symName: __ZNSt3__14swapB7v160006IPN8pybind116handleEEENS_9enable_ifIXaasr21is_move_constructibleIT_EE5valuesr18is_move_assignableIS5_EE5valueEvE4typeERS5_S8_, symObjAddr: 0x20B68, symBinAddr: 0x24400, symSize: 0x3C }
  - { offsetInCU: 0x42206, offset: 0x49048, size: 0x8, addend: 0x0, symName: __ZNSt3__125__debug_db_invalidate_allB7v160006INS_6vectorIN8pybind116handleENS_9allocatorIS3_EEEEEEvPT_, symObjAddr: 0x20C78, symBinAddr: 0x24510, symSize: 0x10 }
  - { offsetInCU: 0x42238, offset: 0x4907A, size: 0x8, addend: 0x0, symName: __ZNSt3__112__to_addressB7v160006IN8pybind116handleEEEPT_S4_, symObjAddr: 0x20CD0, symBinAddr: 0x24568, symSize: 0x14 }
  - { offsetInCU: 0x4226D, offset: 0x490AF, size: 0x8, addend: 0x0, symName: __ZNSt3__14moveB7v160006INS_16reverse_iteratorIPN8pybind116handleEEES5_EET0_T_S7_S6_, symObjAddr: 0x20CE4, symBinAddr: 0x2457C, symSize: 0x78 }
  - { offsetInCU: 0x422C7, offset: 0x49109, size: 0x8, addend: 0x0, symName: __ZNSt3__16__moveB7v160006INS_17_ClassicAlgPolicyENS_16reverse_iteratorIPN8pybind116handleEEES6_S6_EENS_4pairIT0_T2_EES8_T1_S9_, symObjAddr: 0x20D5C, symBinAddr: 0x245F4, symSize: 0x64 }
  - { offsetInCU: 0x42333, offset: 0x49175, size: 0x8, addend: 0x0, symName: __ZNSt3__123__dispatch_copy_or_moveB7v160006INS_17_ClassicAlgPolicyENS_11__move_loopIS1_EENS_14__move_trivialENS_16reverse_iteratorIPN8pybind116handleEEES9_S9_EENS_4pairIT2_T4_EESB_T3_SC_, symObjAddr: 0x20DC0, symBinAddr: 0x24658, symSize: 0x64 }
  - { offsetInCU: 0x423B1, offset: 0x491F3, size: 0x8, addend: 0x0, symName: __ZNSt3__121__unwrap_and_dispatchB7v160006INS_10__overloadINS_11__move_loopINS_17_ClassicAlgPolicyEEENS_14__move_trivialEEENS_16reverse_iteratorIPN8pybind116handleEEESB_SB_Li0EEENS_4pairIT0_T2_EESD_T1_SE_, symObjAddr: 0x20E24, symBinAddr: 0x246BC, symSize: 0x12C }
  - { offsetInCU: 0x42441, offset: 0x49283, size: 0x8, addend: 0x0, symName: __ZNSt3__114__unwrap_rangeB7v160006INS_16reverse_iteratorIPN8pybind116handleEEES5_EENS_4pairIT0_S7_EET_S9_, symObjAddr: 0x20F50, symBinAddr: 0x247E8, symSize: 0x84 }
  - { offsetInCU: 0x42561, offset: 0x493A3, size: 0x8, addend: 0x0, symName: __ZNSt3__113__unwrap_iterB7v160006INS_16reverse_iteratorIPN8pybind116handleEEENS_18__unwrap_iter_implIS5_Lb0EEELi0EEEDTclsrT0_8__unwrapclsr3stdE7declvalIT_EEEES9_, symObjAddr: 0x21074, symBinAddr: 0x2490C, symSize: 0x44 }
  - { offsetInCU: 0x425A5, offset: 0x493E7, size: 0x8, addend: 0x0, symName: __ZNSt3__19make_pairB7v160006INS_16reverse_iteratorIPN8pybind116handleEEES5_EENS_4pairINS_18__unwrap_ref_decayIT_E4typeENS7_IT0_E4typeEEEOS8_OSB_, symObjAddr: 0x210B8, symBinAddr: 0x24950, symSize: 0x38 }
  - { offsetInCU: 0x425F4, offset: 0x49436, size: 0x8, addend: 0x0, symName: __ZNSt3__114__rewrap_rangeB7v160006INS_16reverse_iteratorIPN8pybind116handleEEES5_EET_S6_T0_, symObjAddr: 0x210F0, symBinAddr: 0x24988, symSize: 0x5C }
  - { offsetInCU: 0x42640, offset: 0x49482, size: 0x8, addend: 0x0, symName: __ZNSt3__113__rewrap_iterB7v160006INS_16reverse_iteratorIPN8pybind116handleEEES5_NS_18__unwrap_iter_implIS5_Lb0EEEEET_S8_T0_, symObjAddr: 0x2114C, symBinAddr: 0x249E4, symSize: 0x74 }
  - { offsetInCU: 0x42695, offset: 0x494D7, size: 0x8, addend: 0x0, symName: __ZNSt3__1neB7v160006IPN8pybind116handleES3_EEbRKNS_16reverse_iteratorIT_EERKNS4_IT0_EE, symObjAddr: 0x211C0, symBinAddr: 0x24A58, symSize: 0x48 }
  - { offsetInCU: 0x4274F, offset: 0x49591, size: 0x8, addend: 0x0, symName: __ZNSt3__125__debug_db_invalidate_allB7v160006INS_6vectorIbNS_9allocatorIbEEEEEEvPT_, symObjAddr: 0x219A4, symBinAddr: 0x2523C, symSize: 0x10 }
  - { offsetInCU: 0x42780, offset: 0x495C2, size: 0x8, addend: 0x0, symName: __ZNSt3__119__allocate_at_leastB7v160006INS_9allocatorImEEEENS_19__allocation_resultINS_16allocator_traitsIT_E7pointerEEERS5_m, symObjAddr: 0x21CC0, symBinAddr: 0x25558, symSize: 0x40 }
  - { offsetInCU: 0x427C3, offset: 0x49605, size: 0x8, addend: 0x0, symName: __ZNSt3__18distanceB7v160006INS_14__bit_iteratorINS_6vectorIbNS_9allocatorIbEEEELb0ELm0EEEEENS_15iterator_traitsIT_E15difference_typeES8_S8_, symObjAddr: 0x21E28, symBinAddr: 0x256C0, symSize: 0x5C }
  - { offsetInCU: 0x42808, offset: 0x4964A, size: 0x8, addend: 0x0, symName: __ZNSt3__14copyB7v160006INS_6vectorIbNS_9allocatorIbEEEELb0EEENS_14__bit_iteratorIT_Lb0EXLi0EEEENS5_IS6_XT0_EXLi0EEEES8_S7_, symObjAddr: 0x21EB8, symBinAddr: 0x25750, symSize: 0xE8 }
  - { offsetInCU: 0x4286A, offset: 0x496AC, size: 0x8, addend: 0x0, symName: __ZNSt3__110__distanceB7v160006INS_14__bit_iteratorINS_6vectorIbNS_9allocatorIbEEEELb0ELm0EEEEENS_15iterator_traitsIT_E15difference_typeES8_S8_NS_26random_access_iterator_tagE, symObjAddr: 0x22004, symBinAddr: 0x2589C, symSize: 0x38 }
  - { offsetInCU: 0x428BA, offset: 0x496FC, size: 0x8, addend: 0x0, symName: __ZNSt3__1miB7v160006ERKNS_14__bit_iteratorINS_6vectorIbNS_9allocatorIbEEEELb0ELm0EEES7_, symObjAddr: 0x2203C, symBinAddr: 0x258D4, symSize: 0x48 }
  - { offsetInCU: 0x428F7, offset: 0x49739, size: 0x8, addend: 0x0, symName: __ZNSt3__13minB7v160006IlEERKT_S3_S3_, symObjAddr: 0x2286C, symBinAddr: 0x26104, symSize: 0x2C }
  - { offsetInCU: 0x4293B, offset: 0x4977D, size: 0x8, addend: 0x0, symName: __ZNSt3__112__to_addressB7v160006ImEEPT_S2_, symObjAddr: 0x228DC, symBinAddr: 0x26174, symSize: 0x14 }
  - { offsetInCU: 0x42970, offset: 0x497B2, size: 0x8, addend: 0x0, symName: __ZNSt3__13minB7v160006IlNS_6__lessIllEEEERKT_S5_S5_T0_, symObjAddr: 0x228F0, symBinAddr: 0x26188, symSize: 0x54 }
  - { offsetInCU: 0x42A06, offset: 0x49848, size: 0x8, addend: 0x0, symName: __ZNSt3__14copyB7v160006IPmS1_EET0_T_S3_S2_, symObjAddr: 0x22978, symBinAddr: 0x26210, symSize: 0x40 }
  - { offsetInCU: 0x42A60, offset: 0x498A2, size: 0x8, addend: 0x0, symName: __ZNSt3__16__copyB7v160006INS_17_ClassicAlgPolicyEPmS2_S2_EENS_4pairIT0_T2_EES4_T1_S5_, symObjAddr: 0x229B8, symBinAddr: 0x26250, symSize: 0x44 }
  - { offsetInCU: 0x42ACC, offset: 0x4990E, size: 0x8, addend: 0x0, symName: __ZNSt3__123__dispatch_copy_or_moveB7v160006INS_17_ClassicAlgPolicyENS_11__copy_loopIS1_EENS_14__copy_trivialEPmS5_S5_EENS_4pairIT2_T4_EES7_T3_S8_, symObjAddr: 0x229FC, symBinAddr: 0x26294, symSize: 0x44 }
  - { offsetInCU: 0x42B4A, offset: 0x4998C, size: 0x8, addend: 0x0, symName: __ZNSt3__121__unwrap_and_dispatchB7v160006INS_10__overloadINS_11__copy_loopINS_17_ClassicAlgPolicyEEENS_14__copy_trivialEEEPmS7_S7_Li0EEENS_4pairIT0_T2_EES9_T1_SA_, symObjAddr: 0x22A40, symBinAddr: 0x262D8, symSize: 0xB4 }
  - { offsetInCU: 0x42BD8, offset: 0x49A1A, size: 0x8, addend: 0x0, symName: __ZNSt3__114__unwrap_rangeB7v160006IPmS1_EENS_4pairIT0_S3_EET_S5_, symObjAddr: 0x22AF4, symBinAddr: 0x2638C, symSize: 0x60 }
  - { offsetInCU: 0x42DE5, offset: 0x49C27, size: 0x8, addend: 0x0, symName: __ZNSt3__113__unwrap_iterB7v160006IPmNS_18__unwrap_iter_implIS1_Lb1EEELi0EEEDTclsrT0_8__unwrapclsr3stdE7declvalIT_EEEES5_, symObjAddr: 0x22B9C, symBinAddr: 0x26434, symSize: 0x24 }
  - { offsetInCU: 0x42E29, offset: 0x49C6B, size: 0x8, addend: 0x0, symName: __ZNSt3__19make_pairB7v160006IPmS1_EENS_4pairINS_18__unwrap_ref_decayIT_E4typeENS3_IT0_E4typeEEEOS4_OS7_, symObjAddr: 0x22BC0, symBinAddr: 0x26458, symSize: 0x38 }
  - { offsetInCU: 0x42E78, offset: 0x49CBA, size: 0x8, addend: 0x0, symName: __ZNSt3__114__rewrap_rangeB7v160006IPmS1_EET_S2_T0_, symObjAddr: 0x22BF8, symBinAddr: 0x26490, symSize: 0x2C }
  - { offsetInCU: 0x42EC4, offset: 0x49D06, size: 0x8, addend: 0x0, symName: __ZNSt3__113__rewrap_iterB7v160006IPmS1_NS_18__unwrap_iter_implIS1_Lb1EEEEET_S4_T0_, symObjAddr: 0x22C24, symBinAddr: 0x264BC, symSize: 0x3C }
  - { offsetInCU: 0x42F19, offset: 0x49D5B, size: 0x8, addend: 0x0, symName: __ZNSt3__119__copy_trivial_implB7v160006ImmEENS_4pairIPT_PT0_EES3_S3_S5_, symObjAddr: 0x22C60, symBinAddr: 0x264F8, symSize: 0x84 }
  - { offsetInCU: 0x42F81, offset: 0x49DC3, size: 0x8, addend: 0x0, symName: __ZNSt3__19make_pairB7v160006IRPmS1_EENS_4pairINS_18__unwrap_ref_decayIT_E4typeENS4_IT0_E4typeEEEOS5_OS8_, symObjAddr: 0x22CE4, symBinAddr: 0x2657C, symSize: 0x38 }
  - { offsetInCU: 0x43025, offset: 0x49E67, size: 0x8, addend: 0x0, symName: __ZNSt3__118__debug_db_erase_cB7v160006INS_6vectorIN8pybind116handleENS_9allocatorIS3_EEEEEEvPT_, symObjAddr: 0x2300C, symBinAddr: 0x268A4, symSize: 0x10 }
  - { offsetInCU: 0x43056, offset: 0x49E98, size: 0x8, addend: 0x0, symName: __ZNSt3__14copyB7v160006INS_6vectorIbNS_9allocatorIbEEEELb1EEENS_14__bit_iteratorIT_Lb0EXLi0EEEENS5_IS6_XT0_EXLi0EEEES8_S7_, symObjAddr: 0x2403C, symBinAddr: 0x278D4, symSize: 0xD4 }
  - { offsetInCU: 0x430B6, offset: 0x49EF8, size: 0x8, addend: 0x0, symName: __ZNSt3__16fill_nB7v160006INS_6vectorIbNS_9allocatorIbEEEEEEvNS_14__bit_iteratorIT_Lb0EXLi0EEEENS6_9size_typeEb, symObjAddr: 0x24180, symBinAddr: 0x27A18, symSize: 0x94 }
  - { offsetInCU: 0x43108, offset: 0x49F4A, size: 0x8, addend: 0x0, symName: __ZNSt3__1miB7v160006ERKNS_14__bit_iteratorINS_6vectorIbNS_9allocatorIbEEEELb1ELm0EEES7_, symObjAddr: 0x249B8, symBinAddr: 0x28250, symSize: 0x48 }
  - { offsetInCU: 0x43146, offset: 0x49F88, size: 0x8, addend: 0x0, symName: __ZNSt3__112__to_addressB7v160006IKmEEPT_S3_, symObjAddr: 0x24A44, symBinAddr: 0x282DC, symSize: 0x14 }
  - { offsetInCU: 0x4317B, offset: 0x49FBD, size: 0x8, addend: 0x0, symName: __ZNSt3__14copyB7v160006IPKmPmEET0_T_S5_S4_, symObjAddr: 0x24A58, symBinAddr: 0x282F0, symSize: 0x40 }
  - { offsetInCU: 0x431D5, offset: 0x4A017, size: 0x8, addend: 0x0, symName: __ZNSt3__16__copyB7v160006INS_17_ClassicAlgPolicyEPKmS3_PmEENS_4pairIT0_T2_EES6_T1_S7_, symObjAddr: 0x24A98, symBinAddr: 0x28330, symSize: 0x44 }
  - { offsetInCU: 0x43241, offset: 0x4A083, size: 0x8, addend: 0x0, symName: __ZNSt3__123__dispatch_copy_or_moveB7v160006INS_17_ClassicAlgPolicyENS_11__copy_loopIS1_EENS_14__copy_trivialEPKmS6_PmEENS_4pairIT2_T4_EES9_T3_SA_, symObjAddr: 0x24ADC, symBinAddr: 0x28374, symSize: 0x44 }
  - { offsetInCU: 0x432BF, offset: 0x4A101, size: 0x8, addend: 0x0, symName: __ZNSt3__121__unwrap_and_dispatchB7v160006INS_10__overloadINS_11__copy_loopINS_17_ClassicAlgPolicyEEENS_14__copy_trivialEEEPKmS8_PmLi0EEENS_4pairIT0_T2_EESB_T1_SC_, symObjAddr: 0x24B20, symBinAddr: 0x283B8, symSize: 0xB4 }
  - { offsetInCU: 0x4334D, offset: 0x4A18F, size: 0x8, addend: 0x0, symName: __ZNSt3__114__unwrap_rangeB7v160006IPKmS2_EENS_4pairIT0_S4_EET_S6_, symObjAddr: 0x24BD4, symBinAddr: 0x2846C, symSize: 0x60 }
  - { offsetInCU: 0x4349C, offset: 0x4A2DE, size: 0x8, addend: 0x0, symName: __ZNSt3__19make_pairB7v160006IPKmPmEENS_4pairINS_18__unwrap_ref_decayIT_E4typeENS5_IT0_E4typeEEEOS6_OS9_, symObjAddr: 0x24C7C, symBinAddr: 0x28514, symSize: 0x38 }
  - { offsetInCU: 0x434EB, offset: 0x4A32D, size: 0x8, addend: 0x0, symName: __ZNSt3__114__rewrap_rangeB7v160006IPKmS2_EET_S3_T0_, symObjAddr: 0x24CB4, symBinAddr: 0x2854C, symSize: 0x2C }
  - { offsetInCU: 0x43537, offset: 0x4A379, size: 0x8, addend: 0x0, symName: __ZNSt3__19make_pairB7v160006IPKmS2_EENS_4pairINS_18__unwrap_ref_decayIT_E4typeENS4_IT0_E4typeEEEOS5_OS8_, symObjAddr: 0x24CE0, symBinAddr: 0x28578, symSize: 0x38 }
  - { offsetInCU: 0x43586, offset: 0x4A3C8, size: 0x8, addend: 0x0, symName: __ZNSt3__113__unwrap_iterB7v160006IPKmNS_18__unwrap_iter_implIS2_Lb1EEELi0EEEDTclsrT0_8__unwrapclsr3stdE7declvalIT_EEEES6_, symObjAddr: 0x24D18, symBinAddr: 0x285B0, symSize: 0x24 }
  - { offsetInCU: 0x436F2, offset: 0x4A534, size: 0x8, addend: 0x0, symName: __ZNSt3__119__copy_trivial_implB7v160006IKmmEENS_4pairIPT_PT0_EES4_S4_S6_, symObjAddr: 0x24DD0, symBinAddr: 0x28668, symSize: 0x84 }
  - { offsetInCU: 0x4375A, offset: 0x4A59C, size: 0x8, addend: 0x0, symName: __ZNSt3__19make_pairB7v160006IRPKmPmEENS_4pairINS_18__unwrap_ref_decayIT_E4typeENS6_IT0_E4typeEEEOS7_OSA_, symObjAddr: 0x24E54, symBinAddr: 0x286EC, symSize: 0x38 }
  - { offsetInCU: 0x437A9, offset: 0x4A5EB, size: 0x8, addend: 0x0, symName: __ZNSt3__113__rewrap_iterB7v160006IPKmS2_NS_18__unwrap_iter_implIS2_Lb1EEEEET_S5_T0_, symObjAddr: 0x24F6C, symBinAddr: 0x28804, symSize: 0x3C }
  - { offsetInCU: 0x437FE, offset: 0x4A640, size: 0x8, addend: 0x0, symName: __ZNSt3__16fill_nB7v160006IPmmmEET_S2_T0_RKT1_, symObjAddr: 0x25378, symBinAddr: 0x28C10, symSize: 0x44 }
  - { offsetInCU: 0x43862, offset: 0x4A6A4, size: 0x8, addend: 0x0, symName: __ZNSt3__18__fill_nB7v160006IPmmmEET_S2_T0_RKT1_, symObjAddr: 0x253BC, symBinAddr: 0x28C54, symSize: 0x64 }
  - { offsetInCU: 0x438C6, offset: 0x4A708, size: 0x8, addend: 0x0, symName: __ZNSt3__121__convert_to_integralB7v160006Em, symObjAddr: 0x25420, symBinAddr: 0x28CB8, symSize: 0x14 }
  - { offsetInCU: 0x438F2, offset: 0x4A734, size: 0x8, addend: 0x0, symName: __ZNSt3__16fill_nB7v160006IPmmiEET_S2_T0_RKT1_, symObjAddr: 0x25434, symBinAddr: 0x28CCC, symSize: 0x44 }
  - { offsetInCU: 0x43956, offset: 0x4A798, size: 0x8, addend: 0x0, symName: __ZNSt3__18__fill_nB7v160006IPmmiEET_S2_T0_RKT1_, symObjAddr: 0x25478, symBinAddr: 0x28D10, symSize: 0x64 }
  - { offsetInCU: 0x439BA, offset: 0x4A7FC, size: 0x8, addend: 0x0, symName: __ZNSt3__14swapB7v160006IPmEENS_9enable_ifIXaasr21is_move_constructibleIT_EE5valuesr18is_move_assignableIS3_EE5valueEvE4typeERS3_S6_, symObjAddr: 0x254DC, symBinAddr: 0x28D74, symSize: 0x3C }
  - { offsetInCU: 0x43A0C, offset: 0x4A84E, size: 0x8, addend: 0x0, symName: __ZNSt3__116__swap_allocatorB7v160006INS_9allocatorImEEEEvRT_S4_NS_17integral_constantIbLb0EEE, symObjAddr: 0x25518, symBinAddr: 0x28DB0, symSize: 0x14 }
  - { offsetInCU: 0x43A51, offset: 0x4A893, size: 0x8, addend: 0x0, symName: __ZNSt3__119__debug_db_insert_cB7v160006INS_13unordered_setIP7_objectNS_4hashIS3_EENS_8equal_toIS3_EENS_9allocatorIS3_EEEEEEvPT_, symObjAddr: 0x256B4, symBinAddr: 0x28F4C, symSize: 0x10 }
  - { offsetInCU: 0x43A83, offset: 0x4A8C5, size: 0x8, addend: 0x0, symName: __ZNSt3__118__debug_db_erase_cB7v160006INS_12__hash_tableIP7_objectNS_4hashIS3_EENS_8equal_toIS3_EENS_9allocatorIS3_EEEEEEvPT_, symObjAddr: 0x25D94, symBinAddr: 0x2962C, symSize: 0x10 }
  - { offsetInCU: 0x43AE7, offset: 0x4A929, size: 0x8, addend: 0x0, symName: __ZNSt3__1neB7v160006ERKNS_21__hash_const_iteratorIPNS_11__hash_nodeIP7_objectPvEEEES9_, symObjAddr: 0x26314, symBinAddr: 0x29BAC, symSize: 0x34 }
  - { offsetInCU: 0x43B24, offset: 0x4A966, size: 0x8, addend: 0x0, symName: __ZNSt3__1eqB7v160006ERKNS_21__hash_const_iteratorIPNS_11__hash_nodeIP7_objectPvEEEES9_, symObjAddr: 0x264BC, symBinAddr: 0x29D54, symSize: 0x30 }
  - { offsetInCU: 0x43B62, offset: 0x4A9A4, size: 0x8, addend: 0x0, symName: __ZNSt3__112__to_addressB7v160006IN8pybind116detail13function_callEEEPT_S5_, symObjAddr: 0x2674C, symBinAddr: 0x29FE4, symSize: 0x14 }
  - { offsetInCU: 0x43B98, offset: 0x4A9DA, size: 0x8, addend: 0x0, symName: __ZNSt3__115__debug_db_swapB7v160006INS_6vectorIN8pybind116handleENS_9allocatorIS3_EEEEEEvPT_S8_, symObjAddr: 0x26A4C, symBinAddr: 0x2A2E4, symSize: 0x14 }
  - { offsetInCU: 0x43BD7, offset: 0x4AA19, size: 0x8, addend: 0x0, symName: __ZNSt3__119__allocate_at_leastB7v160006INS_9allocatorIN8pybind116detail13function_callEEEEENS_19__allocation_resultINS_16allocator_traitsIT_E7pointerEEERS8_m, symObjAddr: 0x270C4, symBinAddr: 0x2A95C, symSize: 0x40 }
  - { offsetInCU: 0x43C1A, offset: 0x4AA5C, size: 0x8, addend: 0x0, symName: __ZNSt3__142__uninitialized_allocator_move_if_noexceptB7v160006INS_9allocatorIN8pybind116detail13function_callEEENS_16reverse_iteratorIPS4_EES8_S8_EET2_RT_T0_T1_S9_, symObjAddr: 0x27350, symBinAddr: 0x2ABE8, symSize: 0x12C }
  - { offsetInCU: 0x43CBB, offset: 0x4AAFD, size: 0x8, addend: 0x0, symName: __ZNSt3__14swapB7v160006IPN8pybind116detail13function_callEEENS_9enable_ifIXaasr21is_move_constructibleIT_EE5valuesr18is_move_assignableIS6_EE5valueEvE4typeERS6_S9_, symObjAddr: 0x274C8, symBinAddr: 0x2AD60, symSize: 0x3C }
  - { offsetInCU: 0x43D0D, offset: 0x4AB4F, size: 0x8, addend: 0x0, symName: __ZNSt3__125__debug_db_invalidate_allB7v160006INS_6vectorIN8pybind116detail13function_callENS_9allocatorIS4_EEEEEEvPT_, symObjAddr: 0x275CC, symBinAddr: 0x2AE64, symSize: 0x10 }
  - { offsetInCU: 0x43D3E, offset: 0x4AB80, size: 0x8, addend: 0x0, symName: __ZNSt3__122__make_exception_guardB7v160006INS_29_AllocatorDestroyRangeReverseINS_9allocatorIN8pybind116detail13function_callEEENS_16reverse_iteratorIPS5_EEEEEENS_28__exception_guard_exceptionsIT_EESC_, symObjAddr: 0x27624, symBinAddr: 0x2AEBC, symSize: 0x4C }
  - { offsetInCU: 0x43D74, offset: 0x4ABB6, size: 0x8, addend: 0x0, symName: __ZNSt3__1neB7v160006IPN8pybind116detail13function_callES4_EEbRKNS_16reverse_iteratorIT_EERKNS5_IT0_EE, symObjAddr: 0x276B4, symBinAddr: 0x2AF4C, symSize: 0x48 }
  - { offsetInCU: 0x43DC0, offset: 0x4AC02, size: 0x8, addend: 0x0, symName: __ZNSt3__112__to_addressB7v160006INS_16reverse_iteratorIPN8pybind116detail13function_callEEEvEENS_5decayIDTclsr19__to_address_helperIT_EE6__callclsr3stdE7declvalIRKS8_EEEEE4typeESA_, symObjAddr: 0x276FC, symBinAddr: 0x2AF94, symSize: 0x24 }
  - { offsetInCU: 0x43E21, offset: 0x4AC63, size: 0x8, addend: 0x0, symName: __ZNSt3__119__allocator_destroyB7v160006INS_9allocatorIN8pybind116detail13function_callEEENS_16reverse_iteratorINS6_IPS4_EEEES9_EEvRT_T0_T1_, symObjAddr: 0x279AC, symBinAddr: 0x2B244, symSize: 0x70 }
  - { offsetInCU: 0x43E86, offset: 0x4ACC8, size: 0x8, addend: 0x0, symName: __ZNSt3__1neB7v160006INS_16reverse_iteratorIPN8pybind116detail13function_callEEES6_EEbRKNS1_IT_EERKNS1_IT0_EE, symObjAddr: 0x27A58, symBinAddr: 0x2B2F0, symSize: 0x60 }
  - { offsetInCU: 0x43ED2, offset: 0x4AD14, size: 0x8, addend: 0x0, symName: __ZNSt3__112__to_addressB7v160006INS_16reverse_iteratorINS1_IPN8pybind116detail13function_callEEEEEvEENS_5decayIDTclsr19__to_address_helperIT_EE6__callclsr3stdE7declvalIRKS9_EEEEE4typeESB_, symObjAddr: 0x27AE4, symBinAddr: 0x2B37C, symSize: 0x24 }
  - { offsetInCU: 0x43F34, offset: 0x4AD76, size: 0x8, addend: 0x0, symName: __ZNSt3__125__debug_db_invalidate_allB7v160006INS_6vectorIbNS_9allocatorIbEEE16__destroy_vectorEEEvPT_, symObjAddr: 0x2803C, symBinAddr: 0x2B8D4, symSize: 0x10 }
  - { offsetInCU: 0x43F65, offset: 0x4ADA7, size: 0x8, addend: 0x0, symName: __ZNSt3__1eqB7v160006IPN8pybind116detail13function_callEEEbRKNS_11__wrap_iterIT_EES9_, symObjAddr: 0x28174, symBinAddr: 0x2BA0C, symSize: 0x48 }
  - { offsetInCU: 0x43FA9, offset: 0x4ADEB, size: 0x8, addend: 0x0, symName: __ZNSt3__118__debug_db_erase_cB7v160006INS_6vectorIN8pybind116detail13function_callENS_9allocatorIS4_EEEEEEvPT_, symObjAddr: 0x28308, symBinAddr: 0x2BBA0, symSize: 0x10 }
  - { offsetInCU: 0x43FDA, offset: 0x4AE1C, size: 0x8, addend: 0x0, symName: __ZNSt3__1neB7v160006ERKNS_23__forward_list_iteratorIPNS_19__forward_list_nodeIPFvSt13exception_ptrEPvEEEESA_, symObjAddr: 0x2842C, symBinAddr: 0x2BCC4, symSize: 0x34 }
  - { offsetInCU: 0x44017, offset: 0x4AE59, size: 0x8, addend: 0x0, symName: __ZNSt3__1eqB7v160006ERKNS_23__forward_list_iteratorIPNS_19__forward_list_nodeIPFvSt13exception_ptrEPvEEEESA_, symObjAddr: 0x285A4, symBinAddr: 0x2BE3C, symSize: 0x30 }
  - { offsetInCU: 0x44054, offset: 0x4AE96, size: 0x8, addend: 0x0, symName: __ZNSt3__111__str_rfindB7v160006IcmNS_11char_traitsIcEELm18446744073709551615EEET0_PKT_S3_S6_S3_S3_, symObjAddr: 0x285EC, symBinAddr: 0x2BE84, symSize: 0x128 }
  - { offsetInCU: 0x440FB, offset: 0x4AF3D, size: 0x8, addend: 0x0, symName: __ZNSt3__118__find_end_classicB7v160006IPKcS2_DoFbccEEET_S4_S4_T0_S5_RT1_, symObjAddr: 0x28714, symBinAddr: 0x2BFAC, symSize: 0x64 }
  - { offsetInCU: 0x44188, offset: 0x4AFCA, size: 0x8, addend: 0x0, symName: __ZNSt3__115__find_end_implB7v160006INS_17_ClassicAlgPolicyEPKcS3_S3_S3_DoFbccENS_10__identityES5_EENS_4pairIT0_S7_EES7_T1_T2_T3_RT4_RT5_RT6_NS_20forward_iterator_tagESI_, symObjAddr: 0x287A0, symBinAddr: 0x2C038, symSize: 0x1F4 }
  - { offsetInCU: 0x44382, offset: 0x4B1C4, size: 0x8, addend: 0x0, symName: __ZNSt3__18__invokeB7v160006IRDoFbccEJRKcS4_EEEDTclclsr3stdE7declvalIT_EEspclsr3stdE7declvalIT0_EEEEOS5_DpOS6_, symObjAddr: 0x289E8, symBinAddr: 0x2C280, symSize: 0x40 }
  - { offsetInCU: 0x443E7, offset: 0x4B229, size: 0x8, addend: 0x0, symName: __ZNSt3__18__invokeB7v160006IRNS_10__identityEJRKcEEEDTclclsr3stdE7declvalIT_EEspclsr3stdE7declvalIT0_EEEEOS5_DpOS6_, symObjAddr: 0x28A28, symBinAddr: 0x2C2C0, symSize: 0x2C }
  - { offsetInCU: 0x44466, offset: 0x4B2A8, size: 0x8, addend: 0x0, symName: __ZNSt3__118__debug_db_erase_cB7v160006INS_6vectorIN8pybind116detail15argument_recordENS_9allocatorIS4_EEEEEEvPT_, symObjAddr: 0x29A74, symBinAddr: 0x2D30C, symSize: 0x10 }
  - { offsetInCU: 0x44497, offset: 0x4B2D9, size: 0x8, addend: 0x0, symName: __ZNSt3__1neB7v160006IPPcEEbRKNS_11__wrap_iterIT_EES7_, symObjAddr: 0x2A1AC, symBinAddr: 0x2DA44, symSize: 0x34 }
  - { offsetInCU: 0x444DA, offset: 0x4B31C, size: 0x8, addend: 0x0, symName: __ZNSt3__1eqB7v160006IPPcEEbRKNS_11__wrap_iterIT_EES7_, symObjAddr: 0x2A2D8, symBinAddr: 0x2DB70, symSize: 0x48 }
  - { offsetInCU: 0x4451E, offset: 0x4B360, size: 0x8, addend: 0x0, symName: __ZNSt3__118__debug_db_erase_cB7v160006INS_6vectorIPcNS_9allocatorIS2_EEEEEEvPT_, symObjAddr: 0x2A46C, symBinAddr: 0x2DD04, symSize: 0x10 }
  - { offsetInCU: 0x4454F, offset: 0x4B391, size: 0x8, addend: 0x0, symName: __ZNSt3__1neB7v160006ERKNS_25__hash_map_const_iteratorINS_21__hash_const_iteratorIPNS_11__hash_nodeINS_17__hash_value_typeIP11_typeobjectNS_6vectorIPN8pybind116detail9type_infoENS_9allocatorISA_EEEEEEPvEEEEEESL_, symObjAddr: 0x2A95C, symBinAddr: 0x2E1F4, symSize: 0x30 }
  - { offsetInCU: 0x4458C, offset: 0x4B3CE, size: 0x8, addend: 0x0, symName: __ZNSt3__1neB7v160006IPKPN8pybind116detail9type_infoEEEbRKNS_11__wrap_iterIT_EESB_, symObjAddr: 0x2AA50, symBinAddr: 0x2E2E8, symSize: 0x34 }
  - { offsetInCU: 0x445CF, offset: 0x4B411, size: 0x8, addend: 0x0, symName: __ZNSt3__1neB7v160006IPPN8pybind116detail9type_infoEEEbRKNS_11__wrap_iterIT_EESA_, symObjAddr: 0x2AAFC, symBinAddr: 0x2E394, symSize: 0x34 }
  - { offsetInCU: 0x44613, offset: 0x4B455, size: 0x8, addend: 0x0, symName: __ZNSt3__119__debug_db_insert_cB7v160006INS_6vectorIP11_typeobjectNS_9allocatorIS3_EEEEEEvPT_, symObjAddr: 0x2ACE0, symBinAddr: 0x2E578, symSize: 0x10 }
  - { offsetInCU: 0x44645, offset: 0x4B487, size: 0x8, addend: 0x0, symName: __ZNSt3__112__to_addressB7v160006IP11_typeobjectEEPT_S4_, symObjAddr: 0x2B1D0, symBinAddr: 0x2EA68, symSize: 0x14 }
  - { offsetInCU: 0x4467A, offset: 0x4B4BC, size: 0x8, addend: 0x0, symName: __ZNSt3__119__allocate_at_leastB7v160006INS_9allocatorIP11_typeobjectEEEENS_19__allocation_resultINS_16allocator_traitsIT_E7pointerEEERS7_m, symObjAddr: 0x2B7D4, symBinAddr: 0x2F06C, symSize: 0x40 }
  - { offsetInCU: 0x446BD, offset: 0x4B4FF, size: 0x8, addend: 0x0, symName: __ZNSt3__142__uninitialized_allocator_move_if_noexceptB7v160006INS_9allocatorIP11_typeobjectEENS_16reverse_iteratorIPS3_EES7_S3_vEET1_RT_T0_SB_S8_, symObjAddr: 0x2BA40, symBinAddr: 0x2F2D8, symSize: 0x78 }
  - { offsetInCU: 0x4473D, offset: 0x4B57F, size: 0x8, addend: 0x0, symName: __ZNSt3__14swapB7v160006IPP11_typeobjectEENS_9enable_ifIXaasr21is_move_constructibleIT_EE5valuesr18is_move_assignableIS5_EE5valueEvE4typeERS5_S8_, symObjAddr: 0x2BB04, symBinAddr: 0x2F39C, symSize: 0x3C }
  - { offsetInCU: 0x4478F, offset: 0x4B5D1, size: 0x8, addend: 0x0, symName: __ZNSt3__125__debug_db_invalidate_allB7v160006INS_6vectorIP11_typeobjectNS_9allocatorIS3_EEEEEEvPT_, symObjAddr: 0x2BBEC, symBinAddr: 0x2F484, symSize: 0x10 }
  - { offsetInCU: 0x447C0, offset: 0x4B602, size: 0x8, addend: 0x0, symName: __ZNSt3__14moveB7v160006INS_16reverse_iteratorIPP11_typeobjectEES5_EET0_T_S7_S6_, symObjAddr: 0x2BC44, symBinAddr: 0x2F4DC, symSize: 0x78 }
  - { offsetInCU: 0x4481A, offset: 0x4B65C, size: 0x8, addend: 0x0, symName: __ZNSt3__16__moveB7v160006INS_17_ClassicAlgPolicyENS_16reverse_iteratorIPP11_typeobjectEES6_S6_EENS_4pairIT0_T2_EES8_T1_S9_, symObjAddr: 0x2BCBC, symBinAddr: 0x2F554, symSize: 0x64 }
  - { offsetInCU: 0x44886, offset: 0x4B6C8, size: 0x8, addend: 0x0, symName: __ZNSt3__123__dispatch_copy_or_moveB7v160006INS_17_ClassicAlgPolicyENS_11__move_loopIS1_EENS_14__move_trivialENS_16reverse_iteratorIPP11_typeobjectEES9_S9_EENS_4pairIT2_T4_EESB_T3_SC_, symObjAddr: 0x2BD20, symBinAddr: 0x2F5B8, symSize: 0x64 }
  - { offsetInCU: 0x44904, offset: 0x4B746, size: 0x8, addend: 0x0, symName: __ZNSt3__121__unwrap_and_dispatchB7v160006INS_10__overloadINS_11__move_loopINS_17_ClassicAlgPolicyEEENS_14__move_trivialEEENS_16reverse_iteratorIPP11_typeobjectEESB_SB_Li0EEENS_4pairIT0_T2_EESD_T1_SE_, symObjAddr: 0x2BD84, symBinAddr: 0x2F61C, symSize: 0x12C }
  - { offsetInCU: 0x44994, offset: 0x4B7D6, size: 0x8, addend: 0x0, symName: __ZNSt3__114__unwrap_rangeB7v160006INS_16reverse_iteratorIPP11_typeobjectEES5_EENS_4pairIT0_S7_EET_S9_, symObjAddr: 0x2BEB0, symBinAddr: 0x2F748, symSize: 0x84 }
  - { offsetInCU: 0x44AB4, offset: 0x4B8F6, size: 0x8, addend: 0x0, symName: __ZNSt3__113__unwrap_iterB7v160006INS_16reverse_iteratorIPP11_typeobjectEENS_18__unwrap_iter_implIS5_Lb0EEELi0EEEDTclsrT0_8__unwrapclsr3stdE7declvalIT_EEEES9_, symObjAddr: 0x2BFD4, symBinAddr: 0x2F86C, symSize: 0x44 }
  - { offsetInCU: 0x44AF8, offset: 0x4B93A, size: 0x8, addend: 0x0, symName: __ZNSt3__19make_pairB7v160006INS_16reverse_iteratorIPP11_typeobjectEES5_EENS_4pairINS_18__unwrap_ref_decayIT_E4typeENS7_IT0_E4typeEEEOS8_OSB_, symObjAddr: 0x2C018, symBinAddr: 0x2F8B0, symSize: 0x38 }
  - { offsetInCU: 0x44B47, offset: 0x4B989, size: 0x8, addend: 0x0, symName: __ZNSt3__114__rewrap_rangeB7v160006INS_16reverse_iteratorIPP11_typeobjectEES5_EET_S6_T0_, symObjAddr: 0x2C050, symBinAddr: 0x2F8E8, symSize: 0x5C }
  - { offsetInCU: 0x44B93, offset: 0x4B9D5, size: 0x8, addend: 0x0, symName: __ZNSt3__113__rewrap_iterB7v160006INS_16reverse_iteratorIPP11_typeobjectEES5_NS_18__unwrap_iter_implIS5_Lb0EEEEET_S8_T0_, symObjAddr: 0x2C0AC, symBinAddr: 0x2F944, symSize: 0x74 }
  - { offsetInCU: 0x44BE8, offset: 0x4BA2A, size: 0x8, addend: 0x0, symName: __ZNSt3__1neB7v160006IPP11_typeobjectS3_EEbRKNS_16reverse_iteratorIT_EERKNS4_IT0_EE, symObjAddr: 0x2C120, symBinAddr: 0x2F9B8, symSize: 0x48 }
  - { offsetInCU: 0x44CA1, offset: 0x4BAE3, size: 0x8, addend: 0x0, symName: __ZNSt3__1neB7v160006ERKNS_21__hash_const_iteratorIPNS_11__hash_nodeINS_17__hash_value_typeIP11_typeobjectNS_6vectorIPN8pybind116detail9type_infoENS_9allocatorIS9_EEEEEEPvEEEESJ_, symObjAddr: 0x2C8E4, symBinAddr: 0x3017C, symSize: 0x34 }
  - { offsetInCU: 0x44CDE, offset: 0x4BB20, size: 0x8, addend: 0x0, symName: __ZNSt3__1eqB7v160006ERKNS_21__hash_const_iteratorIPNS_11__hash_nodeINS_17__hash_value_typeIP11_typeobjectNS_6vectorIPN8pybind116detail9type_infoENS_9allocatorIS9_EEEEEEPvEEEESJ_, symObjAddr: 0x2C918, symBinAddr: 0x301B0, symSize: 0x30 }
  - { offsetInCU: 0x44D81, offset: 0x4BBC3, size: 0x8, addend: 0x0, symName: __ZNSt3__1eqB7v160006IPKPN8pybind116detail9type_infoEEEbRKNS_11__wrap_iterIT_EESB_, symObjAddr: 0x2CA34, symBinAddr: 0x302CC, symSize: 0x48 }
  - { offsetInCU: 0x44DC4, offset: 0x4BC06, size: 0x8, addend: 0x0, symName: __ZNSt3__1eqB7v160006IPPN8pybind116detail9type_infoEEEbRKNS_11__wrap_iterIT_EESA_, symObjAddr: 0x2CB28, symBinAddr: 0x303C0, symSize: 0x48 }
  - { offsetInCU: 0x44E07, offset: 0x4BC49, size: 0x8, addend: 0x0, symName: __ZNSt3__119__allocate_at_leastB7v160006INS_9allocatorIPN8pybind116detail9type_infoEEEEENS_19__allocation_resultINS_16allocator_traitsIT_E7pointerEEERS9_m, symObjAddr: 0x2D2D8, symBinAddr: 0x30B70, symSize: 0x40 }
  - { offsetInCU: 0x44E4A, offset: 0x4BC8C, size: 0x8, addend: 0x0, symName: __ZNSt3__142__uninitialized_allocator_move_if_noexceptB7v160006INS_9allocatorIPN8pybind116detail9type_infoEEENS_16reverse_iteratorIPS5_EES9_S5_vEET1_RT_T0_SD_SA_, symObjAddr: 0x2D48C, symBinAddr: 0x30D24, symSize: 0x78 }
  - { offsetInCU: 0x44ECA, offset: 0x4BD0C, size: 0x8, addend: 0x0, symName: __ZNSt3__14swapB7v160006IPPN8pybind116detail9type_infoEEENS_9enable_ifIXaasr21is_move_constructibleIT_EE5valuesr18is_move_assignableIS7_EE5valueEvE4typeERS7_SA_, symObjAddr: 0x2D550, symBinAddr: 0x30DE8, symSize: 0x3C }
  - { offsetInCU: 0x44F1C, offset: 0x4BD5E, size: 0x8, addend: 0x0, symName: __ZNSt3__125__debug_db_invalidate_allB7v160006INS_6vectorIPN8pybind116detail9type_infoENS_9allocatorIS5_EEEEEEvPT_, symObjAddr: 0x2D638, symBinAddr: 0x30ED0, symSize: 0x10 }
  - { offsetInCU: 0x44F4D, offset: 0x4BD8F, size: 0x8, addend: 0x0, symName: __ZNSt3__14moveB7v160006INS_16reverse_iteratorIPPN8pybind116detail9type_infoEEES7_EET0_T_S9_S8_, symObjAddr: 0x2D648, symBinAddr: 0x30EE0, symSize: 0x78 }
  - { offsetInCU: 0x44FA7, offset: 0x4BDE9, size: 0x8, addend: 0x0, symName: __ZNSt3__16__moveB7v160006INS_17_ClassicAlgPolicyENS_16reverse_iteratorIPPN8pybind116detail9type_infoEEES8_S8_EENS_4pairIT0_T2_EESA_T1_SB_, symObjAddr: 0x2D6C0, symBinAddr: 0x30F58, symSize: 0x64 }
  - { offsetInCU: 0x45013, offset: 0x4BE55, size: 0x8, addend: 0x0, symName: __ZNSt3__123__dispatch_copy_or_moveB7v160006INS_17_ClassicAlgPolicyENS_11__move_loopIS1_EENS_14__move_trivialENS_16reverse_iteratorIPPN8pybind116detail9type_infoEEESB_SB_EENS_4pairIT2_T4_EESD_T3_SE_, symObjAddr: 0x2D724, symBinAddr: 0x30FBC, symSize: 0x64 }
  - { offsetInCU: 0x45091, offset: 0x4BED3, size: 0x8, addend: 0x0, symName: __ZNSt3__121__unwrap_and_dispatchB7v160006INS_10__overloadINS_11__move_loopINS_17_ClassicAlgPolicyEEENS_14__move_trivialEEENS_16reverse_iteratorIPPN8pybind116detail9type_infoEEESD_SD_Li0EEENS_4pairIT0_T2_EESF_T1_SG_, symObjAddr: 0x2D788, symBinAddr: 0x31020, symSize: 0x12C }
  - { offsetInCU: 0x45121, offset: 0x4BF63, size: 0x8, addend: 0x0, symName: __ZNSt3__114__unwrap_rangeB7v160006INS_16reverse_iteratorIPPN8pybind116detail9type_infoEEES7_EENS_4pairIT0_S9_EET_SB_, symObjAddr: 0x2D8B4, symBinAddr: 0x3114C, symSize: 0x84 }
  - { offsetInCU: 0x45241, offset: 0x4C083, size: 0x8, addend: 0x0, symName: __ZNSt3__113__unwrap_iterB7v160006INS_16reverse_iteratorIPPN8pybind116detail9type_infoEEENS_18__unwrap_iter_implIS7_Lb0EEELi0EEEDTclsrT0_8__unwrapclsr3stdE7declvalIT_EEEESB_, symObjAddr: 0x2D9D8, symBinAddr: 0x31270, symSize: 0x44 }
  - { offsetInCU: 0x45285, offset: 0x4C0C7, size: 0x8, addend: 0x0, symName: __ZNSt3__19make_pairB7v160006INS_16reverse_iteratorIPPN8pybind116detail9type_infoEEES7_EENS_4pairINS_18__unwrap_ref_decayIT_E4typeENS9_IT0_E4typeEEEOSA_OSD_, symObjAddr: 0x2DA1C, symBinAddr: 0x312B4, symSize: 0x38 }
  - { offsetInCU: 0x452D4, offset: 0x4C116, size: 0x8, addend: 0x0, symName: __ZNSt3__114__rewrap_rangeB7v160006INS_16reverse_iteratorIPPN8pybind116detail9type_infoEEES7_EET_S8_T0_, symObjAddr: 0x2DA54, symBinAddr: 0x312EC, symSize: 0x5C }
  - { offsetInCU: 0x45320, offset: 0x4C162, size: 0x8, addend: 0x0, symName: __ZNSt3__113__rewrap_iterB7v160006INS_16reverse_iteratorIPPN8pybind116detail9type_infoEEES7_NS_18__unwrap_iter_implIS7_Lb0EEEEET_SA_T0_, symObjAddr: 0x2DAB0, symBinAddr: 0x31348, symSize: 0x74 }
  - { offsetInCU: 0x45375, offset: 0x4C1B7, size: 0x8, addend: 0x0, symName: __ZNSt3__1neB7v160006IPPN8pybind116detail9type_infoES5_EEbRKNS_16reverse_iteratorIT_EERKNS6_IT0_EE, symObjAddr: 0x2DB24, symBinAddr: 0x313BC, symSize: 0x48 }
  - { offsetInCU: 0x4542F, offset: 0x4C271, size: 0x8, addend: 0x0, symName: __ZNSt3__118__debug_db_erase_cB7v160006INS_6vectorIP11_typeobjectNS_9allocatorIS3_EEEEEEvPT_, symObjAddr: 0x2E19C, symBinAddr: 0x31A34, symSize: 0x10 }
  - { offsetInCU: 0x454C6, offset: 0x4C308, size: 0x8, addend: 0x0, symName: __ZNSt3__1neB7v160006ERKNS_19__hash_map_iteratorINS_15__hash_iteratorIPNS_11__hash_nodeINS_17__hash_value_typeIP11_typeobjectNS_6vectorIPN8pybind116detail9type_infoENS_9allocatorISA_EEEEEEPvEEEEEESL_, symObjAddr: 0x2E444, symBinAddr: 0x31CDC, symSize: 0x30 }
  - { offsetInCU: 0x45503, offset: 0x4C345, size: 0x8, addend: 0x0, symName: __ZNSt3__1neB7v160006ERKNS_15__hash_iteratorIPNS_11__hash_nodeINS_17__hash_value_typeIP11_typeobjectNS_6vectorIPN8pybind116detail9type_infoENS_9allocatorIS9_EEEEEEPvEEEESJ_, symObjAddr: 0x2E554, symBinAddr: 0x31DEC, symSize: 0x34 }
  - { offsetInCU: 0x45540, offset: 0x4C382, size: 0x8, addend: 0x0, symName: __ZNSt3__1eqB7v160006ERKNS_15__hash_iteratorIPNS_11__hash_nodeINS_17__hash_value_typeINS_10type_indexENS_6vectorIPFbP7_objectRPvENS_9allocatorISA_EEEEEES7_EEEESJ_, symObjAddr: 0x2E7D4, symBinAddr: 0x3206C, symSize: 0x30 }
  - { offsetInCU: 0x4557D, offset: 0x4C3BF, size: 0x8, addend: 0x0, symName: __ZNSt3__17launderB7v160006IKNS_4pairIKNS_10type_indexENS_6vectorIPFbP7_objectRPvENS_9allocatorISA_EEEEEEEEPT_SH_, symObjAddr: 0x2EBE8, symBinAddr: 0x32480, symSize: 0x24 }
  - { offsetInCU: 0x455B4, offset: 0x4C3F6, size: 0x8, addend: 0x0, symName: __ZNSt3__19__launderB7v160006IKNS_4pairIKNS_10type_indexENS_6vectorIPFbP7_objectRPvENS_9allocatorISA_EEEEEEEEPT_SH_, symObjAddr: 0x2EC0C, symBinAddr: 0x324A4, symSize: 0x14 }
  - { offsetInCU: 0x4563D, offset: 0x4C47F, size: 0x8, addend: 0x0, symName: __ZNSt3__118__debug_db_erase_cB7v160006INS_6vectorIPFbP7_objectRPvENS_9allocatorIS7_EEEEEEvPT_, symObjAddr: 0x2F644, symBinAddr: 0x32EDC, symSize: 0x10 }
  - { offsetInCU: 0x4566F, offset: 0x4C4B1, size: 0x8, addend: 0x0, symName: __ZNSt3__112__to_addressB7v160006IPFbP7_objectRPvEEEPT_S8_, symObjAddr: 0x2F788, symBinAddr: 0x33020, symSize: 0x14 }
  - { offsetInCU: 0x456A4, offset: 0x4C4E6, size: 0x8, addend: 0x0, symName: __ZNSt3__17launderB7v160006INS_4pairIKNS_10type_indexENS_6vectorIPFbP7_objectRPvENS_9allocatorISA_EEEEEEEEPT_SG_, symObjAddr: 0x2F964, symBinAddr: 0x331FC, symSize: 0x24 }
  - { offsetInCU: 0x456DB, offset: 0x4C51D, size: 0x8, addend: 0x0, symName: __ZNSt3__19__launderB7v160006INS_4pairIKNS_10type_indexENS_6vectorIPFbP7_objectRPvENS_9allocatorISA_EEEEEEEEPT_SG_, symObjAddr: 0x2F988, symBinAddr: 0x33220, symSize: 0x14 }
  - { offsetInCU: 0x45731, offset: 0x4C573, size: 0x8, addend: 0x0, symName: __ZNSt3__118__debug_db_erase_cB7v160006INS_6vectorINS_4pairIPKSt9type_infoPFPvS6_EEENS_9allocatorIS9_EEEEEEvPT_, symObjAddr: 0x30440, symBinAddr: 0x33CD8, symSize: 0x10 }
  - { offsetInCU: 0x45763, offset: 0x4C5A5, size: 0x8, addend: 0x0, symName: __ZNSt3__112__to_addressB7v160006INS_4pairIPKSt9type_infoPFPvS5_EEEEEPT_SA_, symObjAddr: 0x30584, symBinAddr: 0x33E1C, symSize: 0x14 }
  - { offsetInCU: 0x45799, offset: 0x4C5DB, size: 0x8, addend: 0x0, symName: __ZNSt3__118__debug_db_erase_cB7v160006INS_6vectorIPFP7_objectS3_P11_typeobjectENS_9allocatorIS7_EEEEEEvPT_, symObjAddr: 0x30928, symBinAddr: 0x341C0, symSize: 0x10 }
  - { offsetInCU: 0x457CB, offset: 0x4C60D, size: 0x8, addend: 0x0, symName: __ZNSt3__112__to_addressB7v160006IPFP7_objectS2_P11_typeobjectEEEPT_S8_, symObjAddr: 0x30A6C, symBinAddr: 0x34304, symSize: 0x14 }
  - { offsetInCU: 0x45800, offset: 0x4C642, size: 0x8, addend: 0x0, symName: __ZNSt3__1neB7v160006ERKNS_19__hash_map_iteratorINS_15__hash_iteratorIPNS_11__hash_nodeINS_17__hash_value_typeIPKvPN8pybind116detail8instanceEEEPvEEEEEESH_, symObjAddr: 0x31828, symBinAddr: 0x350C0, symSize: 0x30 }
  - { offsetInCU: 0x45911, offset: 0x4C753, size: 0x8, addend: 0x0, symName: __ZNSt3__1neB7v160006ERKNS_15__hash_iteratorIPNS_11__hash_nodeINS_17__hash_value_typeIPKvPN8pybind116detail8instanceEEEPvEEEESF_, symObjAddr: 0x31BE8, symBinAddr: 0x35480, symSize: 0x34 }
  - { offsetInCU: 0x45981, offset: 0x4C7C3, size: 0x8, addend: 0x0, symName: __ZNSt3__1eqB7v160006ERKNS_15__hash_iteratorIPNS_11__hash_nodeINS_17__hash_value_typeIPKvPN8pybind116detail8instanceEEEPvEEEESF_, symObjAddr: 0x3200C, symBinAddr: 0x358A4, symSize: 0x30 }
  - { offsetInCU: 0x459BE, offset: 0x4C800, size: 0x8, addend: 0x0, symName: __ZNSt3__17launderB7v160006IKNS_4pairIKPKvPN8pybind116detail8instanceEEEEEPT_SC_, symObjAddr: 0x320CC, symBinAddr: 0x35964, symSize: 0x24 }
  - { offsetInCU: 0x459F5, offset: 0x4C837, size: 0x8, addend: 0x0, symName: __ZNSt3__19__launderB7v160006IKNS_4pairIKPKvPN8pybind116detail8instanceEEEEEPT_SC_, symObjAddr: 0x320F0, symBinAddr: 0x35988, symSize: 0x14 }
  - { offsetInCU: 0x45A92, offset: 0x4C8D4, size: 0x8, addend: 0x0, symName: __ZNSt3__17launderB7v160006INS_4pairIKPKvPN8pybind116detail8instanceEEEEEPT_SB_, symObjAddr: 0x32264, symBinAddr: 0x35AFC, symSize: 0x24 }
  - { offsetInCU: 0x45AC9, offset: 0x4C90B, size: 0x8, addend: 0x0, symName: __ZNSt3__19__launderB7v160006INS_4pairIKPKvPN8pybind116detail8instanceEEEEEPT_SB_, symObjAddr: 0x32288, symBinAddr: 0x35B20, symSize: 0x14 }
  - { offsetInCU: 0x45B1E, offset: 0x4C960, size: 0x8, addend: 0x0, symName: __ZNSt3__1neB7v160006IPNS_4pairIPKSt9type_infoPFPvS5_EEEEEbRKNS_11__wrap_iterIT_EESE_, symObjAddr: 0x32B48, symBinAddr: 0x363E0, symSize: 0x34 }
  - { offsetInCU: 0x45B61, offset: 0x4C9A3, size: 0x8, addend: 0x0, symName: __ZNSt3__1eqB7v160006IPNS_4pairIPKSt9type_infoPFPvS5_EEEEEbRKNS_11__wrap_iterIT_EESE_, symObjAddr: 0x32C48, symBinAddr: 0x364E0, symSize: 0x48 }
  - { offsetInCU: 0x45BA4, offset: 0x4C9E6, size: 0x8, addend: 0x0, symName: __ZNSt3__1neB7v160006ERKNS_19__hash_map_iteratorINS_15__hash_iteratorIPNS_11__hash_nodeINS_17__hash_value_typeIPK7_objectNS_6vectorIPS4_NS_9allocatorIS8_EEEEEEPvEEEEEESJ_, symObjAddr: 0x32CE8, symBinAddr: 0x36580, symSize: 0x30 }
  - { offsetInCU: 0x45BE1, offset: 0x4CA23, size: 0x8, addend: 0x0, symName: __ZNSt3__1neB7v160006IPP7_objectEEbRKNS_11__wrap_iterIT_EES8_, symObjAddr: 0x32E68, symBinAddr: 0x36700, symSize: 0x34 }
  - { offsetInCU: 0x45C24, offset: 0x4CA66, size: 0x8, addend: 0x0, symName: __ZNSt3__17launderB7v160006IKNS_4pairIKPK7_objectNS_6vectorIPS2_NS_9allocatorIS7_EEEEEEEEPT_SE_, symObjAddr: 0x334A8, symBinAddr: 0x36D40, symSize: 0x24 }
  - { offsetInCU: 0x45C5B, offset: 0x4CA9D, size: 0x8, addend: 0x0, symName: __ZNSt3__19__launderB7v160006IKNS_4pairIKPK7_objectNS_6vectorIPS2_NS_9allocatorIS7_EEEEEEEEPT_SE_, symObjAddr: 0x334CC, symBinAddr: 0x36D64, symSize: 0x14 }
  - { offsetInCU: 0x45CC5, offset: 0x4CB07, size: 0x8, addend: 0x0, symName: __ZNSt3__1neB7v160006ERKNS_15__hash_iteratorIPNS_11__hash_nodeINS_17__hash_value_typeIPK7_objectNS_6vectorIPS3_NS_9allocatorIS7_EEEEEEPvEEEESH_, symObjAddr: 0x33538, symBinAddr: 0x36DD0, symSize: 0x34 }
  - { offsetInCU: 0x45D02, offset: 0x4CB44, size: 0x8, addend: 0x0, symName: __ZNSt3__1eqB7v160006ERKNS_15__hash_iteratorIPNS_11__hash_nodeINS_17__hash_value_typeIPK7_objectNS_6vectorIPS3_NS_9allocatorIS7_EEEEEEPvEEEESH_, symObjAddr: 0x3356C, symBinAddr: 0x36E04, symSize: 0x30 }
  - { offsetInCU: 0x45DA5, offset: 0x4CBE7, size: 0x8, addend: 0x0, symName: __ZNSt3__17launderB7v160006INS_4pairIKPK7_objectNS_6vectorIPS2_NS_9allocatorIS7_EEEEEEEEPT_SD_, symObjAddr: 0x33618, symBinAddr: 0x36EB0, symSize: 0x24 }
  - { offsetInCU: 0x45DDC, offset: 0x4CC1E, size: 0x8, addend: 0x0, symName: __ZNSt3__19__launderB7v160006INS_4pairIKPK7_objectNS_6vectorIPS2_NS_9allocatorIS7_EEEEEEEEPT_SD_, symObjAddr: 0x3363C, symBinAddr: 0x36ED4, symSize: 0x14 }
  - { offsetInCU: 0x45E14, offset: 0x4CC56, size: 0x8, addend: 0x0, symName: __ZNSt3__115__debug_db_swapB7v160006INS_6vectorIP7_objectNS_9allocatorIS3_EEEEEEvPT_S8_, symObjAddr: 0x33790, symBinAddr: 0x37028, symSize: 0x14 }
  - { offsetInCU: 0x45E71, offset: 0x4CCB3, size: 0x8, addend: 0x0, symName: __ZNSt3__1eqB7v160006IPP7_objectEEbRKNS_11__wrap_iterIT_EES8_, symObjAddr: 0x3420C, symBinAddr: 0x37AA4, symSize: 0x48 }
  - { offsetInCU: 0x45EB5, offset: 0x4CCF7, size: 0x8, addend: 0x0, symName: __ZNSt3__118__debug_db_erase_cB7v160006INS_6vectorIP7_objectNS_9allocatorIS3_EEEEEEvPT_, symObjAddr: 0x34458, symBinAddr: 0x37CF0, symSize: 0x10 }
  - { offsetInCU: 0x45EE7, offset: 0x4CD29, size: 0x8, addend: 0x0, symName: __ZNSt3__112__to_addressB7v160006IP7_objectEEPT_S4_, symObjAddr: 0x34574, symBinAddr: 0x37E0C, symSize: 0x14 }
  - { offsetInCU: 0x45F1D, offset: 0x4CD5F, size: 0x8, addend: 0x0, symName: __ZNSt3__125__debug_db_invalidate_allB7v160006INS_12__hash_tableINS_17__hash_value_typeIPKvPN8pybind116detail8instanceEEENS_22__unordered_map_hasherIS4_S9_NS_4hashIS4_EENS_8equal_toIS4_EELb1EEENS_21__unordered_map_equalIS4_S9_SE_SC_Lb1EEENS_9allocatorIS9_EEEEEEvPT_, symObjAddr: 0x36C4C, symBinAddr: 0x3A4E4, symSize: 0x10 }
  - { offsetInCU: 0x464A6, offset: 0x4D2E8, size: 0x8, addend: 0x0, symName: __ZNSt3__1neB7v160006IPlEEbRKNS_11__wrap_iterIT_EES6_, symObjAddr: 0x3A080, symBinAddr: 0x3D918, symSize: 0x34 }
  - { offsetInCU: 0x464EA, offset: 0x4D32C, size: 0x8, addend: 0x0, symName: __ZNSt3__118__debug_db_erase_cB7v160006INS_6vectorIlNS_9allocatorIlEEEEEEvPT_, symObjAddr: 0x3A3E4, symBinAddr: 0x3DC7C, symSize: 0x10 }
  - { offsetInCU: 0x4651C, offset: 0x4D35E, size: 0x8, addend: 0x0, symName: __ZNSt3__112__to_addressB7v160006IlEEPT_S2_, symObjAddr: 0x3A528, symBinAddr: 0x3DDC0, symSize: 0x14 }
  - { offsetInCU: 0x46551, offset: 0x4D393, size: 0x8, addend: 0x0, symName: __ZNSt3__1eqB7v160006IPlEEbRKNS_11__wrap_iterIT_EES6_, symObjAddr: 0x3A774, symBinAddr: 0x3E00C, symSize: 0x48 }
  - { offsetInCU: 0x46595, offset: 0x4D3D7, size: 0x8, addend: 0x0, symName: __ZNSt3__125__throw_bad_function_callB7v160006Ev, symObjAddr: 0x3A850, symBinAddr: 0x3E0E8, symSize: 0x38 }
  - { offsetInCU: 0x465E8, offset: 0x4D42A, size: 0x8, addend: 0x0, symName: __ZNSt3__119__debug_db_insert_cB7v160006INS_6vectorIPFP7_objectS3_P11_typeobjectENS_9allocatorIS7_EEEEEEvPT_, symObjAddr: 0x3AAB4, symBinAddr: 0x3E34C, symSize: 0x10 }
  - { offsetInCU: 0x4661A, offset: 0x4D45C, size: 0x8, addend: 0x0, symName: __ZNSt3__119__debug_db_insert_cB7v160006INS_6vectorINS_4pairIPKSt9type_infoPFPvS6_EEENS_9allocatorIS9_EEEEEEvPT_, symObjAddr: 0x3AC20, symBinAddr: 0x3E4B8, symSize: 0x10 }
  - { offsetInCU: 0x4664B, offset: 0x4D48D, size: 0x8, addend: 0x0, symName: __ZNSt3__116forward_as_tupleB7v160006IJRKNS_10type_indexEEEENS_5tupleIJDpOT_EEES7_, symObjAddr: 0x3B190, symBinAddr: 0x3EA28, symSize: 0x2C }
  - { offsetInCU: 0x46684, offset: 0x4D4C6, size: 0x8, addend: 0x0, symName: __ZNSt3__13getB7v160006ILm0EJRKNS_10type_indexEEEERNS_13tuple_elementIXT_ENS_5tupleIJDpT0_EEEE4typeERS8_, symObjAddr: 0x3B69C, symBinAddr: 0x3EF34, symSize: 0x24 }
  - { offsetInCU: 0x466C8, offset: 0x4D50A, size: 0x8, addend: 0x0, symName: __ZNSt3__119__debug_db_insert_cB7v160006INS_6vectorIPFbP7_objectRPvENS_9allocatorIS7_EEEEEEvPT_, symObjAddr: 0x3B798, symBinAddr: 0x3F030, symSize: 0x10 }
  - { offsetInCU: 0x466FA, offset: 0x4D53C, size: 0x8, addend: 0x0, symName: __ZNSt3__125__debug_db_invalidate_allB7v160006INS_12__hash_tableINS_17__hash_value_typeINS_10type_indexENS_6vectorIPFbP7_objectRPvENS_9allocatorISA_EEEEEENS_22__unordered_map_hasherIS3_SE_N8pybind116detail9type_hashENSH_13type_equal_toELb1EEENS_21__unordered_map_equalIS3_SE_SJ_SI_Lb1EEENSB_ISE_EEEEEEvPT_, symObjAddr: 0x3BCCC, symBinAddr: 0x3F564, symSize: 0x10 }
  - { offsetInCU: 0x46774, offset: 0x4D5B6, size: 0x8, addend: 0x0, symName: __ZNSt3__125__debug_db_invalidate_allB7v160006INS_12__hash_tableINS_17__hash_value_typeINS_10type_indexEPN8pybind116detail9type_infoEEENS_22__unordered_map_hasherIS3_S8_NS5_9type_hashENS5_13type_equal_toELb1EEENS_21__unordered_map_equalIS3_S8_SB_SA_Lb1EEENS_9allocatorIS8_EEEEEEvPT_, symObjAddr: 0x3CF24, symBinAddr: 0x407BC, symSize: 0x10 }
  - { offsetInCU: 0x467A5, offset: 0x4D5E7, size: 0x8, addend: 0x0, symName: __ZNSt3__116forward_as_tupleB7v160006IJP11_typeobjectEEENS_5tupleIJDpOT_EEES6_, symObjAddr: 0x3D594, symBinAddr: 0x40E2C, symSize: 0x2C }
  - { offsetInCU: 0x467DE, offset: 0x4D620, size: 0x8, addend: 0x0, symName: __ZNSt3__13getB7v160006ILm0EJOP11_typeobjectEEERNS_13tuple_elementIXT_ENS_5tupleIJDpT0_EEEE4typeERS8_, symObjAddr: 0x3D864, symBinAddr: 0x410FC, symSize: 0x24 }
  - { offsetInCU: 0x46836, offset: 0x4D678, size: 0x8, addend: 0x0, symName: __ZNSt3__18distanceB7v160006IPKPN8pybind116detail9type_infoEEENS_15iterator_traitsIT_E15difference_typeES8_S8_, symObjAddr: 0x3DB44, symBinAddr: 0x413DC, symSize: 0x2C }
  - { offsetInCU: 0x46879, offset: 0x4D6BB, size: 0x8, addend: 0x0, symName: __ZNSt3__14copyB7v160006IPKPN8pybind116detail9type_infoEPS4_EET0_T_S9_S8_, symObjAddr: 0x3DBC0, symBinAddr: 0x41458, symSize: 0x40 }
  - { offsetInCU: 0x468D4, offset: 0x4D716, size: 0x8, addend: 0x0, symName: __ZNSt3__110__distanceB7v160006IPKPN8pybind116detail9type_infoEEENS_15iterator_traitsIT_E15difference_typeES8_S8_NS_26random_access_iterator_tagE, symObjAddr: 0x3DE24, symBinAddr: 0x416BC, symSize: 0x28 }
  - { offsetInCU: 0x46923, offset: 0x4D765, size: 0x8, addend: 0x0, symName: __ZNSt3__19__advanceB7v160006IPKPN8pybind116detail9type_infoEEEvRT_NS_15iterator_traitsIS7_E15difference_typeENS_26random_access_iterator_tagE, symObjAddr: 0x3DE4C, symBinAddr: 0x416E4, symSize: 0x28 }
  - { offsetInCU: 0x4696D, offset: 0x4D7AF, size: 0x8, addend: 0x0, symName: __ZNSt3__16__copyB7v160006INS_17_ClassicAlgPolicyEPKPN8pybind116detail9type_infoES7_PS5_EENS_4pairIT0_T2_EESA_T1_SB_, symObjAddr: 0x3DE74, symBinAddr: 0x4170C, symSize: 0x44 }
  - { offsetInCU: 0x469D9, offset: 0x4D81B, size: 0x8, addend: 0x0, symName: __ZNSt3__123__dispatch_copy_or_moveB7v160006INS_17_ClassicAlgPolicyENS_11__copy_loopIS1_EENS_14__copy_trivialEPKPN8pybind116detail9type_infoESA_PS8_EENS_4pairIT2_T4_EESD_T3_SE_, symObjAddr: 0x3DEB8, symBinAddr: 0x41750, symSize: 0x44 }
  - { offsetInCU: 0x46A57, offset: 0x4D899, size: 0x8, addend: 0x0, symName: __ZNSt3__121__unwrap_and_dispatchB7v160006INS_10__overloadINS_11__copy_loopINS_17_ClassicAlgPolicyEEENS_14__copy_trivialEEEPKPN8pybind116detail9type_infoESC_PSA_Li0EEENS_4pairIT0_T2_EESF_T1_SG_, symObjAddr: 0x3DEFC, symBinAddr: 0x41794, symSize: 0xB4 }
  - { offsetInCU: 0x46AE5, offset: 0x4D927, size: 0x8, addend: 0x0, symName: __ZNSt3__114__unwrap_rangeB7v160006IPKPN8pybind116detail9type_infoES6_EENS_4pairIT0_S8_EET_SA_, symObjAddr: 0x3DFB0, symBinAddr: 0x41848, symSize: 0x60 }
  - { offsetInCU: 0x46C34, offset: 0x4DA76, size: 0x8, addend: 0x0, symName: __ZNSt3__113__unwrap_iterB7v160006IPPN8pybind116detail9type_infoENS_18__unwrap_iter_implIS5_Lb1EEELi0EEEDTclsrT0_8__unwrapclsr3stdE7declvalIT_EEEES9_, symObjAddr: 0x3E058, symBinAddr: 0x418F0, symSize: 0x24 }
  - { offsetInCU: 0x46C78, offset: 0x4DABA, size: 0x8, addend: 0x0, symName: __ZNSt3__19make_pairB7v160006IPKPN8pybind116detail9type_infoEPS4_EENS_4pairINS_18__unwrap_ref_decayIT_E4typeENS9_IT0_E4typeEEEOSA_OSD_, symObjAddr: 0x3E07C, symBinAddr: 0x41914, symSize: 0x38 }
  - { offsetInCU: 0x46CC7, offset: 0x4DB09, size: 0x8, addend: 0x0, symName: __ZNSt3__114__rewrap_rangeB7v160006IPKPN8pybind116detail9type_infoES6_EET_S7_T0_, symObjAddr: 0x3E0B4, symBinAddr: 0x4194C, symSize: 0x2C }
  - { offsetInCU: 0x46D13, offset: 0x4DB55, size: 0x8, addend: 0x0, symName: __ZNSt3__113__rewrap_iterB7v160006IPPN8pybind116detail9type_infoES5_NS_18__unwrap_iter_implIS5_Lb1EEEEET_S8_T0_, symObjAddr: 0x3E0E0, symBinAddr: 0x41978, symSize: 0x3C }
  - { offsetInCU: 0x46D68, offset: 0x4DBAA, size: 0x8, addend: 0x0, symName: __ZNSt3__19make_pairB7v160006IPKPN8pybind116detail9type_infoES6_EENS_4pairINS_18__unwrap_ref_decayIT_E4typeENS8_IT0_E4typeEEEOS9_OSC_, symObjAddr: 0x3E11C, symBinAddr: 0x419B4, symSize: 0x38 }
  - { offsetInCU: 0x46DB7, offset: 0x4DBF9, size: 0x8, addend: 0x0, symName: __ZNSt3__113__unwrap_iterB7v160006IPKPN8pybind116detail9type_infoENS_18__unwrap_iter_implIS6_Lb1EEELi0EEEDTclsrT0_8__unwrapclsr3stdE7declvalIT_EEEESA_, symObjAddr: 0x3E154, symBinAddr: 0x419EC, symSize: 0x24 }
  - { offsetInCU: 0x46F24, offset: 0x4DD66, size: 0x8, addend: 0x0, symName: __ZNSt3__112__to_addressB7v160006IKPN8pybind116detail9type_infoEEEPT_S7_, symObjAddr: 0x3E20C, symBinAddr: 0x41AA4, symSize: 0x14 }
  - { offsetInCU: 0x46F59, offset: 0x4DD9B, size: 0x8, addend: 0x0, symName: __ZNSt3__119__copy_trivial_implB7v160006IKPN8pybind116detail9type_infoES4_EENS_4pairIPT_PT0_EES8_S8_SA_, symObjAddr: 0x3E220, symBinAddr: 0x41AB8, symSize: 0x84 }
  - { offsetInCU: 0x46FC1, offset: 0x4DE03, size: 0x8, addend: 0x0, symName: __ZNSt3__19make_pairB7v160006IRPKPN8pybind116detail9type_infoEPS4_EENS_4pairINS_18__unwrap_ref_decayIT_E4typeENSA_IT0_E4typeEEEOSB_OSE_, symObjAddr: 0x3E2A4, symBinAddr: 0x41B3C, symSize: 0x38 }
  - { offsetInCU: 0x47064, offset: 0x4DEA6, size: 0x8, addend: 0x0, symName: __ZNSt3__113__rewrap_iterB7v160006IPKPN8pybind116detail9type_infoES6_NS_18__unwrap_iter_implIS6_Lb1EEEEET_S9_T0_, symObjAddr: 0x3E3E0, symBinAddr: 0x41C78, symSize: 0x3C }
  - { offsetInCU: 0x470B9, offset: 0x4DEFB, size: 0x8, addend: 0x0, symName: __ZNSt3__130__uninitialized_allocator_copyB7v160006INS_9allocatorIPN8pybind116detail9type_infoEEES5_S5_LPv0EEEPT0_RT_PKS8_SD_S9_, symObjAddr: 0x3E4BC, symBinAddr: 0x41D54, symSize: 0x38 }
  - { offsetInCU: 0x47132, offset: 0x4DF74, size: 0x8, addend: 0x0, symName: __ZNSt3__1neB7v160006IPKPFP7_objectS2_P11_typeobjectEEEbRKNS_11__wrap_iterIT_EESD_, symObjAddr: 0x3F3BC, symBinAddr: 0x42C54, symSize: 0x34 }
  - { offsetInCU: 0x47175, offset: 0x4DFB7, size: 0x8, addend: 0x0, symName: __ZNSt3__1neB7v160006IPKNS_4pairIPKSt9type_infoPFPvS5_EEEEEbRKNS_11__wrap_iterIT_EESF_, symObjAddr: 0x3F798, symBinAddr: 0x43030, symSize: 0x34 }
  - { offsetInCU: 0x471B8, offset: 0x4DFFA, size: 0x8, addend: 0x0, symName: __ZNSt3__1eqB7v160006IPKNS_4pairIPKSt9type_infoPFPvS5_EEEEEbRKNS_11__wrap_iterIT_EESF_, symObjAddr: 0x3F8CC, symBinAddr: 0x43164, symSize: 0x48 }
  - { offsetInCU: 0x471FB, offset: 0x4E03D, size: 0x8, addend: 0x0, symName: __ZNSt3__1eqB7v160006IPKPFP7_objectS2_P11_typeobjectEEEbRKNS_11__wrap_iterIT_EESD_, symObjAddr: 0x3FA20, symBinAddr: 0x432B8, symSize: 0x48 }
  - { offsetInCU: 0x4725D, offset: 0x4E09F, size: 0x8, addend: 0x0, symName: __ZNSt3__125__debug_db_invalidate_allB7v160006INS_12__hash_tableIP7_objectNS_4hashIS3_EENS_8equal_toIS3_EENS_9allocatorIS3_EEEEEEvPT_, symObjAddr: 0x40E10, symBinAddr: 0x446A8, symSize: 0x10 }
  - { offsetInCU: 0x4728E, offset: 0x4E0D0, size: 0x8, addend: 0x0, symName: __ZNSt3__1neB7v160006IPPFbP7_objectRPvEEEbRKNS_11__wrap_iterIT_EESC_, symObjAddr: 0x411F4, symBinAddr: 0x44A8C, symSize: 0x34 }
  - { offsetInCU: 0x472D1, offset: 0x4E113, size: 0x8, addend: 0x0, symName: __ZNSt3__1eqB7v160006IPPFbP7_objectRPvEEEbRKNS_11__wrap_iterIT_EESC_, symObjAddr: 0x412F4, symBinAddr: 0x44B8C, symSize: 0x48 }
  - { offsetInCU: 0x4731F, offset: 0x4E161, size: 0x8, addend: 0x0, symName: __ZNSt3__13getB7v160006ILm0EJN8pybind116detail11type_casterINS2_16value_and_holderEvEENS3_IcvEEEEERNS_13tuple_elementIXT_ENS_5tupleIJDpT0_EEEE4typeERSB_, symObjAddr: 0x423C0, symBinAddr: 0x45C58, symSize: 0x24 }
  - { offsetInCU: 0x47367, offset: 0x4E1A9, size: 0x8, addend: 0x0, symName: __ZNSt3__13getB7v160006ILm1EJN8pybind116detail11type_casterINS2_16value_and_holderEvEENS3_IcvEEEEERNS_13tuple_elementIXT_ENS_5tupleIJDpT0_EEEE4typeERSB_, symObjAddr: 0x4243C, symBinAddr: 0x45CD4, symSize: 0x28 }
  - { offsetInCU: 0x4740D, offset: 0x4E24F, size: 0x8, addend: 0x0, symName: __ZNSt3__13getB7v160006ILm0EJN8pybind116detail11type_casterI12CustomAntEnvvEEEEERNS_13tuple_elementIXT_ENS_5tupleIJDpT0_EEEE4typeERSA_, symObjAddr: 0x43CE0, symBinAddr: 0x47578, symSize: 0x24 }
  - { offsetInCU: 0x48133, offset: 0x4EF75, size: 0x8, addend: 0x0, symName: __ZSt28__throw_bad_array_new_lengthB7v160006v, symObjAddr: 0x8EEC, symBinAddr: 0xC784, symSize: 0x34 }
  - { offsetInCU: 0x4814C, offset: 0x4EF8E, size: 0x8, addend: 0x0, symName: __ZStneB7v160006RKSt13exception_ptrS1_, symObjAddr: 0xD2A8, symBinAddr: 0x10B40, symSize: 0x34 }
  - { offsetInCU: 0x48187, offset: 0x4EFC9, size: 0x8, addend: 0x0, symName: __ZSteqB7v160006RKSt13exception_ptrS1_, symObjAddr: 0xD310, symBinAddr: 0x10BA8, symSize: 0x30 }
  - { offsetInCU: 0x4C3B0, offset: 0x531F2, size: 0x8, addend: 0x0, symName: __ZN8pybind116handle15inc_ref_counterEm, symObjAddr: 0x511C, symBinAddr: 0x89B4, symSize: 0x40 }
  - { offsetInCU: 0x4C964, offset: 0x537A6, size: 0x8, addend: 0x0, symName: __ZN8pybind1112cpp_function10initializeIZNS_6detail23all_type_info_get_cacheEP11_typeobjectEUlNS_6handleEE_vJS5_EJEEEvOT_PFT0_DpT1_EDpRKT2_, symObjAddr: 0x119E0, symBinAddr: 0x15278, symSize: 0x114 }
  - { offsetInCU: 0x4C988, offset: 0x537CA, size: 0x8, addend: 0x0, symName: __ZZN8pybind1112cpp_function10initializeIZNS_6detail23all_type_info_get_cacheEP11_typeobjectEUlNS_6handleEE_vJS5_EJEEEvOT_PFT0_DpT1_EDpRKT2_E9signature, symObjAddr: 0x482D8, symBinAddr: 0x4D60F, symSize: 0x0 }
  - { offsetInCU: 0x4C99E, offset: 0x537E0, size: 0x8, addend: 0x0, symName: __ZZN8pybind1112cpp_function10initializeIZNS_6detail23all_type_info_get_cacheEP11_typeobjectEUlNS_6handleEE_vJS5_EJEEEvOT_PFT0_DpT1_EDpRKT2_E5types, symObjAddr: 0x485B8, symBinAddr: 0x50670, symSize: 0x0 }
  - { offsetInCU: 0x4CB67, offset: 0x539A9, size: 0x8, addend: 0x0, symName: __ZN8pybind117options12global_stateEv, symObjAddr: 0x2A0A8, symBinAddr: 0x2D940, symSize: 0xC }
  - { offsetInCU: 0x4CB87, offset: 0x539C9, size: 0x8, addend: 0x0, symName: __ZZN8pybind117options12global_stateEvE8instance, symObjAddr: 0x486A8, symBinAddr: 0x54600, symSize: 0x0 }
  - { offsetInCU: 0x4CB9E, offset: 0x539E0, size: 0x8, addend: 0x0, symName: __ZL35pybind11_module_def_mujoco_renderer, symObjAddr: 0x24EE18, symBinAddr: 0x54678, symSize: 0x0 }
  - { offsetInCU: 0x4D0DB, offset: 0x53F1D, size: 0x8, addend: 0x0, symName: __ZN8pybind116detail8initimpl11constructorIJPKcEE7executeINS_6class_I12CustomAntEnvJEEEJELi0EEEvRT_DpRKT0_, symObjAddr: 0x414FC, symBinAddr: 0x44D94, symSize: 0x34 }
  - { offsetInCU: 0x4D180, offset: 0x53FC2, size: 0x8, addend: 0x0, symName: __ZN8pybind1112cpp_function10initializeIZNS_6detail8initimpl11constructorIJPKcEE7executeINS_6class_I12CustomAntEnvJEEEJELi0EEEvRT_DpRKT0_EUlRNS2_16value_and_holderES6_E_vJSJ_S6_EJNS_4nameENS_9is_methodENS_7siblingENS2_24is_new_style_constructorEEEEvOSC_PFT0_DpT1_EDpRKT2_, symObjAddr: 0x41B58, symBinAddr: 0x453F0, symSize: 0x128 }
  - { offsetInCU: 0x4D1A4, offset: 0x53FE6, size: 0x8, addend: 0x0, symName: __ZZN8pybind1112cpp_function10initializeIZNS_6detail8initimpl11constructorIJPKcEE7executeINS_6class_I12CustomAntEnvJEEEJELi0EEEvRT_DpRKT0_EUlRNS2_16value_and_holderES6_E_vJSJ_S6_EJNS_4nameENS_9is_methodENS_7siblingENS2_24is_new_style_constructorEEEEvOSC_PFT0_DpT1_EDpRKT2_E9signature, symObjAddr: 0x48334, symBinAddr: 0x4D66B, symSize: 0x0 }
  - { offsetInCU: 0x4D1BA, offset: 0x53FFC, size: 0x8, addend: 0x0, symName: __ZZN8pybind1112cpp_function10initializeIZNS_6detail8initimpl11constructorIJPKcEE7executeINS_6class_I12CustomAntEnvJEEEJELi0EEEvRT_DpRKT0_EUlRNS2_16value_and_holderES6_E_vJSJ_S6_EJNS_4nameENS_9is_methodENS_7siblingENS2_24is_new_style_constructorEEEEvOSC_PFT0_DpT1_EDpRKT2_E5types, symObjAddr: 0x48630, symBinAddr: 0x506E8, symSize: 0x0 }
  - { offsetInCU: 0x4D378, offset: 0x541BA, size: 0x8, addend: 0x0, symName: __ZN8pybind1112cpp_functionC2Id12CustomAntEnvJEJNS_4nameENS_9is_methodENS_7siblingEEEEMT0_KFT_DpT1_EDpRKT2_, symObjAddr: 0x434E4, symBinAddr: 0x46D7C, symSize: 0xA4 }
  - { offsetInCU: 0x4D455, offset: 0x54297, size: 0x8, addend: 0x0, symName: __ZN8pybind1112cpp_function10initializeIZNS0_C1Id12CustomAntEnvJEJNS_4nameENS_9is_methodENS_7siblingEEEEMT0_KFT_DpT1_EDpRKT2_EUlPKS3_E_dJSI_EJS4_S5_S6_EEEvOS8_PFS7_SA_ESG_, symObjAddr: 0x43588, symBinAddr: 0x46E20, symSize: 0x130 }
  - { offsetInCU: 0x4D479, offset: 0x542BB, size: 0x8, addend: 0x0, symName: __ZZN8pybind1112cpp_function10initializeIZNS0_C1Id12CustomAntEnvJEJNS_4nameENS_9is_methodENS_7siblingEEEEMT0_KFT_DpT1_EDpRKT2_EUlPKS3_E_dJSI_EJS4_S5_S6_EEEvOS8_PFS7_SA_ESG_E9signature, symObjAddr: 0x48373, symBinAddr: 0x4D6AA, symSize: 0x0 }
  - { offsetInCU: 0x4D48F, offset: 0x542D1, size: 0x8, addend: 0x0, symName: __ZZN8pybind1112cpp_function10initializeIZNS0_C1Id12CustomAntEnvJEJNS_4nameENS_9is_methodENS_7siblingEEEEMT0_KFT_DpT1_EDpRKT2_EUlPKS3_E_dJSI_EJS4_S5_S6_EEEvOS8_PFS7_SA_ESG_E5types, symObjAddr: 0x48660, symBinAddr: 0x50718, symSize: 0x0 }
  - { offsetInCU: 0x4D636, offset: 0x54478, size: 0x8, addend: 0x0, symName: __ZN8pybind1112cpp_functionC2Iv12CustomAntEnvJEJNS_4nameENS_9is_methodENS_7siblingEEEEMT0_FT_DpT1_EDpRKT2_, symObjAddr: 0x43EC4, symBinAddr: 0x4775C, symSize: 0xA4 }
  - { offsetInCU: 0x4D702, offset: 0x54544, size: 0x8, addend: 0x0, symName: __ZN8pybind1112cpp_function10initializeIZNS0_C1Iv12CustomAntEnvJEJNS_4nameENS_9is_methodENS_7siblingEEEEMT0_FT_DpT1_EDpRKT2_EUlPS3_E_vJSH_EJS4_S5_S6_EEEvOS8_PFS7_SA_ESG_, symObjAddr: 0x43F68, symBinAddr: 0x47800, symSize: 0x12C }
  - { offsetInCU: 0x4D726, offset: 0x54568, size: 0x8, addend: 0x0, symName: __ZZN8pybind1112cpp_function10initializeIZNS0_C1Iv12CustomAntEnvJEJNS_4nameENS_9is_methodENS_7siblingEEEEMT0_FT_DpT1_EDpRKT2_EUlPS3_E_vJSH_EJS4_S5_S6_EEEvOS8_PFS7_SA_ESG_E9signature, symObjAddr: 0x48382, symBinAddr: 0x4D6B9, symSize: 0x0 }
  - { offsetInCU: 0x4D73C, offset: 0x5457E, size: 0x8, addend: 0x0, symName: __ZZN8pybind1112cpp_function10initializeIZNS0_C1Iv12CustomAntEnvJEJNS_4nameENS_9is_methodENS_7siblingEEEEMT0_FT_DpT1_EDpRKT2_EUlPS3_E_vJSH_EJS4_S5_S6_EEEvOS8_PFS7_SA_ESG_E5types, symObjAddr: 0x48670, symBinAddr: 0x50728, symSize: 0x0 }
  - { offsetInCU: 0x4D8D0, offset: 0x54712, size: 0x8, addend: 0x0, symName: __ZN8pybind1112cpp_functionC2Ib12CustomAntEnvJEJNS_4nameENS_9is_methodENS_7siblingEEEEMT0_KFT_DpT1_EDpRKT2_, symObjAddr: 0x444B0, symBinAddr: 0x47D48, symSize: 0xA4 }
  - { offsetInCU: 0x4D9A8, offset: 0x547EA, size: 0x8, addend: 0x0, symName: __ZN8pybind1112cpp_function10initializeIZNS0_C1Ib12CustomAntEnvJEJNS_4nameENS_9is_methodENS_7siblingEEEEMT0_KFT_DpT1_EDpRKT2_EUlPKS3_E_bJSI_EJS4_S5_S6_EEEvOS8_PFS7_SA_ESG_, symObjAddr: 0x44554, symBinAddr: 0x47DEC, symSize: 0x12C }
  - { offsetInCU: 0x4D9CC, offset: 0x5480E, size: 0x8, addend: 0x0, symName: __ZZN8pybind1112cpp_function10initializeIZNS0_C1Ib12CustomAntEnvJEJNS_4nameENS_9is_methodENS_7siblingEEEEMT0_KFT_DpT1_EDpRKT2_EUlPKS3_E_bJSI_EJS4_S5_S6_EEEvOS8_PFS7_SA_ESG_E9signature, symObjAddr: 0x48390, symBinAddr: 0x4D6C7, symSize: 0x0 }
  - { offsetInCU: 0x4D9E2, offset: 0x54824, size: 0x8, addend: 0x0, symName: __ZZN8pybind1112cpp_function10initializeIZNS0_C1Ib12CustomAntEnvJEJNS_4nameENS_9is_methodENS_7siblingEEEEMT0_KFT_DpT1_EDpRKT2_EUlPKS3_E_bJSI_EJS4_S5_S6_EEEvOS8_PFS7_SA_ESG_E5types, symObjAddr: 0x48680, symBinAddr: 0x50738, symSize: 0x0 }
  - { offsetInCU: 0x4E666, offset: 0x554A8, size: 0x8, addend: 0x0, symName: __ZNSt3__16vectorIPcNS_9allocatorIS1_EEE26__swap_out_circular_bufferERNS_14__split_bufferIS1_RS3_EE, symObjAddr: 0x18884, symBinAddr: 0x1C11C, symSize: 0x118 }
  - { offsetInCU: 0x4E71E, offset: 0x55560, size: 0x8, addend: 0x0, symName: __ZNSt3__16vectorIN8pybind116detail15argument_recordENS_9allocatorIS3_EEE26__swap_out_circular_bufferERNS_14__split_bufferIS3_RS5_EE, symObjAddr: 0x1D4A8, symBinAddr: 0x20D40, symSize: 0x118 }
  - { offsetInCU: 0x4E779, offset: 0x555BB, size: 0x8, addend: 0x0, symName: __ZNSt3__16vectorIN8pybind116handleENS_9allocatorIS2_EEE26__swap_out_circular_bufferERNS_14__split_bufferIS2_RS4_EE, symObjAddr: 0x204A0, symBinAddr: 0x23D38, symSize: 0x118 }
  - { offsetInCU: 0x4EE44, offset: 0x55C86, size: 0x8, addend: 0x0, symName: __ZNSt3__16vectorIN8pybind116detail13function_callENS_9allocatorIS3_EEE26__swap_out_circular_bufferERNS_14__split_bufferIS3_RS5_EE, symObjAddr: 0x26CA4, symBinAddr: 0x2A53C, symSize: 0x118 }
  - { offsetInCU: 0x4F052, offset: 0x55E94, size: 0x8, addend: 0x0, symName: __ZNSt3__16vectorIP11_typeobjectNS_9allocatorIS2_EEE26__swap_out_circular_bufferERNS_14__split_bufferIS2_RS4_EE, symObjAddr: 0x2B3CC, symBinAddr: 0x2EC64, symSize: 0x118 }
  - { offsetInCU: 0x4F0A8, offset: 0x55EEA, size: 0x8, addend: 0x0, symName: __ZNSt3__16vectorIPN8pybind116detail9type_infoENS_9allocatorIS4_EEE26__swap_out_circular_bufferERNS_14__split_bufferIS4_RS6_EE, symObjAddr: 0x2CF70, symBinAddr: 0x30808, symSize: 0x118 }
  - { offsetInCU: 0x5112E, offset: 0x57F70, size: 0x8, addend: 0x0, symName: _PyInit_mujoco_renderer, symObjAddr: 0x0, symBinAddr: 0x38A4, symSize: 0x254 }
  - { offsetInCU: 0x511AC, offset: 0x57FEE, size: 0x8, addend: 0x0, symName: __ZN8pybind117module_23create_extension_moduleEPKcS2_P11PyModuleDef, symObjAddr: 0x814, symBinAddr: 0x40B8, symSize: 0x150 }
  - { offsetInCU: 0x511FD, offset: 0x5803F, size: 0x8, addend: 0x0, symName: __ZL29pybind11_init_mujoco_rendererRN8pybind117module_E, symObjAddr: 0x964, symBinAddr: 0x4208, symSize: 0x14C }
  - { offsetInCU: 0x51226, offset: 0x58068, size: 0x8, addend: 0x0, symName: __ZN8pybind116handle3ptrEv, symObjAddr: 0xAB0, symBinAddr: 0x4354, symSize: 0x14 }
  - { offsetInCU: 0x5124B, offset: 0x5808D, size: 0x8, addend: 0x0, symName: __ZN8pybind117module_D1Ev, symObjAddr: 0xB08, symBinAddr: 0x43A0, symSize: 0x2C }
  - { offsetInCU: 0x5129B, offset: 0x580DD, size: 0x8, addend: 0x0, symName: __ZZN8pybind116detail13get_internalsEvEN24gil_scoped_acquire_localC1Ev, symObjAddr: 0xB40, symBinAddr: 0x43D8, symSize: 0x2C }
  - { offsetInCU: 0x512D8, offset: 0x5811A, size: 0x8, addend: 0x0, symName: __ZN8pybind1111error_scopeC1Ev, symObjAddr: 0xB6C, symBinAddr: 0x4404, symSize: 0x2C }
  - { offsetInCU: 0x51301, offset: 0x58143, size: 0x8, addend: 0x0, symName: __ZN8pybind113strC1EPKc, symObjAddr: 0xB98, symBinAddr: 0x4430, symSize: 0x34 }
  - { offsetInCU: 0x51339, offset: 0x5817B, size: 0x8, addend: 0x0, symName: __ZN8pybind116handleC1IP7_objectLi0EEET_, symObjAddr: 0xBCC, symBinAddr: 0x4464, symSize: 0x34 }
  - { offsetInCU: 0x51384, offset: 0x581C6, size: 0x8, addend: 0x0, symName: __ZNK8pybind116detail10object_apiINS_6handleEE8containsIRNS_3strEEEbOT_, symObjAddr: 0xC00, symBinAddr: 0x4498, symSize: 0xE4 }
  - { offsetInCU: 0x513C2, offset: 0x58204, size: 0x8, addend: 0x0, symName: __ZNK8pybind116detail10object_apiINS_6handleEEixES2_, symObjAddr: 0xD14, symBinAddr: 0x45AC, symSize: 0x8C }
  - { offsetInCU: 0x513F7, offset: 0x58239, size: 0x8, addend: 0x0, symName: __ZNK8pybind116detail8accessorINS0_17accessor_policies12generic_itemEEcvNS_6objectEEv, symObjAddr: 0xDA0, symBinAddr: 0x4638, symSize: 0x38 }
  - { offsetInCU: 0x5141C, offset: 0x5825E, size: 0x8, addend: 0x0, symName: __ZN8pybind116objectD1Ev, symObjAddr: 0xDD8, symBinAddr: 0x4670, symSize: 0x2C }
  - { offsetInCU: 0x51445, offset: 0x58287, size: 0x8, addend: 0x0, symName: __ZN8pybind116detail8accessorINS0_17accessor_policies12generic_itemEED1Ev, symObjAddr: 0xE04, symBinAddr: 0x469C, symSize: 0x2C }
  - { offsetInCU: 0x5146F, offset: 0x582B1, size: 0x8, addend: 0x0, symName: __ZN8pybind117capsuleC1INS_6detail17accessor_policies12generic_itemEEERKNS2_8accessorIT_EE, symObjAddr: 0xE30, symBinAddr: 0x46C8, symSize: 0x74 }
  - { offsetInCU: 0x514B0, offset: 0x582F2, size: 0x8, addend: 0x0, symName: __ZNK8pybind117capsulecvPT_IPNS_6detail9internalsEEEv, symObjAddr: 0xEA4, symBinAddr: 0x473C, symSize: 0x24 }
  - { offsetInCU: 0x514DE, offset: 0x58320, size: 0x8, addend: 0x0, symName: __ZN8pybind117capsuleD1Ev, symObjAddr: 0xEC8, symBinAddr: 0x4760, symSize: 0x2C }
  - { offsetInCU: 0x5150A, offset: 0x5834C, size: 0x8, addend: 0x0, symName: __ZNSt3__112forward_listIPFvSt13exception_ptrENS_9allocatorIS3_EEE10push_frontEOS3_, symObjAddr: 0xEF4, symBinAddr: 0x478C, symSize: 0x108 }
  - { offsetInCU: 0x5155E, offset: 0x583A0, size: 0x8, addend: 0x0, symName: __ZN8pybind116detail9internalsC1Ev, symObjAddr: 0x1118, symBinAddr: 0x49B0, symSize: 0x2C }
  - { offsetInCU: 0x51587, offset: 0x583C9, size: 0x8, addend: 0x0, symName: __ZN8pybind117capsuleC1EPKvPKcPFvP7_objectE, symObjAddr: 0x11E0, symBinAddr: 0x4A78, symSize: 0x44 }
  - { offsetInCU: 0x515E3, offset: 0x58425, size: 0x8, addend: 0x0, symName: __ZNO8pybind116detail8accessorINS0_17accessor_policies12generic_itemEEaSINS_7capsuleEEEvOT_, symObjAddr: 0x1224, symBinAddr: 0x4ABC, symSize: 0x54 }
  - { offsetInCU: 0x51620, offset: 0x58462, size: 0x8, addend: 0x0, symName: __ZN8pybind113strD1Ev, symObjAddr: 0x1FC8, symBinAddr: 0x5860, symSize: 0x2C }
  - { offsetInCU: 0x5164C, offset: 0x5848E, size: 0x8, addend: 0x0, symName: __ZN8pybind1111error_scopeD1Ev, symObjAddr: 0x1FF4, symBinAddr: 0x588C, symSize: 0x2C }
  - { offsetInCU: 0x51675, offset: 0x584B7, size: 0x8, addend: 0x0, symName: __ZZN8pybind116detail13get_internalsEvEN24gil_scoped_acquire_localD1Ev, symObjAddr: 0x2020, symBinAddr: 0x58B8, symSize: 0x2C }
  - { offsetInCU: 0x5169E, offset: 0x584E0, size: 0x8, addend: 0x0, symName: __ZZN8pybind116detail13get_internalsEvEN24gil_scoped_acquire_localC2Ev, symObjAddr: 0x204C, symBinAddr: 0x58E4, symSize: 0x34 }
  - { offsetInCU: 0x516C7, offset: 0x58509, size: 0x8, addend: 0x0, symName: __ZN8pybind1111error_scopeC2Ev, symObjAddr: 0x2080, symBinAddr: 0x5918, symSize: 0x3C }
  - { offsetInCU: 0x516F0, offset: 0x58532, size: 0x8, addend: 0x0, symName: __ZN8pybind113strC2EPKc, symObjAddr: 0x20BC, symBinAddr: 0x5954, symSize: 0x10C }
  - { offsetInCU: 0x51728, offset: 0x5856A, size: 0x8, addend: 0x0, symName: __ZN8pybind116objectC2ENS_6handleENS0_8stolen_tE, symObjAddr: 0x21C8, symBinAddr: 0x5A60, symSize: 0x20 }
  - { offsetInCU: 0x517D6, offset: 0x58618, size: 0x8, addend: 0x0, symName: __ZN8pybind1117error_already_setC1Ev, symObjAddr: 0x21E8, symBinAddr: 0x5A80, symSize: 0x2C }
  - { offsetInCU: 0x517FF, offset: 0x58641, size: 0x8, addend: 0x0, symName: __ZN8pybind1117error_already_setD1Ev, symObjAddr: 0x2214, symBinAddr: 0x5AAC, symSize: 0x2C }
  - { offsetInCU: 0x5182B, offset: 0x5866D, size: 0x8, addend: 0x0, symName: __ZN8pybind116objectD2Ev, symObjAddr: 0x2240, symBinAddr: 0x5AD8, symSize: 0x34 }
  - { offsetInCU: 0x51854, offset: 0x58696, size: 0x8, addend: 0x0, symName: __ZN8pybind1117error_already_setC2Ev, symObjAddr: 0x2274, symBinAddr: 0x5B0C, symSize: 0xC8 }
  - { offsetInCU: 0x5187D, offset: 0x586BF, size: 0x8, addend: 0x0, symName: __ZNSt9exceptionC2B7v160006Ev, symObjAddr: 0x233C, symBinAddr: 0x5BD4, symSize: 0x24 }
  - { offsetInCU: 0x518A6, offset: 0x586E8, size: 0x8, addend: 0x0, symName: __ZN8pybind116detail25error_fetch_and_normalizeC1EPKc, symObjAddr: 0x2360, symBinAddr: 0x5BF8, symSize: 0x34 }
  - { offsetInCU: 0x518DE, offset: 0x58720, size: 0x8, addend: 0x0, symName: __ZN8pybind1117error_already_set23m_fetched_error_deleterEPNS_6detail25error_fetch_and_normalizeE, symObjAddr: 0x2394, symBinAddr: 0x5C2C, symSize: 0x8C }
  - { offsetInCU: 0x51930, offset: 0x58772, size: 0x8, addend: 0x0, symName: __ZNSt3__110shared_ptrIN8pybind116detail25error_fetch_and_normalizeEEC1B7v160006IS3_PFvPS3_EvEEPT_T0_, symObjAddr: 0x2420, symBinAddr: 0x5CB8, symSize: 0x3C }
  - { offsetInCU: 0x5198B, offset: 0x587CD, size: 0x8, addend: 0x0, symName: __ZN8pybind1117error_already_setD0Ev, symObjAddr: 0x245C, symBinAddr: 0x5CF4, symSize: 0x30 }
  - { offsetInCU: 0x519B7, offset: 0x587F9, size: 0x8, addend: 0x0, symName: __ZNK8pybind1117error_already_set4whatEv, symObjAddr: 0x248C, symBinAddr: 0x5D24, symSize: 0x78 }
  - { offsetInCU: 0x519FD, offset: 0x5883F, size: 0x8, addend: 0x0, symName: __ZN8pybind116detail25error_fetch_and_normalizeC2EPKc, symObjAddr: 0x2504, symBinAddr: 0x5D9C, symSize: 0x5F0 }
  - { offsetInCU: 0x51A79, offset: 0x588BB, size: 0x8, addend: 0x0, symName: __ZN8pybind116objectC1Ev, symObjAddr: 0x2AF4, symBinAddr: 0x638C, symSize: 0x2C }
  - { offsetInCU: 0x51AA2, offset: 0x588E4, size: 0x8, addend: 0x0, symName: __ZNSt3__112basic_stringIcNS_11char_traitsIcEENS_9allocatorIcEEEC1B7v160006Ev, symObjAddr: 0x2B20, symBinAddr: 0x63B8, symSize: 0x2C }
  - { offsetInCU: 0x51ACB, offset: 0x5890D, size: 0x8, addend: 0x0, symName: __ZNK8pybind116handlecvbEv, symObjAddr: 0x2B4C, symBinAddr: 0x63E4, symSize: 0x24 }
  - { offsetInCU: 0x51AF5, offset: 0x58937, size: 0x8, addend: 0x0, symName: __ZNSt3__112basic_stringIcNS_11char_traitsIcEENS_9allocatorIcEEEC1B7v160006IDnEEPKc, symObjAddr: 0x2C90, symBinAddr: 0x6528, symSize: 0x34 }
  - { offsetInCU: 0x51B32, offset: 0x58974, size: 0x8, addend: 0x0, symName: __ZNSt3__112basic_stringIcNS_11char_traitsIcEENS_9allocatorIcEEEaSB7v160006EPKc, symObjAddr: 0x2D20, symBinAddr: 0x65B8, symSize: 0x2C }
  - { offsetInCU: 0x51B66, offset: 0x589A8, size: 0x8, addend: 0x0, symName: __ZNSt3__112basic_stringIcNS_11char_traitsIcEENS_9allocatorIcEEEpLB7v160006EPKc, symObjAddr: 0x2D80, symBinAddr: 0x6618, symSize: 0x2C }
  - { offsetInCU: 0x51B9A, offset: 0x589DC, size: 0x8, addend: 0x0, symName: __ZNSt3__112basic_stringIcNS_11char_traitsIcEENS_9allocatorIcEEEpLB7v160006ERKS5_, symObjAddr: 0x2DAC, symBinAddr: 0x6644, symSize: 0x2C }
  - { offsetInCU: 0x51BCE, offset: 0x58A10, size: 0x8, addend: 0x0, symName: __ZNK8pybind116detail25error_fetch_and_normalize22format_value_and_traceEv, symObjAddr: 0x2DD8, symBinAddr: 0x6670, symSize: 0x614 }
  - { offsetInCU: 0x51CF0, offset: 0x58B32, size: 0x8, addend: 0x0, symName: __ZN8pybind116objectC2Ev, symObjAddr: 0x33EC, symBinAddr: 0x6C84, symSize: 0x2C }
  - { offsetInCU: 0x51D19, offset: 0x58B5B, size: 0x8, addend: 0x0, symName: __ZN8pybind116handleC2Ev, symObjAddr: 0x3418, symBinAddr: 0x6CB0, symSize: 0x18 }
  - { offsetInCU: 0x51D42, offset: 0x58B84, size: 0x8, addend: 0x0, symName: __ZNSt3__112basic_stringIcNS_11char_traitsIcEENS_9allocatorIcEEEC2B7v160006Ev, symObjAddr: 0x3430, symBinAddr: 0x6CC8, symSize: 0x54 }
  - { offsetInCU: 0x51D71, offset: 0x58BB3, size: 0x8, addend: 0x0, symName: __ZNSt3__117__compressed_pairINS_12basic_stringIcNS_11char_traitsIcEENS_9allocatorIcEEE5__repES5_EC1B7v160006INS_18__default_init_tagESA_EEOT_OT0_, symObjAddr: 0x3484, symBinAddr: 0x6D1C, symSize: 0x3C }
  - { offsetInCU: 0x51DC8, offset: 0x58C0A, size: 0x8, addend: 0x0, symName: __ZNSt3__112basic_stringIcNS_11char_traitsIcEENS_9allocatorIcEEE14__default_initB7v160006Ev, symObjAddr: 0x34D0, symBinAddr: 0x6D68, symSize: 0x40 }
  - { offsetInCU: 0x51DED, offset: 0x58C2F, size: 0x8, addend: 0x0, symName: __ZNSt3__117__compressed_pairINS_12basic_stringIcNS_11char_traitsIcEENS_9allocatorIcEEE5__repES5_EC2B7v160006INS_18__default_init_tagESA_EEOT_OT0_, symObjAddr: 0x3510, symBinAddr: 0x6DA8, symSize: 0x3C }
  - { offsetInCU: 0x51E44, offset: 0x58C86, size: 0x8, addend: 0x0, symName: __ZNSt3__122__compressed_pair_elemINS_12basic_stringIcNS_11char_traitsIcEENS_9allocatorIcEEE5__repELi0ELb0EEC2B7v160006ENS_18__default_init_tagE, symObjAddr: 0x354C, symBinAddr: 0x6DE4, symSize: 0x14 }
  - { offsetInCU: 0x51E78, offset: 0x58CBA, size: 0x8, addend: 0x0, symName: __ZNSt3__122__compressed_pair_elemINS_9allocatorIcEELi1ELb1EEC2B7v160006ENS_18__default_init_tagE, symObjAddr: 0x3560, symBinAddr: 0x6DF8, symSize: 0x2C }
  - { offsetInCU: 0x51EAC, offset: 0x58CEE, size: 0x8, addend: 0x0, symName: __ZNSt3__19allocatorIcEC2B7v160006Ev, symObjAddr: 0x358C, symBinAddr: 0x6E24, symSize: 0x2C }
  - { offsetInCU: 0x51ED5, offset: 0x58D17, size: 0x8, addend: 0x0, symName: __ZNSt3__116__non_trivial_ifILb1ENS_9allocatorIcEEEC2B7v160006Ev, symObjAddr: 0x35B8, symBinAddr: 0x6E50, symSize: 0x14 }
  - { offsetInCU: 0x51EFE, offset: 0x58D40, size: 0x8, addend: 0x0, symName: __ZNSt3__117__compressed_pairINS_12basic_stringIcNS_11char_traitsIcEENS_9allocatorIcEEE5__repES5_E5firstB7v160006Ev, symObjAddr: 0x35CC, symBinAddr: 0x6E64, symSize: 0x24 }
  - { offsetInCU: 0x51F23, offset: 0x58D65, size: 0x8, addend: 0x0, symName: __ZNSt3__122__compressed_pair_elemINS_12basic_stringIcNS_11char_traitsIcEENS_9allocatorIcEEE5__repELi0ELb0EE5__getB7v160006Ev, symObjAddr: 0x35F0, symBinAddr: 0x6E88, symSize: 0x14 }
  - { offsetInCU: 0x51F48, offset: 0x58D8A, size: 0x8, addend: 0x0, symName: __ZNSt3__112basic_stringIcNS_11char_traitsIcEENS_9allocatorIcEEEC1B7v160006EOS5_, symObjAddr: 0x3604, symBinAddr: 0x6E9C, symSize: 0x34 }
  - { offsetInCU: 0x51F80, offset: 0x58DC2, size: 0x8, addend: 0x0, symName: __ZNSt3__112basic_stringIcNS_11char_traitsIcEENS_9allocatorIcEEEC2B7v160006EOS5_, symObjAddr: 0x3638, symBinAddr: 0x6ED0, symSize: 0x80 }
  - { offsetInCU: 0x51FB8, offset: 0x58DFA, size: 0x8, addend: 0x0, symName: __ZNKSt3__112basic_stringIcNS_11char_traitsIcEENS_9allocatorIcEEE9__is_longB7v160006Ev, symObjAddr: 0x36B8, symBinAddr: 0x6F50, symSize: 0x38 }
  - { offsetInCU: 0x51FDD, offset: 0x58E1F, size: 0x8, addend: 0x0, symName: __ZNKSt3__117__compressed_pairINS_12basic_stringIcNS_11char_traitsIcEENS_9allocatorIcEEE5__repES5_E5firstB7v160006Ev, symObjAddr: 0x3704, symBinAddr: 0x6F9C, symSize: 0x24 }
  - { offsetInCU: 0x52002, offset: 0x58E44, size: 0x8, addend: 0x0, symName: __ZNKSt3__122__compressed_pair_elemINS_12basic_stringIcNS_11char_traitsIcEENS_9allocatorIcEEE5__repELi0ELb0EE5__getB7v160006Ev, symObjAddr: 0x3728, symBinAddr: 0x6FC0, symSize: 0x14 }
  - { offsetInCU: 0x52027, offset: 0x58E69, size: 0x8, addend: 0x0, symName: __ZNSt3__112basic_stringIcNS_11char_traitsIcEENS_9allocatorIcEEEC2B7v160006IDnEEPKc, symObjAddr: 0x373C, symBinAddr: 0x6FD4, symSize: 0x60 }
  - { offsetInCU: 0x52064, offset: 0x58EA6, size: 0x8, addend: 0x0, symName: __ZNSt3__111char_traitsIcE6lengthEPKc, symObjAddr: 0x379C, symBinAddr: 0x7034, symSize: 0x34 }
  - { offsetInCU: 0x52086, offset: 0x58EC8, size: 0x8, addend: 0x0, symName: __ZL12PyType_CheckP7_object, symObjAddr: 0x37F4, symBinAddr: 0x708C, symSize: 0x2C }
  - { offsetInCU: 0x520B6, offset: 0x58EF8, size: 0x8, addend: 0x0, symName: __ZL7Py_TYPEP7_object, symObjAddr: 0x3820, symBinAddr: 0x70B8, symSize: 0x18 }
  - { offsetInCU: 0x520E3, offset: 0x58F25, size: 0x8, addend: 0x0, symName: __ZL17PyType_HasFeatureP11_typeobjectm, symObjAddr: 0x3838, symBinAddr: 0x70D0, symSize: 0x34 }
  - { offsetInCU: 0x52130, offset: 0x58F72, size: 0x8, addend: 0x0, symName: __ZNKSt3__112basic_stringIcNS_11char_traitsIcEENS_9allocatorIcEEE4sizeB7v160006Ev, symObjAddr: 0x3918, symBinAddr: 0x71B0, symSize: 0x54 }
  - { offsetInCU: 0x52155, offset: 0x58F97, size: 0x8, addend: 0x0, symName: __ZNKSt3__112basic_stringIcNS_11char_traitsIcEENS_9allocatorIcEEE15__get_long_sizeB7v160006Ev, symObjAddr: 0x396C, symBinAddr: 0x7204, symSize: 0x28 }
  - { offsetInCU: 0x5217A, offset: 0x58FBC, size: 0x8, addend: 0x0, symName: __ZNKSt3__112basic_stringIcNS_11char_traitsIcEENS_9allocatorIcEEE16__get_short_sizeB7v160006Ev, symObjAddr: 0x3994, symBinAddr: 0x722C, symSize: 0x34 }
  - { offsetInCU: 0x5219F, offset: 0x58FE1, size: 0x8, addend: 0x0, symName: __ZNSt3__112basic_stringIcNS_11char_traitsIcEENS_9allocatorIcEEE6appendB7v160006ERKS5_, symObjAddr: 0x39C8, symBinAddr: 0x7260, symSize: 0x4C }
  - { offsetInCU: 0x521D3, offset: 0x59015, size: 0x8, addend: 0x0, symName: __ZNKSt3__112basic_stringIcNS_11char_traitsIcEENS_9allocatorIcEEE4dataB7v160006Ev, symObjAddr: 0x3A14, symBinAddr: 0x72AC, symSize: 0x28 }
  - { offsetInCU: 0x521F8, offset: 0x5903A, size: 0x8, addend: 0x0, symName: __ZNKSt3__112basic_stringIcNS_11char_traitsIcEENS_9allocatorIcEEE13__get_pointerB7v160006Ev, symObjAddr: 0x3A50, symBinAddr: 0x72E8, symSize: 0x54 }
  - { offsetInCU: 0x5221D, offset: 0x5905F, size: 0x8, addend: 0x0, symName: __ZNKSt3__112basic_stringIcNS_11char_traitsIcEENS_9allocatorIcEEE18__get_long_pointerB7v160006Ev, symObjAddr: 0x3AA4, symBinAddr: 0x733C, symSize: 0x28 }
  - { offsetInCU: 0x52242, offset: 0x59084, size: 0x8, addend: 0x0, symName: __ZNKSt3__112basic_stringIcNS_11char_traitsIcEENS_9allocatorIcEEE19__get_short_pointerB7v160006Ev, symObjAddr: 0x3ACC, symBinAddr: 0x7364, symSize: 0x28 }
  - { offsetInCU: 0x52267, offset: 0x590A9, size: 0x8, addend: 0x0, symName: __ZNSt3__114pointer_traitsIPKcE10pointer_toB7v160006ERS1_, symObjAddr: 0x3AF4, symBinAddr: 0x738C, symSize: 0x14 }
  - { offsetInCU: 0x5228A, offset: 0x590CC, size: 0x8, addend: 0x0, symName: __ZNK8pybind116handle3ptrEv, symObjAddr: 0x3B48, symBinAddr: 0x73E0, symSize: 0x18 }
  - { offsetInCU: 0x522AF, offset: 0x590F1, size: 0x8, addend: 0x0, symName: __ZNSt3__112basic_stringIcNS_11char_traitsIcEENS_9allocatorIcEEEaSB7v160006EOS5_, symObjAddr: 0x3BDC, symBinAddr: 0x7474, symSize: 0x34 }
  - { offsetInCU: 0x522E3, offset: 0x59125, size: 0x8, addend: 0x0, symName: __ZNSt3__112basic_stringIcNS_11char_traitsIcEENS_9allocatorIcEEEC1B7v160006EPKcm, symObjAddr: 0x3C10, symBinAddr: 0x74A8, symSize: 0x3C }
  - { offsetInCU: 0x5232A, offset: 0x5916C, size: 0x8, addend: 0x0, symName: __ZNKSt3__112basic_stringIcNS_11char_traitsIcEENS_9allocatorIcEEE5emptyB7v160006Ev, symObjAddr: 0x3C4C, symBinAddr: 0x74E4, symSize: 0x30 }
  - { offsetInCU: 0x5234F, offset: 0x59191, size: 0x8, addend: 0x0, symName: __ZL10Py_XINCREFP7_object, symObjAddr: 0x3C7C, symBinAddr: 0x7514, symSize: 0x3C }
  - { offsetInCU: 0x5237A, offset: 0x591BC, size: 0x8, addend: 0x0, symName: __ZNK8pybind116handle4castINSt3__112basic_stringIcNS2_11char_traitsIcEENS2_9allocatorIcEEEEEET_v, symObjAddr: 0x3CB8, symBinAddr: 0x7550, symSize: 0x2C }
  - { offsetInCU: 0x523AB, offset: 0x591ED, size: 0x8, addend: 0x0, symName: __ZNSt3__112basic_stringIcNS_11char_traitsIcEENS_9allocatorIcEEEpLB7v160006Ec, symObjAddr: 0x3CE4, symBinAddr: 0x757C, symSize: 0x34 }
  - { offsetInCU: 0x523DF, offset: 0x59221, size: 0x8, addend: 0x0, symName: __ZL9Py_DECREFP7_object, symObjAddr: 0x3D18, symBinAddr: 0x75B0, symSize: 0x48 }
  - { offsetInCU: 0x5240A, offset: 0x5924C, size: 0x8, addend: 0x0, symName: __ZN8pybind116objectC1ENS_6handleENS0_8stolen_tE, symObjAddr: 0x3D60, symBinAddr: 0x75F8, symSize: 0x34 }
  - { offsetInCU: 0x5244E, offset: 0x59290, size: 0x8, addend: 0x0, symName: __ZNK8pybind116detail25error_fetch_and_normalize12error_stringEv, symObjAddr: 0x3D94, symBinAddr: 0x762C, symSize: 0xD0 }
  - { offsetInCU: 0x52473, offset: 0x592B5, size: 0x8, addend: 0x0, symName: __ZN8pybind116detail25error_fetch_and_normalizeD1Ev, symObjAddr: 0x3E64, symBinAddr: 0x76FC, symSize: 0x2C }
  - { offsetInCU: 0x5249F, offset: 0x592E1, size: 0x8, addend: 0x0, symName: __ZN8pybind116detail25error_fetch_and_normalizeD2Ev, symObjAddr: 0x3E90, symBinAddr: 0x7728, symSize: 0x50 }
  - { offsetInCU: 0x524CB, offset: 0x5930D, size: 0x8, addend: 0x0, symName: __ZNSt3__112basic_stringIcNS_11char_traitsIcEENS_9allocatorIcEEE13__move_assignB7v160006ERS5_NS_17integral_constantIbLb1EEE, symObjAddr: 0x3EE0, symBinAddr: 0x7778, symSize: 0xC8 }
  - { offsetInCU: 0x5250D, offset: 0x5934F, size: 0x8, addend: 0x0, symName: __ZNSt3__116allocator_traitsINS_9allocatorIcEEE10deallocateB7v160006ERS2_Pcm, symObjAddr: 0x3FA8, symBinAddr: 0x7840, symSize: 0x34 }
  - { offsetInCU: 0x5254F, offset: 0x59391, size: 0x8, addend: 0x0, symName: __ZNSt3__112basic_stringIcNS_11char_traitsIcEENS_9allocatorIcEEE7__allocB7v160006Ev, symObjAddr: 0x3FDC, symBinAddr: 0x7874, symSize: 0x24 }
  - { offsetInCU: 0x52574, offset: 0x593B6, size: 0x8, addend: 0x0, symName: __ZNSt3__112basic_stringIcNS_11char_traitsIcEENS_9allocatorIcEEE18__get_long_pointerB7v160006Ev, symObjAddr: 0x4000, symBinAddr: 0x7898, symSize: 0x28 }
  - { offsetInCU: 0x52599, offset: 0x593DB, size: 0x8, addend: 0x0, symName: __ZNKSt3__112basic_stringIcNS_11char_traitsIcEENS_9allocatorIcEEE14__get_long_capB7v160006Ev, symObjAddr: 0x4028, symBinAddr: 0x78C0, symSize: 0x30 }
  - { offsetInCU: 0x525BE, offset: 0x59400, size: 0x8, addend: 0x0, symName: __ZNSt3__112basic_stringIcNS_11char_traitsIcEENS_9allocatorIcEEE19__move_assign_allocB7v160006ERS5_, symObjAddr: 0x4058, symBinAddr: 0x78F0, symSize: 0x2C }
  - { offsetInCU: 0x525F2, offset: 0x59434, size: 0x8, addend: 0x0, symName: __ZNSt3__112basic_stringIcNS_11char_traitsIcEENS_9allocatorIcEEE16__set_short_sizeB7v160006Em, symObjAddr: 0x4084, symBinAddr: 0x791C, symSize: 0x78 }
  - { offsetInCU: 0x52626, offset: 0x59468, size: 0x8, addend: 0x0, symName: __ZNSt3__111char_traitsIcE6assignERcRKc, symObjAddr: 0x40FC, symBinAddr: 0x7994, symSize: 0x24 }
  - { offsetInCU: 0x52657, offset: 0x59499, size: 0x8, addend: 0x0, symName: __ZNSt3__112basic_stringIcNS_11char_traitsIcEENS_9allocatorIcEEE19__get_short_pointerB7v160006Ev, symObjAddr: 0x4120, symBinAddr: 0x79B8, symSize: 0x28 }
  - { offsetInCU: 0x5267C, offset: 0x594BE, size: 0x8, addend: 0x0, symName: __ZNSt3__19allocatorIcE10deallocateB7v160006EPcm, symObjAddr: 0x4148, symBinAddr: 0x79E0, symSize: 0x40 }
  - { offsetInCU: 0x526BD, offset: 0x594FF, size: 0x8, addend: 0x0, symName: __ZNSt3__117__compressed_pairINS_12basic_stringIcNS_11char_traitsIcEENS_9allocatorIcEEE5__repES5_E6secondB7v160006Ev, symObjAddr: 0x42B0, symBinAddr: 0x7B48, symSize: 0x24 }
  - { offsetInCU: 0x526E2, offset: 0x59524, size: 0x8, addend: 0x0, symName: __ZNSt3__122__compressed_pair_elemINS_9allocatorIcEELi1ELb1EE5__getB7v160006Ev, symObjAddr: 0x42D4, symBinAddr: 0x7B6C, symSize: 0x14 }
  - { offsetInCU: 0x52707, offset: 0x59549, size: 0x8, addend: 0x0, symName: __ZNSt3__112basic_stringIcNS_11char_traitsIcEENS_9allocatorIcEEE19__move_assign_allocB7v160006ERS5_NS_17integral_constantIbLb1EEE, symObjAddr: 0x42E8, symBinAddr: 0x7B80, symSize: 0x38 }
  - { offsetInCU: 0x52747, offset: 0x59589, size: 0x8, addend: 0x0, symName: __ZNSt3__114pointer_traitsIPcE10pointer_toB7v160006ERc, symObjAddr: 0x4320, symBinAddr: 0x7BB8, symSize: 0x14 }
  - { offsetInCU: 0x5276A, offset: 0x595AC, size: 0x8, addend: 0x0, symName: __ZNSt3__112basic_stringIcNS_11char_traitsIcEENS_9allocatorIcEEEC2B7v160006EPKcm, symObjAddr: 0x4334, symBinAddr: 0x7BCC, symSize: 0x70 }
  - { offsetInCU: 0x527B1, offset: 0x595F3, size: 0x8, addend: 0x0, symName: __ZL9Py_INCREFP7_object, symObjAddr: 0x43A4, symBinAddr: 0x7C3C, symSize: 0x20 }
  - { offsetInCU: 0x527E1, offset: 0x59623, size: 0x8, addend: 0x0, symName: __ZN8pybind116detail11type_casterINSt3__112basic_stringIcNS2_11char_traitsIcEENS2_9allocatorIcEEEEvED1Ev, symObjAddr: 0x4500, symBinAddr: 0x7D98, symSize: 0x2C }
  - { offsetInCU: 0x5280D, offset: 0x5964F, size: 0x8, addend: 0x0, symName: __ZNO8pybind116detail13string_casterINSt3__112basic_stringIcNS2_11char_traitsIcEENS2_9allocatorIcEEEELb0EEcvOS8_Ev, symObjAddr: 0x452C, symBinAddr: 0x7DC4, symSize: 0x14 }
  - { offsetInCU: 0x52832, offset: 0x59674, size: 0x8, addend: 0x0, symName: __ZN8pybind116detail11type_casterINSt3__112basic_stringIcNS2_11char_traitsIcEENS2_9allocatorIcEEEEvEC1Ev, symObjAddr: 0x4540, symBinAddr: 0x7DD8, symSize: 0x2C }
  - { offsetInCU: 0x5285E, offset: 0x596A0, size: 0x8, addend: 0x0, symName: __ZN8pybind116detail11type_casterINSt3__112basic_stringIcNS2_11char_traitsIcEENS2_9allocatorIcEEEEvEC2Ev, symObjAddr: 0x47CC, symBinAddr: 0x8064, symSize: 0x2C }
  - { offsetInCU: 0x5288A, offset: 0x596CC, size: 0x8, addend: 0x0, symName: __ZN8pybind116detail13string_casterINSt3__112basic_stringIcNS2_11char_traitsIcEENS2_9allocatorIcEEEELb0EEC2Ev, symObjAddr: 0x47F8, symBinAddr: 0x8090, symSize: 0x2C }
  - { offsetInCU: 0x528B6, offset: 0x596F8, size: 0x8, addend: 0x0, symName: __ZN8pybind116detail13string_casterINSt3__112basic_stringIcNS2_11char_traitsIcEENS2_9allocatorIcEEEELb0EE4loadENS_6handleEb, symObjAddr: 0x4824, symBinAddr: 0x80BC, symSize: 0x148 }
  - { offsetInCU: 0x52940, offset: 0x59782, size: 0x8, addend: 0x0, symName: __ZN8pybind114type9handle_ofENS_6handleE, symObjAddr: 0x49AC, symBinAddr: 0x8244, symSize: 0x40 }
  - { offsetInCU: 0x52964, offset: 0x597A6, size: 0x8, addend: 0x0, symName: __ZN8pybind113strC1ENS_6handleE, symObjAddr: 0x49EC, symBinAddr: 0x8284, symSize: 0x34 }
  - { offsetInCU: 0x5299C, offset: 0x597DE, size: 0x8, addend: 0x0, symName: __ZNK8pybind113strcvNSt3__112basic_stringIcNS1_11char_traitsIcEENS1_9allocatorIcEEEEEv, symObjAddr: 0x4A20, symBinAddr: 0x82B8, symSize: 0x1E0 }
  - { offsetInCU: 0x529EF, offset: 0x59831, size: 0x8, addend: 0x0, symName: __ZN8pybind1110cast_errorCI1St13runtime_errorERKNSt3__112basic_stringIcNS1_11char_traitsIcEENS1_9allocatorIcEEEE, symObjAddr: 0x4C34, symBinAddr: 0x84CC, symSize: 0x34 }
  - { offsetInCU: 0x52A24, offset: 0x59866, size: 0x8, addend: 0x0, symName: __ZN8pybind1110cast_errorD1Ev, symObjAddr: 0x4C68, symBinAddr: 0x8500, symSize: 0x2C }
  - { offsetInCU: 0x52A50, offset: 0x59892, size: 0x8, addend: 0x0, symName: __ZN8pybind116detail13string_casterINSt3__112basic_stringIcNS2_11char_traitsIcEENS2_9allocatorIcEEEELb0EE8load_rawIcEEbNS2_9enable_ifIXsr3std7is_sameIT_cEE5valueENS_6handleEE4typeE, symObjAddr: 0x4C94, symBinAddr: 0x852C, symSize: 0x1A8 }
  - { offsetInCU: 0x52AC7, offset: 0x59909, size: 0x8, addend: 0x0, symName: __ZL18PyObject_TypeCheckP7_objectP11_typeobject, symObjAddr: 0x4E3C, symBinAddr: 0x86D4, symSize: 0x6C }
  - { offsetInCU: 0x52B05, offset: 0x59947, size: 0x8, addend: 0x0, symName: __ZL10Py_IS_TYPEP7_objectP11_typeobject, symObjAddr: 0x4EA8, symBinAddr: 0x8740, symSize: 0x38 }
  - { offsetInCU: 0x52B41, offset: 0x59983, size: 0x8, addend: 0x0, symName: __ZN8pybind113strC2ENS_6handleE, symObjAddr: 0x4EE0, symBinAddr: 0x8778, symSize: 0xE4 }
  - { offsetInCU: 0x52B79, offset: 0x599BB, size: 0x8, addend: 0x0, symName: __ZN8pybind113str7raw_strEP7_object, symObjAddr: 0x4FC4, symBinAddr: 0x885C, symSize: 0x2C }
  - { offsetInCU: 0x52BAC, offset: 0x599EE, size: 0x8, addend: 0x0, symName: __ZN8pybind116objectC1ERKS0_, symObjAddr: 0x4FF0, symBinAddr: 0x8888, symSize: 0x34 }
  - { offsetInCU: 0x52BE4, offset: 0x59A26, size: 0x8, addend: 0x0, symName: __ZN8pybind116objectaSEOS0_, symObjAddr: 0x5024, symBinAddr: 0x88BC, symSize: 0x80 }
  - { offsetInCU: 0x52C2D, offset: 0x59A6F, size: 0x8, addend: 0x0, symName: __ZN8pybind116objectC2ERKS0_, symObjAddr: 0x50A4, symBinAddr: 0x893C, symSize: 0x3C }
  - { offsetInCU: 0x52C65, offset: 0x59AA7, size: 0x8, addend: 0x0, symName: __ZNKR8pybind116handle7inc_refEv, symObjAddr: 0x50E0, symBinAddr: 0x8978, symSize: 0x3C }
  - { offsetInCU: 0x52C8A, offset: 0x59ACC, size: 0x8, addend: 0x0, symName: __ZNKR8pybind116handle7dec_refEv, symObjAddr: 0x515C, symBinAddr: 0x89F4, symSize: 0x30 }
  - { offsetInCU: 0x52CAF, offset: 0x59AF1, size: 0x8, addend: 0x0, symName: __ZL10Py_XDECREFP7_object, symObjAddr: 0x518C, symBinAddr: 0x8A24, symSize: 0x3C }
  - { offsetInCU: 0x52CEE, offset: 0x59B30, size: 0x8, addend: 0x0, symName: __ZNKSt9type_info4nameB7v160006Ev, symObjAddr: 0x5268, symBinAddr: 0x8B00, symSize: 0x24 }
  - { offsetInCU: 0x52D33, offset: 0x59B75, size: 0x8, addend: 0x0, symName: __ZNKSt3__112basic_stringIcNS_11char_traitsIcEENS_9allocatorIcEEE5c_strB7v160006Ev, symObjAddr: 0x5390, symBinAddr: 0x8C28, symSize: 0x24 }
  - { offsetInCU: 0x52DD7, offset: 0x59C19, size: 0x8, addend: 0x0, symName: __ZNSt3__110unique_ptrIcPFvPvEEC1B7v160006ILb1EvEEPcNS_16__dependent_typeINS_27__unique_ptr_deleter_sfinaeIS3_EEXT_EE20__good_rval_ref_typeE, symObjAddr: 0x53B4, symBinAddr: 0x8C4C, symSize: 0x3C }
  - { offsetInCU: 0x52E28, offset: 0x59C6A, size: 0x8, addend: 0x0, symName: __ZNKSt3__110unique_ptrIcPFvPvEE3getB7v160006Ev, symObjAddr: 0x53F0, symBinAddr: 0x8C88, symSize: 0x28 }
  - { offsetInCU: 0x52E4D, offset: 0x59C8F, size: 0x8, addend: 0x0, symName: __ZNSt3__110unique_ptrIcPFvPvEED1B7v160006Ev, symObjAddr: 0x5498, symBinAddr: 0x8D30, symSize: 0x2C }
  - { offsetInCU: 0x52E76, offset: 0x59CB8, size: 0x8, addend: 0x0, symName: __ZNSt3__110unique_ptrIcPFvPvEEC2B7v160006ILb1EvEEPcNS_16__dependent_typeINS_27__unique_ptr_deleter_sfinaeIS3_EEXT_EE20__good_rval_ref_typeE, symObjAddr: 0x54C4, symBinAddr: 0x8D5C, symSize: 0x48 }
  - { offsetInCU: 0x52EC7, offset: 0x59D09, size: 0x8, addend: 0x0, symName: __ZNSt3__117__compressed_pairIPcPFvPvEEC1B7v160006IRS1_S4_EEOT_OT0_, symObjAddr: 0x550C, symBinAddr: 0x8DA4, symSize: 0x3C }
  - { offsetInCU: 0x52F1E, offset: 0x59D60, size: 0x8, addend: 0x0, symName: __ZNSt3__117__compressed_pairIPcPFvPvEEC2B7v160006IRS1_S4_EEOT_OT0_, symObjAddr: 0x5548, symBinAddr: 0x8DE0, symSize: 0x48 }
  - { offsetInCU: 0x52F75, offset: 0x59DB7, size: 0x8, addend: 0x0, symName: __ZNSt3__122__compressed_pair_elemIPcLi0ELb0EEC2B7v160006IRS1_vEEOT_, symObjAddr: 0x5590, symBinAddr: 0x8E28, symSize: 0x24 }
  - { offsetInCU: 0x52FB7, offset: 0x59DF9, size: 0x8, addend: 0x0, symName: __ZNSt3__122__compressed_pair_elemIPFvPvELi1ELb0EEC2B7v160006IS3_vEEOT_, symObjAddr: 0x55B4, symBinAddr: 0x8E4C, symSize: 0x24 }
  - { offsetInCU: 0x52FF9, offset: 0x59E3B, size: 0x8, addend: 0x0, symName: __ZNKSt3__117__compressed_pairIPcPFvPvEE5firstB7v160006Ev, symObjAddr: 0x55D8, symBinAddr: 0x8E70, symSize: 0x24 }
  - { offsetInCU: 0x5301E, offset: 0x59E60, size: 0x8, addend: 0x0, symName: __ZNKSt3__122__compressed_pair_elemIPcLi0ELb0EE5__getB7v160006Ev, symObjAddr: 0x55FC, symBinAddr: 0x8E94, symSize: 0x14 }
  - { offsetInCU: 0x53043, offset: 0x59E85, size: 0x8, addend: 0x0, symName: __ZNKSt3__112basic_stringIcNS_11char_traitsIcEENS_9allocatorIcEEE4findB7v160006ERKS5_m, symObjAddr: 0x5610, symBinAddr: 0x8EA8, symSize: 0x78 }
  - { offsetInCU: 0x53088, offset: 0x59ECA, size: 0x8, addend: 0x0, symName: __ZNKSt3__112basic_stringIcNS_11char_traitsIcEENS_9allocatorIcEEE6lengthB7v160006Ev, symObjAddr: 0x5688, symBinAddr: 0x8F20, symSize: 0x24 }
  - { offsetInCU: 0x530AD, offset: 0x59EEF, size: 0x8, addend: 0x0, symName: __ZNSt3__111char_traitsIcE4findEPKcmRS2_, symObjAddr: 0x58E4, symBinAddr: 0x917C, symSize: 0x70 }
  - { offsetInCU: 0x530EC, offset: 0x59F2E, size: 0x8, addend: 0x0, symName: __ZNSt3__111char_traitsIcE7compareEPKcS3_m, symObjAddr: 0x5954, symBinAddr: 0x91EC, symSize: 0x6C }
  - { offsetInCU: 0x5312B, offset: 0x59F6D, size: 0x8, addend: 0x0, symName: __ZNSt3__110unique_ptrIcPFvPvEED2B7v160006Ev, symObjAddr: 0x5A28, symBinAddr: 0x92C0, symSize: 0x30 }
  - { offsetInCU: 0x53154, offset: 0x59F96, size: 0x8, addend: 0x0, symName: __ZNSt3__110unique_ptrIcPFvPvEE5resetB7v160006EPc, symObjAddr: 0x5A58, symBinAddr: 0x92F0, symSize: 0x84 }
  - { offsetInCU: 0x53197, offset: 0x59FD9, size: 0x8, addend: 0x0, symName: __ZNSt3__117__compressed_pairIPcPFvPvEE5firstB7v160006Ev, symObjAddr: 0x5ADC, symBinAddr: 0x9374, symSize: 0x24 }
  - { offsetInCU: 0x531BC, offset: 0x59FFE, size: 0x8, addend: 0x0, symName: __ZNSt3__117__compressed_pairIPcPFvPvEE6secondB7v160006Ev, symObjAddr: 0x5B00, symBinAddr: 0x9398, symSize: 0x28 }
  - { offsetInCU: 0x531E1, offset: 0x5A023, size: 0x8, addend: 0x0, symName: __ZNSt3__122__compressed_pair_elemIPcLi0ELb0EE5__getB7v160006Ev, symObjAddr: 0x5B28, symBinAddr: 0x93C0, symSize: 0x14 }
  - { offsetInCU: 0x53206, offset: 0x5A048, size: 0x8, addend: 0x0, symName: __ZNSt3__122__compressed_pair_elemIPFvPvELi1ELb0EE5__getB7v160006Ev, symObjAddr: 0x5B3C, symBinAddr: 0x93D4, symSize: 0x14 }
  - { offsetInCU: 0x5322B, offset: 0x5A06D, size: 0x8, addend: 0x0, symName: __ZN8pybind1110cast_errorCI2St13runtime_errorERKNSt3__112basic_stringIcNS1_11char_traitsIcEENS1_9allocatorIcEEEE, symObjAddr: 0x5B50, symBinAddr: 0x93E8, symSize: 0x4C }
  - { offsetInCU: 0x53265, offset: 0x5A0A7, size: 0x8, addend: 0x0, symName: __ZN8pybind1117builtin_exceptionCI2St13runtime_errorERKNSt3__112basic_stringIcNS1_11char_traitsIcEENS1_9allocatorIcEEEE, symObjAddr: 0x5B9C, symBinAddr: 0x9434, symSize: 0x4C }
  - { offsetInCU: 0x5329A, offset: 0x5A0DC, size: 0x8, addend: 0x0, symName: __ZN8pybind1110cast_errorD0Ev, symObjAddr: 0x5BE8, symBinAddr: 0x9480, symSize: 0x30 }
  - { offsetInCU: 0x532C6, offset: 0x5A108, size: 0x8, addend: 0x0, symName: __ZNK8pybind1110cast_error9set_errorEv, symObjAddr: 0x5C18, symBinAddr: 0x94B0, symSize: 0x48 }
  - { offsetInCU: 0x532EB, offset: 0x5A12D, size: 0x8, addend: 0x0, symName: __ZN8pybind1117builtin_exceptionD1Ev, symObjAddr: 0x5C60, symBinAddr: 0x94F8, symSize: 0x14 }
  - { offsetInCU: 0x53317, offset: 0x5A159, size: 0x8, addend: 0x0, symName: __ZN8pybind1117builtin_exceptionD0Ev, symObjAddr: 0x5C74, symBinAddr: 0x950C, symSize: 0xC }
  - { offsetInCU: 0x53343, offset: 0x5A185, size: 0x8, addend: 0x0, symName: __ZN8pybind1110cast_errorD2Ev, symObjAddr: 0x5C80, symBinAddr: 0x9518, symSize: 0x2C }
  - { offsetInCU: 0x5336F, offset: 0x5A1B1, size: 0x8, addend: 0x0, symName: __ZN8pybind1117builtin_exceptionD2Ev, symObjAddr: 0x5CAC, symBinAddr: 0x9544, symSize: 0x2C }
  - { offsetInCU: 0x5339B, offset: 0x5A1DD, size: 0x8, addend: 0x0, symName: __ZN8pybind116detail11type_casterINSt3__112basic_stringIcNS2_11char_traitsIcEENS2_9allocatorIcEEEEvED2Ev, symObjAddr: 0x5CD8, symBinAddr: 0x9570, symSize: 0x2C }
  - { offsetInCU: 0x533C7, offset: 0x5A209, size: 0x8, addend: 0x0, symName: __ZN8pybind116detail13string_casterINSt3__112basic_stringIcNS2_11char_traitsIcEENS2_9allocatorIcEEEELb0EED2Ev, symObjAddr: 0x5D04, symBinAddr: 0x959C, symSize: 0x2C }
  - { offsetInCU: 0x53407, offset: 0x5A249, size: 0x8, addend: 0x0, symName: __ZN8pybind1118gil_scoped_acquireC1Ev, symObjAddr: 0x5D30, symBinAddr: 0x95C8, symSize: 0x2C }
  - { offsetInCU: 0x53430, offset: 0x5A272, size: 0x8, addend: 0x0, symName: __ZN8pybind1118gil_scoped_acquireD1Ev, symObjAddr: 0x5D5C, symBinAddr: 0x95F4, symSize: 0x2C }
  - { offsetInCU: 0x53459, offset: 0x5A29B, size: 0x8, addend: 0x0, symName: __ZN8pybind1118gil_scoped_acquireC2Ev, symObjAddr: 0x5D88, symBinAddr: 0x9620, symSize: 0x134 }
  - { offsetInCU: 0x5349E, offset: 0x5A2E0, size: 0x8, addend: 0x0, symName: __ZN8pybind1118gil_scoped_acquire7inc_refEv, symObjAddr: 0x5ED0, symBinAddr: 0x9768, symSize: 0x24 }
  - { offsetInCU: 0x534C3, offset: 0x5A305, size: 0x8, addend: 0x0, symName: __ZN8pybind1118gil_scoped_acquireD2Ev, symObjAddr: 0x5EF4, symBinAddr: 0x978C, symSize: 0x58 }
  - { offsetInCU: 0x534EC, offset: 0x5A32E, size: 0x8, addend: 0x0, symName: __ZN8pybind1118gil_scoped_acquire7dec_refEv, symObjAddr: 0x5F4C, symBinAddr: 0x97E4, symSize: 0xFC }
  - { offsetInCU: 0x53511, offset: 0x5A353, size: 0x8, addend: 0x0, symName: __ZNSt3__110shared_ptrIN8pybind116detail25error_fetch_and_normalizeEEC2B7v160006IS3_PFvPS3_EvEEPT_T0_, symObjAddr: 0x6048, symBinAddr: 0x98E0, symSize: 0x110 }
  - { offsetInCU: 0x53585, offset: 0x5A3C7, size: 0x8, addend: 0x0, symName: __ZNSt3__19allocatorIN8pybind116detail25error_fetch_and_normalizeEEC1B7v160006Ev, symObjAddr: 0x6158, symBinAddr: 0x99F0, symSize: 0x2C }
  - { offsetInCU: 0x5366C, offset: 0x5A4AE, size: 0x8, addend: 0x0, symName: __ZNSt3__120__shared_ptr_pointerIPN8pybind116detail25error_fetch_and_normalizeEPFvS4_ENS_9allocatorIS3_EEEC1B7v160006ES4_S6_S8_, symObjAddr: 0x6184, symBinAddr: 0x9A1C, symSize: 0x3C }
  - { offsetInCU: 0x536BF, offset: 0x5A501, size: 0x8, addend: 0x0, symName: __ZNSt3__110shared_ptrIN8pybind116detail25error_fetch_and_normalizeEE18__enable_weak_thisB7v160006Ez, symObjAddr: 0x61C0, symBinAddr: 0x9A58, symSize: 0x10 }
  - { offsetInCU: 0x536E5, offset: 0x5A527, size: 0x8, addend: 0x0, symName: __ZNSt3__19allocatorIN8pybind116detail25error_fetch_and_normalizeEEC2B7v160006Ev, symObjAddr: 0x61D0, symBinAddr: 0x9A68, symSize: 0x2C }
  - { offsetInCU: 0x5370E, offset: 0x5A550, size: 0x8, addend: 0x0, symName: __ZNSt3__116__non_trivial_ifILb1ENS_9allocatorIN8pybind116detail25error_fetch_and_normalizeEEEEC2B7v160006Ev, symObjAddr: 0x61FC, symBinAddr: 0x9A94, symSize: 0x14 }
  - { offsetInCU: 0x53737, offset: 0x5A579, size: 0x8, addend: 0x0, symName: __ZNSt3__120__shared_ptr_pointerIPN8pybind116detail25error_fetch_and_normalizeEPFvS4_ENS_9allocatorIS3_EEEC2B7v160006ES4_S6_S8_, symObjAddr: 0x6210, symBinAddr: 0x9AA8, symSize: 0xB4 }
  - { offsetInCU: 0x5378A, offset: 0x5A5CC, size: 0x8, addend: 0x0, symName: __ZNSt3__119__shared_weak_countC2B7v160006El, symObjAddr: 0x62C4, symBinAddr: 0x9B5C, symSize: 0x54 }
  - { offsetInCU: 0x537C7, offset: 0x5A609, size: 0x8, addend: 0x0, symName: __ZNSt3__117__compressed_pairIPN8pybind116detail25error_fetch_and_normalizeEPFvS4_EEC1B7v160006IRS4_S6_EEOT_OT0_, symObjAddr: 0x6318, symBinAddr: 0x9BB0, symSize: 0x3C }
  - { offsetInCU: 0x5382A, offset: 0x5A66C, size: 0x8, addend: 0x0, symName: __ZNSt3__117__compressed_pairINS0_IPN8pybind116detail25error_fetch_and_normalizeEPFvS4_EEENS_9allocatorIS3_EEEC1B7v160006IS7_S9_EEOT_OT0_, symObjAddr: 0x6354, symBinAddr: 0x9BEC, symSize: 0x3C }
  - { offsetInCU: 0x53881, offset: 0x5A6C3, size: 0x8, addend: 0x0, symName: __ZNSt3__120__shared_ptr_pointerIPN8pybind116detail25error_fetch_and_normalizeEPFvS4_ENS_9allocatorIS3_EEED1Ev, symObjAddr: 0x6390, symBinAddr: 0x9C28, symSize: 0x2C }
  - { offsetInCU: 0x538AB, offset: 0x5A6ED, size: 0x8, addend: 0x0, symName: __ZNSt3__120__shared_ptr_pointerIPN8pybind116detail25error_fetch_and_normalizeEPFvS4_ENS_9allocatorIS3_EEED0Ev, symObjAddr: 0x63BC, symBinAddr: 0x9C54, symSize: 0x30 }
  - { offsetInCU: 0x538D5, offset: 0x5A717, size: 0x8, addend: 0x0, symName: __ZNSt3__120__shared_ptr_pointerIPN8pybind116detail25error_fetch_and_normalizeEPFvS4_ENS_9allocatorIS3_EEE16__on_zero_sharedEv, symObjAddr: 0x63EC, symBinAddr: 0x9C84, symSize: 0x6C }
  - { offsetInCU: 0x538FB, offset: 0x5A73D, size: 0x8, addend: 0x0, symName: __ZNKSt3__120__shared_ptr_pointerIPN8pybind116detail25error_fetch_and_normalizeEPFvS4_ENS_9allocatorIS3_EEE13__get_deleterERKSt9type_info, symObjAddr: 0x6458, symBinAddr: 0x9CF0, symSize: 0x68 }
  - { offsetInCU: 0x5392F, offset: 0x5A771, size: 0x8, addend: 0x0, symName: __ZNSt3__120__shared_ptr_pointerIPN8pybind116detail25error_fetch_and_normalizeEPFvS4_ENS_9allocatorIS3_EEE21__on_zero_shared_weakEv, symObjAddr: 0x64C0, symBinAddr: 0x9D58, symSize: 0x60 }
  - { offsetInCU: 0x5396F, offset: 0x5A7B1, size: 0x8, addend: 0x0, symName: __ZNSt3__114__shared_countC2B7v160006El, symObjAddr: 0x6520, symBinAddr: 0x9DB8, symSize: 0x30 }
  - { offsetInCU: 0x539A6, offset: 0x5A7E8, size: 0x8, addend: 0x0, symName: __ZNSt3__117__compressed_pairIPN8pybind116detail25error_fetch_and_normalizeEPFvS4_EEC2B7v160006IRS4_S6_EEOT_OT0_, symObjAddr: 0x6550, symBinAddr: 0x9DE8, symSize: 0x48 }
  - { offsetInCU: 0x539FD, offset: 0x5A83F, size: 0x8, addend: 0x0, symName: __ZNSt3__122__compressed_pair_elemIPN8pybind116detail25error_fetch_and_normalizeELi0ELb0EEC2B7v160006IRS4_vEEOT_, symObjAddr: 0x6598, symBinAddr: 0x9E30, symSize: 0x24 }
  - { offsetInCU: 0x53A3F, offset: 0x5A881, size: 0x8, addend: 0x0, symName: __ZNSt3__122__compressed_pair_elemIPFvPN8pybind116detail25error_fetch_and_normalizeEELi1ELb0EEC2B7v160006IS6_vEEOT_, symObjAddr: 0x65BC, symBinAddr: 0x9E54, symSize: 0x24 }
  - { offsetInCU: 0x53A81, offset: 0x5A8C3, size: 0x8, addend: 0x0, symName: __ZNSt3__117__compressed_pairINS0_IPN8pybind116detail25error_fetch_and_normalizeEPFvS4_EEENS_9allocatorIS3_EEEC2B7v160006IS7_S9_EEOT_OT0_, symObjAddr: 0x65E0, symBinAddr: 0x9E78, symSize: 0x44 }
  - { offsetInCU: 0x53AD8, offset: 0x5A91A, size: 0x8, addend: 0x0, symName: __ZNSt3__122__compressed_pair_elemINS_17__compressed_pairIPN8pybind116detail25error_fetch_and_normalizeEPFvS5_EEELi0ELb0EEC2B7v160006IS8_vEEOT_, symObjAddr: 0x6624, symBinAddr: 0x9EBC, symSize: 0x24 }
  - { offsetInCU: 0x53B1A, offset: 0x5A95C, size: 0x8, addend: 0x0, symName: __ZNSt3__122__compressed_pair_elemINS_9allocatorIN8pybind116detail25error_fetch_and_normalizeEEELi1ELb1EEC2B7v160006IS5_vEEOT_, symObjAddr: 0x6648, symBinAddr: 0x9EE0, symSize: 0x18 }
  - { offsetInCU: 0x53B5C, offset: 0x5A99E, size: 0x8, addend: 0x0, symName: __ZNSt3__120__shared_ptr_pointerIPN8pybind116detail25error_fetch_and_normalizeEPFvS4_ENS_9allocatorIS3_EEED2Ev, symObjAddr: 0x6660, symBinAddr: 0x9EF8, symSize: 0x2C }
  - { offsetInCU: 0x53B86, offset: 0x5A9C8, size: 0x8, addend: 0x0, symName: __ZNSt3__117__compressed_pairINS0_IPN8pybind116detail25error_fetch_and_normalizeEPFvS4_EEENS_9allocatorIS3_EEE5firstB7v160006Ev, symObjAddr: 0x668C, symBinAddr: 0x9F24, symSize: 0x24 }
  - { offsetInCU: 0x53BAB, offset: 0x5A9ED, size: 0x8, addend: 0x0, symName: __ZNSt3__117__compressed_pairIPN8pybind116detail25error_fetch_and_normalizeEPFvS4_EE6secondB7v160006Ev, symObjAddr: 0x66B0, symBinAddr: 0x9F48, symSize: 0x28 }
  - { offsetInCU: 0x53BD0, offset: 0x5AA12, size: 0x8, addend: 0x0, symName: __ZNSt3__117__compressed_pairIPN8pybind116detail25error_fetch_and_normalizeEPFvS4_EE5firstB7v160006Ev, symObjAddr: 0x66D8, symBinAddr: 0x9F70, symSize: 0x24 }
  - { offsetInCU: 0x53BF5, offset: 0x5AA37, size: 0x8, addend: 0x0, symName: __ZNSt3__122__compressed_pair_elemINS_17__compressed_pairIPN8pybind116detail25error_fetch_and_normalizeEPFvS5_EEELi0ELb0EE5__getB7v160006Ev, symObjAddr: 0x66FC, symBinAddr: 0x9F94, symSize: 0x14 }
  - { offsetInCU: 0x53C1A, offset: 0x5AA5C, size: 0x8, addend: 0x0, symName: __ZNSt3__122__compressed_pair_elemIPFvPN8pybind116detail25error_fetch_and_normalizeEELi1ELb0EE5__getB7v160006Ev, symObjAddr: 0x6710, symBinAddr: 0x9FA8, symSize: 0x14 }
  - { offsetInCU: 0x53C3F, offset: 0x5AA81, size: 0x8, addend: 0x0, symName: __ZNSt3__122__compressed_pair_elemIPN8pybind116detail25error_fetch_and_normalizeELi0ELb0EE5__getB7v160006Ev, symObjAddr: 0x6724, symBinAddr: 0x9FBC, symSize: 0x14 }
  - { offsetInCU: 0x53C86, offset: 0x5AAC8, size: 0x8, addend: 0x0, symName: __ZNKSt9type_infoeqB7v160006ERKS_, symObjAddr: 0x6738, symBinAddr: 0x9FD0, symSize: 0xDC }
  - { offsetInCU: 0x53D23, offset: 0x5AB65, size: 0x8, addend: 0x0, symName: __ZNKSt3__117__compressed_pairINS0_IPN8pybind116detail25error_fetch_and_normalizeEPFvS4_EEENS_9allocatorIS3_EEE5firstB7v160006Ev, symObjAddr: 0x6814, symBinAddr: 0xA0AC, symSize: 0x24 }
  - { offsetInCU: 0x53D48, offset: 0x5AB8A, size: 0x8, addend: 0x0, symName: __ZNKSt3__117__compressed_pairIPN8pybind116detail25error_fetch_and_normalizeEPFvS4_EE6secondB7v160006Ev, symObjAddr: 0x6838, symBinAddr: 0xA0D0, symSize: 0x28 }
  - { offsetInCU: 0x53D6D, offset: 0x5ABAF, size: 0x8, addend: 0x0, symName: __ZNSt27__type_info_implementations30__non_unique_arm_rtti_bit_impl21__is_type_name_uniqueB7v160006Em, symObjAddr: 0x6860, symBinAddr: 0xA0F8, symSize: 0x20 }
  - { offsetInCU: 0x53D91, offset: 0x5ABD3, size: 0x8, addend: 0x0, symName: __ZNKSt3__122__compressed_pair_elemINS_17__compressed_pairIPN8pybind116detail25error_fetch_and_normalizeEPFvS5_EEELi0ELb0EE5__getB7v160006Ev, symObjAddr: 0x6880, symBinAddr: 0xA118, symSize: 0x14 }
  - { offsetInCU: 0x53DB6, offset: 0x5ABF8, size: 0x8, addend: 0x0, symName: __ZNKSt3__122__compressed_pair_elemIPFvPN8pybind116detail25error_fetch_and_normalizeEELi1ELb0EE5__getB7v160006Ev, symObjAddr: 0x6894, symBinAddr: 0xA12C, symSize: 0x14 }
  - { offsetInCU: 0x53DDB, offset: 0x5AC1D, size: 0x8, addend: 0x0, symName: __ZNSt3__117__compressed_pairINS0_IPN8pybind116detail25error_fetch_and_normalizeEPFvS4_EEENS_9allocatorIS3_EEE6secondB7v160006Ev, symObjAddr: 0x68A8, symBinAddr: 0xA140, symSize: 0x24 }
  - { offsetInCU: 0x53E28, offset: 0x5AC6A, size: 0x8, addend: 0x0, symName: __ZNSt3__19allocatorINS_20__shared_ptr_pointerIPN8pybind116detail25error_fetch_and_normalizeEPFvS5_ENS0_IS4_EEEEEC1B7v160006IS4_EERKNS0_IT_EE, symObjAddr: 0x68CC, symBinAddr: 0xA164, symSize: 0x34 }
  - { offsetInCU: 0x53E65, offset: 0x5ACA7, size: 0x8, addend: 0x0, symName: __ZNSt3__19allocatorINS_20__shared_ptr_pointerIPN8pybind116detail25error_fetch_and_normalizeEPFvS5_ENS0_IS4_EEEEE10deallocateB7v160006EPS9_m, symObjAddr: 0x6900, symBinAddr: 0xA198, symSize: 0x44 }
  - { offsetInCU: 0x53EA6, offset: 0x5ACE8, size: 0x8, addend: 0x0, symName: __ZNSt3__114pointer_traitsIPNS_20__shared_ptr_pointerIPN8pybind116detail25error_fetch_and_normalizeEPFvS5_ENS_9allocatorIS4_EEEEE10pointer_toB7v160006ERSA_, symObjAddr: 0x6944, symBinAddr: 0xA1DC, symSize: 0x14 }
  - { offsetInCU: 0x53EC9, offset: 0x5AD0B, size: 0x8, addend: 0x0, symName: __ZNSt3__122__compressed_pair_elemINS_9allocatorIN8pybind116detail25error_fetch_and_normalizeEEELi1ELb1EE5__getB7v160006Ev, symObjAddr: 0x6958, symBinAddr: 0xA1F0, symSize: 0x14 }
  - { offsetInCU: 0x53EEE, offset: 0x5AD30, size: 0x8, addend: 0x0, symName: __ZNSt3__19allocatorINS_20__shared_ptr_pointerIPN8pybind116detail25error_fetch_and_normalizeEPFvS5_ENS0_IS4_EEEEEC2B7v160006IS4_EERKNS0_IT_EE, symObjAddr: 0x696C, symBinAddr: 0xA204, symSize: 0x30 }
  - { offsetInCU: 0x53F2B, offset: 0x5AD6D, size: 0x8, addend: 0x0, symName: __ZNSt3__116__non_trivial_ifILb1ENS_9allocatorINS_20__shared_ptr_pointerIPN8pybind116detail25error_fetch_and_normalizeEPFvS6_ENS1_IS5_EEEEEEEC2B7v160006Ev, symObjAddr: 0x699C, symBinAddr: 0xA234, symSize: 0x14 }
  - { offsetInCU: 0x53F54, offset: 0x5AD96, size: 0x8, addend: 0x0, symName: __ZNKSt3__110shared_ptrIN8pybind116detail25error_fetch_and_normalizeEEptB7v160006Ev, symObjAddr: 0x69B0, symBinAddr: 0xA248, symSize: 0x18 }
  - { offsetInCU: 0x53F79, offset: 0x5ADBB, size: 0x8, addend: 0x0, symName: __ZN8pybind1117error_already_setD2Ev, symObjAddr: 0x69C8, symBinAddr: 0xA260, symSize: 0x48 }
  - { offsetInCU: 0x53FA5, offset: 0x5ADE7, size: 0x8, addend: 0x0, symName: __ZNSt3__110shared_ptrIN8pybind116detail25error_fetch_and_normalizeEED1B7v160006Ev, symObjAddr: 0x6A10, symBinAddr: 0xA2A8, symSize: 0x2C }
  - { offsetInCU: 0x53FCE, offset: 0x5AE10, size: 0x8, addend: 0x0, symName: __ZNSt3__110shared_ptrIN8pybind116detail25error_fetch_and_normalizeEED2B7v160006Ev, symObjAddr: 0x6A3C, symBinAddr: 0xA2D4, symSize: 0x54 }
  - { offsetInCU: 0x53FF7, offset: 0x5AE39, size: 0x8, addend: 0x0, symName: __ZNSt3__119__shared_weak_count16__release_sharedB7v160006Ev, symObjAddr: 0x6A90, symBinAddr: 0xA328, symSize: 0x3C }
  - { offsetInCU: 0x5401C, offset: 0x5AE5E, size: 0x8, addend: 0x0, symName: __ZNSt3__114__shared_count16__release_sharedB7v160006Ev, symObjAddr: 0x6ACC, symBinAddr: 0xA364, symSize: 0x7C }
  - { offsetInCU: 0x54041, offset: 0x5AE83, size: 0x8, addend: 0x0, symName: __ZN8pybind116handleC2IP7_objectLi0EEET_, symObjAddr: 0x6B78, symBinAddr: 0xA410, symSize: 0x20 }
  - { offsetInCU: 0x54087, offset: 0x5AEC9, size: 0x8, addend: 0x0, symName: __ZNK8pybind116detail10object_apiINS_6handleEE4attrEPKc, symObjAddr: 0x6B98, symBinAddr: 0xA430, symSize: 0x4C }
  - { offsetInCU: 0x540BC, offset: 0x5AEFE, size: 0x8, addend: 0x0, symName: __ZNK8pybind116detail10object_apiINS0_8accessorINS0_17accessor_policies8str_attrEEEEclILNS_19return_value_policyE1EJRNS_3strEEEENS_6objectEDpOT0_, symObjAddr: 0x6BE4, symBinAddr: 0xA47C, symSize: 0xB8 }
  - { offsetInCU: 0x54107, offset: 0x5AF49, size: 0x8, addend: 0x0, symName: __ZNO8pybind116object4castIbEET_v, symObjAddr: 0x6C9C, symBinAddr: 0xA534, symSize: 0x28 }
  - { offsetInCU: 0x54135, offset: 0x5AF77, size: 0x8, addend: 0x0, symName: __ZN8pybind116detail8accessorINS0_17accessor_policies8str_attrEED1Ev, symObjAddr: 0x6CC4, symBinAddr: 0xA55C, symSize: 0x2C }
  - { offsetInCU: 0x5415F, offset: 0x5AFA1, size: 0x8, addend: 0x0, symName: __ZNK8pybind116detail10object_apiINS_6handleEE7derivedEv, symObjAddr: 0x6CF0, symBinAddr: 0xA588, symSize: 0x14 }
  - { offsetInCU: 0x54184, offset: 0x5AFC6, size: 0x8, addend: 0x0, symName: __ZN8pybind116detail8accessorINS0_17accessor_policies8str_attrEEC1ENS_6handleEPKc, symObjAddr: 0x6D04, symBinAddr: 0xA59C, symSize: 0x3C }
  - { offsetInCU: 0x541CB, offset: 0x5B00D, size: 0x8, addend: 0x0, symName: __ZN8pybind116detail8accessorINS0_17accessor_policies8str_attrEEC2ENS_6handleEPKc, symObjAddr: 0x6D40, symBinAddr: 0xA5D8, symSize: 0x48 }
  - { offsetInCU: 0x54212, offset: 0x5B054, size: 0x8, addend: 0x0, symName: __ZNK8pybind116detail16simple_collectorILNS_19return_value_policyE1EE4callEP7_object, symObjAddr: 0x6DC0, symBinAddr: 0xA658, symSize: 0xC4 }
  - { offsetInCU: 0x54255, offset: 0x5B097, size: 0x8, addend: 0x0, symName: __ZNK8pybind116detail10object_apiINS0_8accessorINS0_17accessor_policies8str_attrEEEE7derivedEv, symObjAddr: 0x6E84, symBinAddr: 0xA71C, symSize: 0x14 }
  - { offsetInCU: 0x5427A, offset: 0x5B0BC, size: 0x8, addend: 0x0, symName: __ZNK8pybind116detail8accessorINS0_17accessor_policies8str_attrEE3ptrEv, symObjAddr: 0x6E98, symBinAddr: 0xA730, symSize: 0x2C }
  - { offsetInCU: 0x5429F, offset: 0x5B0E1, size: 0x8, addend: 0x0, symName: __ZN8pybind116detail16simple_collectorILNS_19return_value_policyE1EED1Ev, symObjAddr: 0x6EC4, symBinAddr: 0xA75C, symSize: 0x2C }
  - { offsetInCU: 0x542CB, offset: 0x5B10D, size: 0x8, addend: 0x0, symName: __ZN8pybind116detail16simple_collectorILNS_19return_value_policyE1EEC1IJRNS_3strEEEEDpOT_, symObjAddr: 0x6EF0, symBinAddr: 0xA788, symSize: 0x34 }
  - { offsetInCU: 0x5430E, offset: 0x5B150, size: 0x8, addend: 0x0, symName: __ZN8pybind116detail16simple_collectorILNS_19return_value_policyE1EEC2IJRNS_3strEEEEDpOT_, symObjAddr: 0x6F24, symBinAddr: 0xA7BC, symSize: 0x34 }
  - { offsetInCU: 0x5436B, offset: 0x5B1AD, size: 0x8, addend: 0x0, symName: __ZN8pybind116detail15pyobject_casterINS_3strEE4castERKNS_6handleENS_19return_value_policyES4_, symObjAddr: 0x7318, symBinAddr: 0xABB0, symSize: 0x38 }
  - { offsetInCU: 0x543A7, offset: 0x5B1E9, size: 0x8, addend: 0x0, symName: __ZN8pybind116handleC1IDnLi0EEET_, symObjAddr: 0x7350, symBinAddr: 0xABE8, symSize: 0x34 }
  - { offsetInCU: 0x543ED, offset: 0x5B22F, size: 0x8, addend: 0x0, symName: __ZNKSt3__15arrayIN8pybind116objectELm1EE4sizeB7v160006Ev, symObjAddr: 0x7384, symBinAddr: 0xAC1C, symSize: 0x14 }
  - { offsetInCU: 0x54412, offset: 0x5B254, size: 0x8, addend: 0x0, symName: __ZNSt3__15arrayIN8pybind116objectELm1EEixB7v160006Em, symObjAddr: 0x7398, symBinAddr: 0xAC30, symSize: 0x20 }
  - { offsetInCU: 0x5447E, offset: 0x5B2C0, size: 0x8, addend: 0x0, symName: __ZNSt3__15arrayINS_12basic_stringIcNS_11char_traitsIcEENS_9allocatorIcEEEELm1EEixB7v160006Em, symObjAddr: 0x7514, symBinAddr: 0xADAC, symSize: 0x28 }
  - { offsetInCU: 0x544B1, offset: 0x5B2F3, size: 0x8, addend: 0x0, symName: __ZNSt3__15arrayINS_12basic_stringIcNS_11char_traitsIcEENS_9allocatorIcEEEELm1EED1Ev, symObjAddr: 0x753C, symBinAddr: 0xADD4, symSize: 0x2C }
  - { offsetInCU: 0x544DB, offset: 0x5B31D, size: 0x8, addend: 0x0, symName: __ZN8pybind115tupleC1ImLi0EEET_, symObjAddr: 0x7568, symBinAddr: 0xAE00, symSize: 0x34 }
  - { offsetInCU: 0x54522, offset: 0x5B364, size: 0x8, addend: 0x0, symName: __ZNSt3__15arrayIN8pybind116objectELm1EE5beginB7v160006Ev, symObjAddr: 0x759C, symBinAddr: 0xAE34, symSize: 0x24 }
  - { offsetInCU: 0x54547, offset: 0x5B389, size: 0x8, addend: 0x0, symName: __ZNSt3__15arrayIN8pybind116objectELm1EE3endB7v160006Ev, symObjAddr: 0x75C0, symBinAddr: 0xAE58, symSize: 0x28 }
  - { offsetInCU: 0x5456C, offset: 0x5B3AE, size: 0x8, addend: 0x0, symName: __ZL16PyTuple_SET_ITEMP7_objectlS0_, symObjAddr: 0x75E8, symBinAddr: 0xAE80, symSize: 0x84 }
  - { offsetInCU: 0x545BF, offset: 0x5B401, size: 0x8, addend: 0x0, symName: __ZN8pybind116object7releaseEv, symObjAddr: 0x766C, symBinAddr: 0xAF04, symSize: 0x3C }
  - { offsetInCU: 0x545F3, offset: 0x5B435, size: 0x8, addend: 0x0, symName: __ZN8pybind115tupleD1Ev, symObjAddr: 0x76A8, symBinAddr: 0xAF40, symSize: 0x2C }
  - { offsetInCU: 0x5461F, offset: 0x5B461, size: 0x8, addend: 0x0, symName: __ZNSt3__15arrayIN8pybind116objectELm1EED1Ev, symObjAddr: 0x76D4, symBinAddr: 0xAF6C, symSize: 0x2C }
  - { offsetInCU: 0x54649, offset: 0x5B48B, size: 0x8, addend: 0x0, symName: __ZN8pybind116handleC2IDnLi0EEET_, symObjAddr: 0x7700, symBinAddr: 0xAF98, symSize: 0x1C }
  - { offsetInCU: 0x5468F, offset: 0x5B4D1, size: 0x8, addend: 0x0, symName: __ZNSt3__15arrayINS_12basic_stringIcNS_11char_traitsIcEENS_9allocatorIcEEEELm1EED2Ev, symObjAddr: 0x775C, symBinAddr: 0xAFF4, symSize: 0x64 }
  - { offsetInCU: 0x546B9, offset: 0x5B4FB, size: 0x8, addend: 0x0, symName: __ZN8pybind115tupleC2ImLi0EEET_, symObjAddr: 0x77C0, symBinAddr: 0xB058, symSize: 0xA0 }
  - { offsetInCU: 0x54700, offset: 0x5B542, size: 0x8, addend: 0x0, symName: __ZNSt3__15arrayIN8pybind116objectELm1EE4dataB7v160006Ev, symObjAddr: 0x7878, symBinAddr: 0xB110, symSize: 0x14 }
  - { offsetInCU: 0x54725, offset: 0x5B567, size: 0x8, addend: 0x0, symName: __ZN8pybind115tupleD2Ev, symObjAddr: 0x788C, symBinAddr: 0xB124, symSize: 0x2C }
  - { offsetInCU: 0x54751, offset: 0x5B593, size: 0x8, addend: 0x0, symName: __ZNSt3__15arrayIN8pybind116objectELm1EED2Ev, symObjAddr: 0x78B8, symBinAddr: 0xB150, symSize: 0x64 }
  - { offsetInCU: 0x5477B, offset: 0x5B5BD, size: 0x8, addend: 0x0, symName: __ZNK8pybind116detail8accessorINS0_17accessor_policies8str_attrEE9get_cacheEv, symObjAddr: 0x791C, symBinAddr: 0xB1B4, symSize: 0x78 }
  - { offsetInCU: 0x547A0, offset: 0x5B5E2, size: 0x8, addend: 0x0, symName: __ZN8pybind116detail17accessor_policies8str_attr3getENS_6handleEPKc, symObjAddr: 0x7994, symBinAddr: 0xB22C, symSize: 0x3C }
  - { offsetInCU: 0x547D3, offset: 0x5B615, size: 0x8, addend: 0x0, symName: __ZN8pybind116detail16simple_collectorILNS_19return_value_policyE1EED2Ev, symObjAddr: 0x7A94, symBinAddr: 0xB32C, symSize: 0x2C }
  - { offsetInCU: 0x547FF, offset: 0x5B641, size: 0x8, addend: 0x0, symName: __ZNK8pybind116detail10object_apiINS_6handleEE9ref_countEv, symObjAddr: 0x7B2C, symBinAddr: 0xB3C4, symSize: 0x2C }
  - { offsetInCU: 0x54824, offset: 0x5B666, size: 0x8, addend: 0x0, symName: __ZL9Py_REFCNTP7_object, symObjAddr: 0x7E04, symBinAddr: 0xB69C, symSize: 0x18 }
  - { offsetInCU: 0x54877, offset: 0x5B6B9, size: 0x8, addend: 0x0, symName: __ZNO8pybind116detail11type_casterIbvEcvObEv, symObjAddr: 0x7E6C, symBinAddr: 0xB704, symSize: 0x14 }
  - { offsetInCU: 0x5489C, offset: 0x5B6DE, size: 0x8, addend: 0x0, symName: __ZN8pybind116detail11type_casterIbvE4loadENS_6handleEb, symObjAddr: 0x80E0, symBinAddr: 0xB978, symSize: 0x230 }
  - { offsetInCU: 0x54911, offset: 0x5B753, size: 0x8, addend: 0x0, symName: __ZNK8pybind116detail10object_apiINS_6handleEE7is_noneEv, symObjAddr: 0x8344, symBinAddr: 0xBBDC, symSize: 0x3C }
  - { offsetInCU: 0x54936, offset: 0x5B778, size: 0x8, addend: 0x0, symName: __ZN8pybind116detail11type_casterIbvEcvRbEv, symObjAddr: 0x8380, symBinAddr: 0xBC18, symSize: 0x14 }
  - { offsetInCU: 0x5495B, offset: 0x5B79D, size: 0x8, addend: 0x0, symName: __ZN8pybind116detail8accessorINS0_17accessor_policies8str_attrEED2Ev, symObjAddr: 0x8394, symBinAddr: 0xBC2C, symSize: 0x30 }
  - { offsetInCU: 0x54985, offset: 0x5B7C7, size: 0x8, addend: 0x0, symName: __ZN8pybind117capsule6check_ENS_6handleE, symObjAddr: 0x83C4, symBinAddr: 0xBC5C, symSize: 0x74 }
  - { offsetInCU: 0x549A9, offset: 0x5B7EB, size: 0x8, addend: 0x0, symName: __ZN8pybind116detail8accessorINS0_17accessor_policies12generic_itemEEC1ENS_6handleENS_6objectE, symObjAddr: 0x8478, symBinAddr: 0xBD10, symSize: 0x3C }
  - { offsetInCU: 0x549F1, offset: 0x5B833, size: 0x8, addend: 0x0, symName: __ZN8pybind116objectC1ENS_6handleENS0_10borrowed_tE, symObjAddr: 0x84B4, symBinAddr: 0xBD4C, symSize: 0x34 }
  - { offsetInCU: 0x54A35, offset: 0x5B877, size: 0x8, addend: 0x0, symName: __ZN8pybind116objectC2ENS_6handleENS0_10borrowed_tE, symObjAddr: 0x84E8, symBinAddr: 0xBD80, symSize: 0x38 }
  - { offsetInCU: 0x54A79, offset: 0x5B8BB, size: 0x8, addend: 0x0, symName: __ZN8pybind116detail8accessorINS0_17accessor_policies12generic_itemEEC2ENS_6handleENS_6objectE, symObjAddr: 0x8520, symBinAddr: 0xBDB8, symSize: 0x58 }
  - { offsetInCU: 0x54AC1, offset: 0x5B903, size: 0x8, addend: 0x0, symName: __ZN8pybind116objectC1EOS0_, symObjAddr: 0x8578, symBinAddr: 0xBE10, symSize: 0x34 }
  - { offsetInCU: 0x54AF9, offset: 0x5B93B, size: 0x8, addend: 0x0, symName: __ZN8pybind116objectC2EOS0_, symObjAddr: 0x85AC, symBinAddr: 0xBE44, symSize: 0x2C }
  - { offsetInCU: 0x54B31, offset: 0x5B973, size: 0x8, addend: 0x0, symName: __ZNK8pybind116detail8accessorINS0_17accessor_policies12generic_itemEE9get_cacheEv, symObjAddr: 0x85D8, symBinAddr: 0xBE70, symSize: 0x80 }
  - { offsetInCU: 0x54B56, offset: 0x5B998, size: 0x8, addend: 0x0, symName: __ZN8pybind116detail17accessor_policies12generic_item3getENS_6handleES3_, symObjAddr: 0x8658, symBinAddr: 0xBEF0, symSize: 0xE4 }
  - { offsetInCU: 0x54B98, offset: 0x5B9DA, size: 0x8, addend: 0x0, symName: __ZN8pybind116detail8accessorINS0_17accessor_policies12generic_itemEED2Ev, symObjAddr: 0x873C, symBinAddr: 0xBFD4, symSize: 0x3C }
  - { offsetInCU: 0x54BC2, offset: 0x5BA04, size: 0x8, addend: 0x0, symName: __ZN8pybind117capsuleC1EONS_6objectE, symObjAddr: 0x8778, symBinAddr: 0xC010, symSize: 0x34 }
  - { offsetInCU: 0x54BFA, offset: 0x5BA3C, size: 0x8, addend: 0x0, symName: __ZN8pybind117capsuleC2EONS_6objectE, symObjAddr: 0x87AC, symBinAddr: 0xC044, symSize: 0x1C8 }
  - { offsetInCU: 0x54C32, offset: 0x5BA74, size: 0x8, addend: 0x0, symName: __ZN8pybind1110type_errorCI1St13runtime_errorERKNSt3__112basic_stringIcNS1_11char_traitsIcEENS1_9allocatorIcEEEE, symObjAddr: 0x89B0, symBinAddr: 0xC248, symSize: 0x34 }
  - { offsetInCU: 0x54C67, offset: 0x5BAA9, size: 0x8, addend: 0x0, symName: __ZN8pybind1110type_errorD1Ev, symObjAddr: 0x89E4, symBinAddr: 0xC27C, symSize: 0x2C }
  - { offsetInCU: 0x54C93, offset: 0x5BAD5, size: 0x8, addend: 0x0, symName: __ZN8pybind1110type_errorCI2St13runtime_errorERKNSt3__112basic_stringIcNS1_11char_traitsIcEENS1_9allocatorIcEEEE, symObjAddr: 0x8A10, symBinAddr: 0xC2A8, symSize: 0x4C }
  - { offsetInCU: 0x54CC8, offset: 0x5BB0A, size: 0x8, addend: 0x0, symName: __ZN8pybind1110type_errorD0Ev, symObjAddr: 0x8A5C, symBinAddr: 0xC2F4, symSize: 0x30 }
  - { offsetInCU: 0x54CF4, offset: 0x5BB36, size: 0x8, addend: 0x0, symName: __ZNK8pybind1110type_error9set_errorEv, symObjAddr: 0x8A8C, symBinAddr: 0xC324, symSize: 0x48 }
  - { offsetInCU: 0x54D19, offset: 0x5BB5B, size: 0x8, addend: 0x0, symName: __ZN8pybind1110type_errorD2Ev, symObjAddr: 0x8AD4, symBinAddr: 0xC36C, symSize: 0x2C }
  - { offsetInCU: 0x54D45, offset: 0x5BB87, size: 0x8, addend: 0x0, symName: __ZNK8pybind117capsule11get_pointerIPNS_6detail9internalsEEEPT_v, symObjAddr: 0x8B00, symBinAddr: 0xC398, symSize: 0xA8 }
  - { offsetInCU: 0x54D91, offset: 0x5BBD3, size: 0x8, addend: 0x0, symName: __ZNK8pybind117capsule4nameEv, symObjAddr: 0x8BA8, symBinAddr: 0xC440, symSize: 0xA8 }
  - { offsetInCU: 0x54DC5, offset: 0x5BC07, size: 0x8, addend: 0x0, symName: __ZN8pybind117capsuleD2Ev, symObjAddr: 0x8C50, symBinAddr: 0xC4E8, symSize: 0x2C }
  - { offsetInCU: 0x54DF1, offset: 0x5BC33, size: 0x8, addend: 0x0, symName: __ZNSt3__119__forward_list_baseIPFvSt13exception_ptrENS_9allocatorIS3_EEE7__allocB7v160006Ev, symObjAddr: 0x8C7C, symBinAddr: 0xC514, symSize: 0x24 }
  - { offsetInCU: 0x54E1B, offset: 0x5BC5D, size: 0x8, addend: 0x0, symName: __ZNSt3__116allocator_traitsINS_9allocatorINS_19__forward_list_nodeIPFvSt13exception_ptrEPvEEEEE8allocateB7v160006ERS8_m, symObjAddr: 0x8CA0, symBinAddr: 0xC538, symSize: 0x2C }
  - { offsetInCU: 0x54E53, offset: 0x5BC95, size: 0x8, addend: 0x0, symName: __ZNSt3__122__allocator_destructorINS_9allocatorINS_19__forward_list_nodeIPFvSt13exception_ptrEPvEEEEEC1B7v160006ERS8_m, symObjAddr: 0x8CCC, symBinAddr: 0xC564, symSize: 0x3C }
  - { offsetInCU: 0x54F26, offset: 0x5BD68, size: 0x8, addend: 0x0, symName: __ZNSt3__110unique_ptrINS_19__forward_list_nodeIPFvSt13exception_ptrEPvEENS_22__allocator_destructorINS_9allocatorIS6_EEEEEC1B7v160006ILb1EvEEPS6_NS_16__dependent_typeINS_27__unique_ptr_deleter_sfinaeISA_EEXT_EE20__good_rval_ref_typeE, symObjAddr: 0x8D08, symBinAddr: 0xC5A0, symSize: 0x3C }
  - { offsetInCU: 0x54F7D, offset: 0x5BDBF, size: 0x8, addend: 0x0, symName: __ZNSt3__116allocator_traitsINS_9allocatorINS_19__forward_list_nodeIPFvSt13exception_ptrEPvEEEEE9constructB7v160006IS5_JS5_EvEEvRS8_PT_DpOT0_, symObjAddr: 0x8D44, symBinAddr: 0xC5DC, symSize: 0x34 }
  - { offsetInCU: 0x54FD5, offset: 0x5BE17, size: 0x8, addend: 0x0, symName: __ZNKSt3__110unique_ptrINS_19__forward_list_nodeIPFvSt13exception_ptrEPvEENS_22__allocator_destructorINS_9allocatorIS6_EEEEEptB7v160006Ev, symObjAddr: 0x8D78, symBinAddr: 0xC610, symSize: 0x28 }
  - { offsetInCU: 0x54FFA, offset: 0x5BE3C, size: 0x8, addend: 0x0, symName: __ZNSt3__119__forward_list_baseIPFvSt13exception_ptrENS_9allocatorIS3_EEE14__before_beginB7v160006Ev, symObjAddr: 0x8DA0, symBinAddr: 0xC638, symSize: 0x28 }
  - { offsetInCU: 0x5501F, offset: 0x5BE61, size: 0x8, addend: 0x0, symName: __ZNSt3__110unique_ptrINS_19__forward_list_nodeIPFvSt13exception_ptrEPvEENS_22__allocator_destructorINS_9allocatorIS6_EEEEE7releaseB7v160006Ev, symObjAddr: 0x8DC8, symBinAddr: 0xC660, symSize: 0x44 }
  - { offsetInCU: 0x55053, offset: 0x5BE95, size: 0x8, addend: 0x0, symName: __ZNSt3__110unique_ptrINS_19__forward_list_nodeIPFvSt13exception_ptrEPvEENS_22__allocator_destructorINS_9allocatorIS6_EEEEED1B7v160006Ev, symObjAddr: 0x8E0C, symBinAddr: 0xC6A4, symSize: 0x2C }
  - { offsetInCU: 0x5507C, offset: 0x5BEBE, size: 0x8, addend: 0x0, symName: __ZNSt3__117__compressed_pairINS_20__forward_begin_nodeIPNS_19__forward_list_nodeIPFvSt13exception_ptrEPvEEEENS_9allocatorIS7_EEE6secondB7v160006Ev, symObjAddr: 0x8E38, symBinAddr: 0xC6D0, symSize: 0x24 }
  - { offsetInCU: 0x550A1, offset: 0x5BEE3, size: 0x8, addend: 0x0, symName: __ZNSt3__122__compressed_pair_elemINS_9allocatorINS_19__forward_list_nodeIPFvSt13exception_ptrEPvEEEELi1ELb1EE5__getB7v160006Ev, symObjAddr: 0x8E5C, symBinAddr: 0xC6F4, symSize: 0x14 }
  - { offsetInCU: 0x550C6, offset: 0x5BF08, size: 0x8, addend: 0x0, symName: __ZNSt3__19allocatorINS_19__forward_list_nodeIPFvSt13exception_ptrEPvEEE8allocateB7v160006Em, symObjAddr: 0x8E70, symBinAddr: 0xC708, symSize: 0x58 }
  - { offsetInCU: 0x55103, offset: 0x5BF45, size: 0x8, addend: 0x0, symName: __ZNSt3__116allocator_traitsINS_9allocatorINS_19__forward_list_nodeIPFvSt13exception_ptrEPvEEEEE8max_sizeB7v160006IS8_vEEmRKS8_, symObjAddr: 0x8EC8, symBinAddr: 0xC760, symSize: 0x24 }
  - { offsetInCU: 0x55132, offset: 0x5BF74, size: 0x8, addend: 0x0, symName: __ZNKSt3__19allocatorINS_19__forward_list_nodeIPFvSt13exception_ptrEPvEEE8max_sizeB7v160006Ev, symObjAddr: 0x8F80, symBinAddr: 0xC818, symSize: 0x14 }
  - { offsetInCU: 0x55157, offset: 0x5BF99, size: 0x8, addend: 0x0, symName: __ZNSt3__122__allocator_destructorINS_9allocatorINS_19__forward_list_nodeIPFvSt13exception_ptrEPvEEEEEC2B7v160006ERS8_m, symObjAddr: 0x8FE4, symBinAddr: 0xC87C, symSize: 0x2C }
  - { offsetInCU: 0x5519C, offset: 0x5BFDE, size: 0x8, addend: 0x0, symName: __ZNSt3__110unique_ptrINS_19__forward_list_nodeIPFvSt13exception_ptrEPvEENS_22__allocator_destructorINS_9allocatorIS6_EEEEEC2B7v160006ILb1EvEEPS6_NS_16__dependent_typeINS_27__unique_ptr_deleter_sfinaeISA_EEXT_EE20__good_rval_ref_typeE, symObjAddr: 0x9010, symBinAddr: 0xC8A8, symSize: 0x48 }
  - { offsetInCU: 0x551ED, offset: 0x5C02F, size: 0x8, addend: 0x0, symName: __ZNSt3__117__compressed_pairIPNS_19__forward_list_nodeIPFvSt13exception_ptrEPvEENS_22__allocator_destructorINS_9allocatorIS6_EEEEEC1B7v160006IRS7_SB_EEOT_OT0_, symObjAddr: 0x9058, symBinAddr: 0xC8F0, symSize: 0x3C }
  - { offsetInCU: 0x55244, offset: 0x5C086, size: 0x8, addend: 0x0, symName: __ZNSt3__117__compressed_pairIPNS_19__forward_list_nodeIPFvSt13exception_ptrEPvEENS_22__allocator_destructorINS_9allocatorIS6_EEEEEC2B7v160006IRS7_SB_EEOT_OT0_, symObjAddr: 0x9094, symBinAddr: 0xC92C, symSize: 0x48 }
  - { offsetInCU: 0x5529B, offset: 0x5C0DD, size: 0x8, addend: 0x0, symName: __ZNSt3__122__compressed_pair_elemIPNS_19__forward_list_nodeIPFvSt13exception_ptrEPvEELi0ELb0EEC2B7v160006IRS7_vEEOT_, symObjAddr: 0x90DC, symBinAddr: 0xC974, symSize: 0x24 }
  - { offsetInCU: 0x552DD, offset: 0x5C11F, size: 0x8, addend: 0x0, symName: __ZNSt3__122__compressed_pair_elemINS_22__allocator_destructorINS_9allocatorINS_19__forward_list_nodeIPFvSt13exception_ptrEPvEEEEEELi1ELb0EEC2B7v160006ISA_vEEOT_, symObjAddr: 0x9100, symBinAddr: 0xC998, symSize: 0x24 }
  - { offsetInCU: 0x5531F, offset: 0x5C161, size: 0x8, addend: 0x0, symName: __ZNSt3__19allocatorINS_19__forward_list_nodeIPFvSt13exception_ptrEPvEEE9constructB7v160006IS4_JS4_EEEvPT_DpOT0_, symObjAddr: 0x9124, symBinAddr: 0xC9BC, symSize: 0x28 }
  - { offsetInCU: 0x55374, offset: 0x5C1B6, size: 0x8, addend: 0x0, symName: __ZNKSt3__117__compressed_pairIPNS_19__forward_list_nodeIPFvSt13exception_ptrEPvEENS_22__allocator_destructorINS_9allocatorIS6_EEEEE5firstB7v160006Ev, symObjAddr: 0x914C, symBinAddr: 0xC9E4, symSize: 0x24 }
  - { offsetInCU: 0x55399, offset: 0x5C1DB, size: 0x8, addend: 0x0, symName: __ZNKSt3__122__compressed_pair_elemIPNS_19__forward_list_nodeIPFvSt13exception_ptrEPvEELi0ELb0EE5__getB7v160006Ev, symObjAddr: 0x9170, symBinAddr: 0xCA08, symSize: 0x14 }
  - { offsetInCU: 0x553BE, offset: 0x5C200, size: 0x8, addend: 0x0, symName: __ZNSt3__114pointer_traitsIPNS_20__forward_begin_nodeIPNS_19__forward_list_nodeIPFvSt13exception_ptrEPvEEEEE10pointer_toB7v160006ERS9_, symObjAddr: 0x9184, symBinAddr: 0xCA1C, symSize: 0x14 }
  - { offsetInCU: 0x553E1, offset: 0x5C223, size: 0x8, addend: 0x0, symName: __ZNSt3__117__compressed_pairINS_20__forward_begin_nodeIPNS_19__forward_list_nodeIPFvSt13exception_ptrEPvEEEENS_9allocatorIS7_EEE5firstB7v160006Ev, symObjAddr: 0x9198, symBinAddr: 0xCA30, symSize: 0x24 }
  - { offsetInCU: 0x55406, offset: 0x5C248, size: 0x8, addend: 0x0, symName: __ZNSt3__122__compressed_pair_elemINS_20__forward_begin_nodeIPNS_19__forward_list_nodeIPFvSt13exception_ptrEPvEEEELi0ELb0EE5__getB7v160006Ev, symObjAddr: 0x91BC, symBinAddr: 0xCA54, symSize: 0x14 }
  - { offsetInCU: 0x5542B, offset: 0x5C26D, size: 0x8, addend: 0x0, symName: __ZNSt3__117__compressed_pairIPNS_19__forward_list_nodeIPFvSt13exception_ptrEPvEENS_22__allocator_destructorINS_9allocatorIS6_EEEEE5firstB7v160006Ev, symObjAddr: 0x91D0, symBinAddr: 0xCA68, symSize: 0x24 }
  - { offsetInCU: 0x55450, offset: 0x5C292, size: 0x8, addend: 0x0, symName: __ZNSt3__122__compressed_pair_elemIPNS_19__forward_list_nodeIPFvSt13exception_ptrEPvEELi0ELb0EE5__getB7v160006Ev, symObjAddr: 0x91F4, symBinAddr: 0xCA8C, symSize: 0x14 }
  - { offsetInCU: 0x55475, offset: 0x5C2B7, size: 0x8, addend: 0x0, symName: __ZNSt3__110unique_ptrINS_19__forward_list_nodeIPFvSt13exception_ptrEPvEENS_22__allocator_destructorINS_9allocatorIS6_EEEEED2B7v160006Ev, symObjAddr: 0x9208, symBinAddr: 0xCAA0, symSize: 0x30 }
  - { offsetInCU: 0x5549E, offset: 0x5C2E0, size: 0x8, addend: 0x0, symName: __ZNSt3__110unique_ptrINS_19__forward_list_nodeIPFvSt13exception_ptrEPvEENS_22__allocator_destructorINS_9allocatorIS6_EEEEE5resetB7v160006EPS6_, symObjAddr: 0x9238, symBinAddr: 0xCAD0, symSize: 0x78 }
  - { offsetInCU: 0x554E1, offset: 0x5C323, size: 0x8, addend: 0x0, symName: __ZNSt3__117__compressed_pairIPNS_19__forward_list_nodeIPFvSt13exception_ptrEPvEENS_22__allocator_destructorINS_9allocatorIS6_EEEEE6secondB7v160006Ev, symObjAddr: 0x92B0, symBinAddr: 0xCB48, symSize: 0x28 }
  - { offsetInCU: 0x55506, offset: 0x5C348, size: 0x8, addend: 0x0, symName: __ZNSt3__122__allocator_destructorINS_9allocatorINS_19__forward_list_nodeIPFvSt13exception_ptrEPvEEEEEclB7v160006EPS7_, symObjAddr: 0x92D8, symBinAddr: 0xCB70, symSize: 0x34 }
  - { offsetInCU: 0x55539, offset: 0x5C37B, size: 0x8, addend: 0x0, symName: __ZNSt3__122__compressed_pair_elemINS_22__allocator_destructorINS_9allocatorINS_19__forward_list_nodeIPFvSt13exception_ptrEPvEEEEEELi1ELb0EE5__getB7v160006Ev, symObjAddr: 0x930C, symBinAddr: 0xCBA4, symSize: 0x14 }
  - { offsetInCU: 0x5555E, offset: 0x5C3A0, size: 0x8, addend: 0x0, symName: __ZNSt3__116allocator_traitsINS_9allocatorINS_19__forward_list_nodeIPFvSt13exception_ptrEPvEEEEE10deallocateB7v160006ERS8_PS7_m, symObjAddr: 0x9320, symBinAddr: 0xCBB8, symSize: 0x34 }
  - { offsetInCU: 0x555A0, offset: 0x5C3E2, size: 0x8, addend: 0x0, symName: __ZNSt3__19allocatorINS_19__forward_list_nodeIPFvSt13exception_ptrEPvEEE10deallocateB7v160006EPS6_m, symObjAddr: 0x9354, symBinAddr: 0xCBEC, symSize: 0x40 }
  - { offsetInCU: 0x555E1, offset: 0x5C423, size: 0x8, addend: 0x0, symName: __ZNKSt13exception_ptrcvbB7v160006Ev, symObjAddr: 0x9394, symBinAddr: 0xCC2C, symSize: 0x24 }
  - { offsetInCU: 0x55606, offset: 0x5C448, size: 0x8, addend: 0x0, symName: __ZN8pybind1117error_already_set7restoreEv, symObjAddr: 0x93B8, symBinAddr: 0xCC50, symSize: 0x2C }
  - { offsetInCU: 0x5562B, offset: 0x5C46D, size: 0x8, addend: 0x0, symName: __ZN8pybind116detail25error_fetch_and_normalize7restoreEv, symObjAddr: 0x93E4, symBinAddr: 0xCC7C, symSize: 0xD0 }
  - { offsetInCU: 0x55650, offset: 0x5C492, size: 0x8, addend: 0x0, symName: __ZN8pybind116detail9internalsC2Ev, symObjAddr: 0x94B4, symBinAddr: 0xCD4C, symSize: 0xA0 }
  - { offsetInCU: 0x55679, offset: 0x5C4BB, size: 0x8, addend: 0x0, symName: __ZNSt3__113unordered_mapINS_10type_indexEPN8pybind116detail9type_infoENS3_9type_hashENS3_13type_equal_toENS_9allocatorINS_4pairIKS1_S5_EEEEEC1B7v160006Ev, symObjAddr: 0x9554, symBinAddr: 0xCDEC, symSize: 0x2C }
  - { offsetInCU: 0x556A2, offset: 0x5C4E4, size: 0x8, addend: 0x0, symName: __ZNSt3__113unordered_mapIP11_typeobjectNS_6vectorIPN8pybind116detail9type_infoENS_9allocatorIS7_EEEENS_4hashIS2_EENS_8equal_toIS2_EENS8_INS_4pairIKS2_SA_EEEEEC1B7v160006Ev, symObjAddr: 0x9580, symBinAddr: 0xCE18, symSize: 0x2C }
  - { offsetInCU: 0x556CB, offset: 0x5C50D, size: 0x8, addend: 0x0, symName: __ZNSt3__118unordered_multimapIPKvPN8pybind116detail8instanceENS_4hashIS2_EENS_8equal_toIS2_EENS_9allocatorINS_4pairIKS2_S6_EEEEEC1B7v160006Ev, symObjAddr: 0x95AC, symBinAddr: 0xCE44, symSize: 0x2C }
  - { offsetInCU: 0x556F4, offset: 0x5C536, size: 0x8, addend: 0x0, symName: __ZNSt3__113unordered_setINS_4pairIPK7_objectPKcEEN8pybind116detail13override_hashENS_8equal_toIS7_EENS_9allocatorIS7_EEEC1B7v160006Ev, symObjAddr: 0x95D8, symBinAddr: 0xCE70, symSize: 0x2C }
  - { offsetInCU: 0x5571D, offset: 0x5C55F, size: 0x8, addend: 0x0, symName: __ZNSt3__113unordered_mapINS_10type_indexENS_6vectorIPFbP7_objectRPvENS_9allocatorIS8_EEEEN8pybind116detail9type_hashENSD_13type_equal_toENS9_INS_4pairIKS1_SB_EEEEEC1B7v160006Ev, symObjAddr: 0x9604, symBinAddr: 0xCE9C, symSize: 0x2C }
  - { offsetInCU: 0x55746, offset: 0x5C588, size: 0x8, addend: 0x0, symName: __ZNSt3__113unordered_mapIPK7_objectNS_6vectorIPS1_NS_9allocatorIS5_EEEENS_4hashIS3_EENS_8equal_toIS3_EENS6_INS_4pairIKS3_S8_EEEEEC1B7v160006Ev, symObjAddr: 0x9630, symBinAddr: 0xCEC8, symSize: 0x2C }
  - { offsetInCU: 0x5576F, offset: 0x5C5B1, size: 0x8, addend: 0x0, symName: __ZNSt3__112forward_listIPFvSt13exception_ptrENS_9allocatorIS3_EEEC1B7v160006Ev, symObjAddr: 0x965C, symBinAddr: 0xCEF4, symSize: 0x2C }
  - { offsetInCU: 0x55798, offset: 0x5C5DA, size: 0x8, addend: 0x0, symName: __ZNSt3__113unordered_mapINS_12basic_stringIcNS_11char_traitsIcEENS_9allocatorIcEEEEPvNS_4hashIS6_EENS_8equal_toIS6_EENS4_INS_4pairIKS6_S7_EEEEEC1B7v160006Ev, symObjAddr: 0x9688, symBinAddr: 0xCF20, symSize: 0x2C }
  - { offsetInCU: 0x557C1, offset: 0x5C603, size: 0x8, addend: 0x0, symName: __ZNSt3__16vectorIP7_objectNS_9allocatorIS2_EEEC1B7v160006Ev, symObjAddr: 0x96B4, symBinAddr: 0xCF4C, symSize: 0x2C }
  - { offsetInCU: 0x557EA, offset: 0x5C62C, size: 0x8, addend: 0x0, symName: __ZNSt3__112forward_listINS_12basic_stringIcNS_11char_traitsIcEENS_9allocatorIcEEEENS4_IS6_EEEC1B7v160006Ev, symObjAddr: 0x96E0, symBinAddr: 0xCF78, symSize: 0x2C }
  - { offsetInCU: 0x55813, offset: 0x5C655, size: 0x8, addend: 0x0, symName: __ZNSt3__113unordered_mapINS_10type_indexEPN8pybind116detail9type_infoENS3_9type_hashENS3_13type_equal_toENS_9allocatorINS_4pairIKS1_S5_EEEEEC2B7v160006Ev, symObjAddr: 0x970C, symBinAddr: 0xCFA4, symSize: 0x3C }
  - { offsetInCU: 0x5583C, offset: 0x5C67E, size: 0x8, addend: 0x0, symName: __ZNSt3__112__hash_tableINS_17__hash_value_typeINS_10type_indexEPN8pybind116detail9type_infoEEENS_22__unordered_map_hasherIS2_S7_NS4_9type_hashENS4_13type_equal_toELb1EEENS_21__unordered_map_equalIS2_S7_SA_S9_Lb1EEENS_9allocatorIS7_EEEC1Ev, symObjAddr: 0x9748, symBinAddr: 0xCFE0, symSize: 0x2C }
  - { offsetInCU: 0x55867, offset: 0x5C6A9, size: 0x8, addend: 0x0, symName: __ZNSt3__112__hash_tableINS_17__hash_value_typeINS_10type_indexEPN8pybind116detail9type_infoEEENS_22__unordered_map_hasherIS2_S7_NS4_9type_hashENS4_13type_equal_toELb1EEENS_21__unordered_map_equalIS2_S7_SA_S9_Lb1EEENS_9allocatorIS7_EEEC2Ev, symObjAddr: 0x9784, symBinAddr: 0xD01C, symSize: 0x7C }
  - { offsetInCU: 0x55892, offset: 0x5C6D4, size: 0x8, addend: 0x0, symName: __ZNSt3__110unique_ptrIA_PNS_16__hash_node_baseIPNS_11__hash_nodeINS_17__hash_value_typeINS_10type_indexEPN8pybind116detail9type_infoEEEPvEEEENS_25__bucket_list_deallocatorINS_9allocatorISE_EEEEEC1B7v160006ILb1EvEEv, symObjAddr: 0x9800, symBinAddr: 0xD098, symSize: 0x2C }
  - { offsetInCU: 0x558C7, offset: 0x5C709, size: 0x8, addend: 0x0, symName: __ZNSt3__117__compressed_pairINS_16__hash_node_baseIPNS_11__hash_nodeINS_17__hash_value_typeINS_10type_indexEPN8pybind116detail9type_infoEEEPvEEEENS_9allocatorISB_EEEC1B7v160006ILb1EvEEv, symObjAddr: 0x982C, symBinAddr: 0xD0C4, symSize: 0x2C }
  - { offsetInCU: 0x55902, offset: 0x5C744, size: 0x8, addend: 0x0, symName: __ZNSt3__117__compressed_pairImNS_22__unordered_map_hasherINS_10type_indexENS_17__hash_value_typeIS2_PN8pybind116detail9type_infoEEENS5_9type_hashENS5_13type_equal_toELb1EEEEC1B7v160006IiNS_18__default_init_tagEEEOT_OT0_, symObjAddr: 0x9858, symBinAddr: 0xD0F0, symSize: 0x3C }
  - { offsetInCU: 0x5595F, offset: 0x5C7A1, size: 0x8, addend: 0x0, symName: __ZNSt3__117__compressed_pairIfNS_21__unordered_map_equalINS_10type_indexENS_17__hash_value_typeIS2_PN8pybind116detail9type_infoEEENS5_13type_equal_toENS5_9type_hashELb1EEEEC1B7v160006IfNS_18__default_init_tagEEEOT_OT0_, symObjAddr: 0x9894, symBinAddr: 0xD12C, symSize: 0x3C }
  - { offsetInCU: 0x559B6, offset: 0x5C7F8, size: 0x8, addend: 0x0, symName: __ZNSt3__110unique_ptrIA_PNS_16__hash_node_baseIPNS_11__hash_nodeINS_17__hash_value_typeINS_10type_indexEPN8pybind116detail9type_infoEEEPvEEEENS_25__bucket_list_deallocatorINS_9allocatorISE_EEEEEC2B7v160006ILb1EvEEv, symObjAddr: 0x98D0, symBinAddr: 0xD168, symSize: 0x3C }
  - { offsetInCU: 0x559F1, offset: 0x5C833, size: 0x8, addend: 0x0, symName: __ZNSt3__117__compressed_pairIPPNS_16__hash_node_baseIPNS_11__hash_nodeINS_17__hash_value_typeINS_10type_indexEPN8pybind116detail9type_infoEEEPvEEEENS_25__bucket_list_deallocatorINS_9allocatorISE_EEEEEC1B7v160006INS_16__value_init_tagESM_EEOT_OT0_, symObjAddr: 0x990C, symBinAddr: 0xD1A4, symSize: 0x3C }
  - { offsetInCU: 0x55A48, offset: 0x5C88A, size: 0x8, addend: 0x0, symName: __ZNSt3__117__compressed_pairIPPNS_16__hash_node_baseIPNS_11__hash_nodeINS_17__hash_value_typeINS_10type_indexEPN8pybind116detail9type_infoEEEPvEEEENS_25__bucket_list_deallocatorINS_9allocatorISE_EEEEEC2B7v160006INS_16__value_init_tagESM_EEOT_OT0_, symObjAddr: 0x9948, symBinAddr: 0xD1E0, symSize: 0x40 }
  - { offsetInCU: 0x55A9F, offset: 0x5C8E1, size: 0x8, addend: 0x0, symName: __ZNSt3__122__compressed_pair_elemIPPNS_16__hash_node_baseIPNS_11__hash_nodeINS_17__hash_value_typeINS_10type_indexEPN8pybind116detail9type_infoEEEPvEEEELi0ELb0EEC2B7v160006ENS_16__value_init_tagE, symObjAddr: 0x9988, symBinAddr: 0xD220, symSize: 0x18 }
  - { offsetInCU: 0x55AD3, offset: 0x5C915, size: 0x8, addend: 0x0, symName: __ZNSt3__122__compressed_pair_elemINS_25__bucket_list_deallocatorINS_9allocatorIPNS_16__hash_node_baseIPNS_11__hash_nodeINS_17__hash_value_typeINS_10type_indexEPN8pybind116detail9type_infoEEEPvEEEEEEEELi1ELb0EEC2B7v160006ENS_16__value_init_tagE, symObjAddr: 0x99A0, symBinAddr: 0xD238, symSize: 0x2C }
  - { offsetInCU: 0x55B07, offset: 0x5C949, size: 0x8, addend: 0x0, symName: __ZNSt3__125__bucket_list_deallocatorINS_9allocatorIPNS_16__hash_node_baseIPNS_11__hash_nodeINS_17__hash_value_typeINS_10type_indexEPN8pybind116detail9type_infoEEEPvEEEEEEEC1B7v160006Ev, symObjAddr: 0x99CC, symBinAddr: 0xD264, symSize: 0x2C }
  - { offsetInCU: 0x55B30, offset: 0x5C972, size: 0x8, addend: 0x0, symName: __ZNSt3__125__bucket_list_deallocatorINS_9allocatorIPNS_16__hash_node_baseIPNS_11__hash_nodeINS_17__hash_value_typeINS_10type_indexEPN8pybind116detail9type_infoEEEPvEEEEEEEC2B7v160006Ev, symObjAddr: 0x99F8, symBinAddr: 0xD290, symSize: 0x40 }
  - { offsetInCU: 0x55B59, offset: 0x5C99B, size: 0x8, addend: 0x0, symName: __ZNSt3__117__compressed_pairImNS_9allocatorIPNS_16__hash_node_baseIPNS_11__hash_nodeINS_17__hash_value_typeINS_10type_indexEPN8pybind116detail9type_infoEEEPvEEEEEEEC1B7v160006IiNS_18__default_init_tagEEEOT_OT0_, symObjAddr: 0x9A38, symBinAddr: 0xD2D0, symSize: 0x3C }
  - { offsetInCU: 0x55BB0, offset: 0x5C9F2, size: 0x8, addend: 0x0, symName: __ZNSt3__117__compressed_pairImNS_9allocatorIPNS_16__hash_node_baseIPNS_11__hash_nodeINS_17__hash_value_typeINS_10type_indexEPN8pybind116detail9type_infoEEEPvEEEEEEEC2B7v160006IiNS_18__default_init_tagEEEOT_OT0_, symObjAddr: 0x9A74, symBinAddr: 0xD30C, symSize: 0x40 }
  - { offsetInCU: 0x55C07, offset: 0x5CA49, size: 0x8, addend: 0x0, symName: __ZNSt3__122__compressed_pair_elemImLi0ELb0EEC2B7v160006IivEEOT_, symObjAddr: 0x9AB4, symBinAddr: 0xD34C, symSize: 0x24 }
  - { offsetInCU: 0x55C49, offset: 0x5CA8B, size: 0x8, addend: 0x0, symName: __ZNSt3__122__compressed_pair_elemINS_9allocatorIPNS_16__hash_node_baseIPNS_11__hash_nodeINS_17__hash_value_typeINS_10type_indexEPN8pybind116detail9type_infoEEEPvEEEEEELi1ELb1EEC2B7v160006ENS_18__default_init_tagE, symObjAddr: 0x9AD8, symBinAddr: 0xD370, symSize: 0x2C }
  - { offsetInCU: 0x55C7D, offset: 0x5CABF, size: 0x8, addend: 0x0, symName: __ZNSt3__19allocatorIPNS_16__hash_node_baseIPNS_11__hash_nodeINS_17__hash_value_typeINS_10type_indexEPN8pybind116detail9type_infoEEEPvEEEEEC2B7v160006Ev, symObjAddr: 0x9B04, symBinAddr: 0xD39C, symSize: 0x2C }
  - { offsetInCU: 0x55CA6, offset: 0x5CAE8, size: 0x8, addend: 0x0, symName: __ZNSt3__116__non_trivial_ifILb1ENS_9allocatorIPNS_16__hash_node_baseIPNS_11__hash_nodeINS_17__hash_value_typeINS_10type_indexEPN8pybind116detail9type_infoEEEPvEEEEEEEC2B7v160006Ev, symObjAddr: 0x9B30, symBinAddr: 0xD3C8, symSize: 0x14 }
  - { offsetInCU: 0x55CCF, offset: 0x5CB11, size: 0x8, addend: 0x0, symName: __ZNSt3__117__compressed_pairINS_16__hash_node_baseIPNS_11__hash_nodeINS_17__hash_value_typeINS_10type_indexEPN8pybind116detail9type_infoEEEPvEEEENS_9allocatorISB_EEEC2B7v160006ILb1EvEEv, symObjAddr: 0x9B44, symBinAddr: 0xD3DC, symSize: 0x34 }
  - { offsetInCU: 0x55D04, offset: 0x5CB46, size: 0x8, addend: 0x0, symName: __ZNSt3__122__compressed_pair_elemINS_16__hash_node_baseIPNS_11__hash_nodeINS_17__hash_value_typeINS_10type_indexEPN8pybind116detail9type_infoEEEPvEEEELi0ELb0EEC2B7v160006ENS_16__value_init_tagE, symObjAddr: 0x9B78, symBinAddr: 0xD410, symSize: 0x2C }
  - { offsetInCU: 0x55D38, offset: 0x5CB7A, size: 0x8, addend: 0x0, symName: __ZNSt3__122__compressed_pair_elemINS_9allocatorINS_11__hash_nodeINS_17__hash_value_typeINS_10type_indexEPN8pybind116detail9type_infoEEEPvEEEELi1ELb1EEC2B7v160006ENS_16__value_init_tagE, symObjAddr: 0x9BA4, symBinAddr: 0xD43C, symSize: 0x2C }
  - { offsetInCU: 0x55D6C, offset: 0x5CBAE, size: 0x8, addend: 0x0, symName: __ZNSt3__116__hash_node_baseIPNS_11__hash_nodeINS_17__hash_value_typeINS_10type_indexEPN8pybind116detail9type_infoEEEPvEEEC1B7v160006Ev, symObjAddr: 0x9BD0, symBinAddr: 0xD468, symSize: 0x2C }
  - { offsetInCU: 0x55D95, offset: 0x5CBD7, size: 0x8, addend: 0x0, symName: __ZNSt3__116__hash_node_baseIPNS_11__hash_nodeINS_17__hash_value_typeINS_10type_indexEPN8pybind116detail9type_infoEEEPvEEEC2B7v160006Ev, symObjAddr: 0x9BFC, symBinAddr: 0xD494, symSize: 0x18 }
  - { offsetInCU: 0x55DBE, offset: 0x5CC00, size: 0x8, addend: 0x0, symName: __ZNSt3__19allocatorINS_11__hash_nodeINS_17__hash_value_typeINS_10type_indexEPN8pybind116detail9type_infoEEEPvEEEC2B7v160006Ev, symObjAddr: 0x9C14, symBinAddr: 0xD4AC, symSize: 0x2C }
  - { offsetInCU: 0x55DE7, offset: 0x5CC29, size: 0x8, addend: 0x0, symName: __ZNSt3__116__non_trivial_ifILb1ENS_9allocatorINS_11__hash_nodeINS_17__hash_value_typeINS_10type_indexEPN8pybind116detail9type_infoEEEPvEEEEEC2B7v160006Ev, symObjAddr: 0x9C40, symBinAddr: 0xD4D8, symSize: 0x14 }
  - { offsetInCU: 0x55E10, offset: 0x5CC52, size: 0x8, addend: 0x0, symName: __ZNSt3__117__compressed_pairImNS_22__unordered_map_hasherINS_10type_indexENS_17__hash_value_typeIS2_PN8pybind116detail9type_infoEEENS5_9type_hashENS5_13type_equal_toELb1EEEEC2B7v160006IiNS_18__default_init_tagEEEOT_OT0_, symObjAddr: 0x9C54, symBinAddr: 0xD4EC, symSize: 0x40 }
  - { offsetInCU: 0x55E67, offset: 0x5CCA9, size: 0x8, addend: 0x0, symName: __ZNSt3__122__compressed_pair_elemINS_22__unordered_map_hasherINS_10type_indexENS_17__hash_value_typeIS2_PN8pybind116detail9type_infoEEENS5_9type_hashENS5_13type_equal_toELb1EEELi1ELb1EEC2B7v160006ENS_18__default_init_tagE, symObjAddr: 0x9C94, symBinAddr: 0xD52C, symSize: 0x2C }
  - { offsetInCU: 0x55E9B, offset: 0x5CCDD, size: 0x8, addend: 0x0, symName: __ZNSt3__122__unordered_map_hasherINS_10type_indexENS_17__hash_value_typeIS1_PN8pybind116detail9type_infoEEENS4_9type_hashENS4_13type_equal_toELb1EEC2B7v160006Ev, symObjAddr: 0x9CC0, symBinAddr: 0xD558, symSize: 0x14 }
  - { offsetInCU: 0x55EC4, offset: 0x5CD06, size: 0x8, addend: 0x0, symName: __ZNSt3__117__compressed_pairIfNS_21__unordered_map_equalINS_10type_indexENS_17__hash_value_typeIS2_PN8pybind116detail9type_infoEEENS5_13type_equal_toENS5_9type_hashELb1EEEEC2B7v160006IfNS_18__default_init_tagEEEOT_OT0_, symObjAddr: 0x9CD4, symBinAddr: 0xD56C, symSize: 0x40 }
  - { offsetInCU: 0x55F1B, offset: 0x5CD5D, size: 0x8, addend: 0x0, symName: __ZNSt3__122__compressed_pair_elemIfLi0ELb0EEC2B7v160006IfvEEOT_, symObjAddr: 0x9D14, symBinAddr: 0xD5AC, symSize: 0x24 }
  - { offsetInCU: 0x55F5D, offset: 0x5CD9F, size: 0x8, addend: 0x0, symName: __ZNSt3__122__compressed_pair_elemINS_21__unordered_map_equalINS_10type_indexENS_17__hash_value_typeIS2_PN8pybind116detail9type_infoEEENS5_13type_equal_toENS5_9type_hashELb1EEELi1ELb1EEC2B7v160006ENS_18__default_init_tagE, symObjAddr: 0x9D38, symBinAddr: 0xD5D0, symSize: 0x2C }
  - { offsetInCU: 0x55F91, offset: 0x5CDD3, size: 0x8, addend: 0x0, symName: __ZNSt3__121__unordered_map_equalINS_10type_indexENS_17__hash_value_typeIS1_PN8pybind116detail9type_infoEEENS4_13type_equal_toENS4_9type_hashELb1EEC2B7v160006Ev, symObjAddr: 0x9D64, symBinAddr: 0xD5FC, symSize: 0x14 }
  - { offsetInCU: 0x55FBA, offset: 0x5CDFC, size: 0x8, addend: 0x0, symName: __ZNSt3__113unordered_mapIP11_typeobjectNS_6vectorIPN8pybind116detail9type_infoENS_9allocatorIS7_EEEENS_4hashIS2_EENS_8equal_toIS2_EENS8_INS_4pairIKS2_SA_EEEEEC2B7v160006Ev, symObjAddr: 0x9D78, symBinAddr: 0xD610, symSize: 0x3C }
  - { offsetInCU: 0x55FE3, offset: 0x5CE25, size: 0x8, addend: 0x0, symName: __ZNSt3__112__hash_tableINS_17__hash_value_typeIP11_typeobjectNS_6vectorIPN8pybind116detail9type_infoENS_9allocatorIS8_EEEEEENS_22__unordered_map_hasherIS3_SC_NS_4hashIS3_EENS_8equal_toIS3_EELb1EEENS_21__unordered_map_equalIS3_SC_SH_SF_Lb1EEENS9_ISC_EEEC1Ev, symObjAddr: 0x9DB4, symBinAddr: 0xD64C, symSize: 0x2C }
  - { offsetInCU: 0x5600E, offset: 0x5CE50, size: 0x8, addend: 0x0, symName: __ZNSt3__112__hash_tableINS_17__hash_value_typeIP11_typeobjectNS_6vectorIPN8pybind116detail9type_infoENS_9allocatorIS8_EEEEEENS_22__unordered_map_hasherIS3_SC_NS_4hashIS3_EENS_8equal_toIS3_EELb1EEENS_21__unordered_map_equalIS3_SC_SH_SF_Lb1EEENS9_ISC_EEEC2Ev, symObjAddr: 0x9DF0, symBinAddr: 0xD688, symSize: 0x7C }
  - { offsetInCU: 0x56039, offset: 0x5CE7B, size: 0x8, addend: 0x0, symName: __ZNSt3__110unique_ptrIA_PNS_16__hash_node_baseIPNS_11__hash_nodeINS_17__hash_value_typeIP11_typeobjectNS_6vectorIPN8pybind116detail9type_infoENS_9allocatorISA_EEEEEEPvEEEENS_25__bucket_list_deallocatorINSB_ISJ_EEEEEC1B7v160006ILb1EvEEv, symObjAddr: 0x9E6C, symBinAddr: 0xD704, symSize: 0x2C }
  - { offsetInCU: 0x5606E, offset: 0x5CEB0, size: 0x8, addend: 0x0, symName: __ZNSt3__117__compressed_pairINS_16__hash_node_baseIPNS_11__hash_nodeINS_17__hash_value_typeIP11_typeobjectNS_6vectorIPN8pybind116detail9type_infoENS_9allocatorISA_EEEEEEPvEEEENSB_ISG_EEEC1B7v160006ILb1EvEEv, symObjAddr: 0x9E98, symBinAddr: 0xD730, symSize: 0x2C }
  - { offsetInCU: 0x560A3, offset: 0x5CEE5, size: 0x8, addend: 0x0, symName: __ZNSt3__117__compressed_pairImNS_22__unordered_map_hasherIP11_typeobjectNS_17__hash_value_typeIS3_NS_6vectorIPN8pybind116detail9type_infoENS_9allocatorIS9_EEEEEENS_4hashIS3_EENS_8equal_toIS3_EELb1EEEEC1B7v160006IiNS_18__default_init_tagEEEOT_OT0_, symObjAddr: 0x9EC4, symBinAddr: 0xD75C, symSize: 0x3C }
  - { offsetInCU: 0x560FA, offset: 0x5CF3C, size: 0x8, addend: 0x0, symName: __ZNSt3__117__compressed_pairIfNS_21__unordered_map_equalIP11_typeobjectNS_17__hash_value_typeIS3_NS_6vectorIPN8pybind116detail9type_infoENS_9allocatorIS9_EEEEEENS_8equal_toIS3_EENS_4hashIS3_EELb1EEEEC1B7v160006IfNS_18__default_init_tagEEEOT_OT0_, symObjAddr: 0x9F00, symBinAddr: 0xD798, symSize: 0x3C }
  - { offsetInCU: 0x56151, offset: 0x5CF93, size: 0x8, addend: 0x0, symName: __ZNSt3__110unique_ptrIA_PNS_16__hash_node_baseIPNS_11__hash_nodeINS_17__hash_value_typeIP11_typeobjectNS_6vectorIPN8pybind116detail9type_infoENS_9allocatorISA_EEEEEEPvEEEENS_25__bucket_list_deallocatorINSB_ISJ_EEEEEC2B7v160006ILb1EvEEv, symObjAddr: 0x9F3C, symBinAddr: 0xD7D4, symSize: 0x3C }
  - { offsetInCU: 0x56186, offset: 0x5CFC8, size: 0x8, addend: 0x0, symName: __ZNSt3__117__compressed_pairIPPNS_16__hash_node_baseIPNS_11__hash_nodeINS_17__hash_value_typeIP11_typeobjectNS_6vectorIPN8pybind116detail9type_infoENS_9allocatorISA_EEEEEEPvEEEENS_25__bucket_list_deallocatorINSB_ISJ_EEEEEC1B7v160006INS_16__value_init_tagESQ_EEOT_OT0_, symObjAddr: 0x9F78, symBinAddr: 0xD810, symSize: 0x3C }
  - { offsetInCU: 0x561DD, offset: 0x5D01F, size: 0x8, addend: 0x0, symName: __ZNSt3__117__compressed_pairIPPNS_16__hash_node_baseIPNS_11__hash_nodeINS_17__hash_value_typeIP11_typeobjectNS_6vectorIPN8pybind116detail9type_infoENS_9allocatorISA_EEEEEEPvEEEENS_25__bucket_list_deallocatorINSB_ISJ_EEEEEC2B7v160006INS_16__value_init_tagESQ_EEOT_OT0_, symObjAddr: 0x9FB4, symBinAddr: 0xD84C, symSize: 0x40 }
  - { offsetInCU: 0x56234, offset: 0x5D076, size: 0x8, addend: 0x0, symName: __ZNSt3__122__compressed_pair_elemIPPNS_16__hash_node_baseIPNS_11__hash_nodeINS_17__hash_value_typeIP11_typeobjectNS_6vectorIPN8pybind116detail9type_infoENS_9allocatorISA_EEEEEEPvEEEELi0ELb0EEC2B7v160006ENS_16__value_init_tagE, symObjAddr: 0x9FF4, symBinAddr: 0xD88C, symSize: 0x18 }
  - { offsetInCU: 0x56268, offset: 0x5D0AA, size: 0x8, addend: 0x0, symName: __ZNSt3__122__compressed_pair_elemINS_25__bucket_list_deallocatorINS_9allocatorIPNS_16__hash_node_baseIPNS_11__hash_nodeINS_17__hash_value_typeIP11_typeobjectNS_6vectorIPN8pybind116detail9type_infoENS2_ISC_EEEEEEPvEEEEEEEELi1ELb0EEC2B7v160006ENS_16__value_init_tagE, symObjAddr: 0xA00C, symBinAddr: 0xD8A4, symSize: 0x2C }
  - { offsetInCU: 0x5629C, offset: 0x5D0DE, size: 0x8, addend: 0x0, symName: __ZNSt3__125__bucket_list_deallocatorINS_9allocatorIPNS_16__hash_node_baseIPNS_11__hash_nodeINS_17__hash_value_typeIP11_typeobjectNS_6vectorIPN8pybind116detail9type_infoENS1_ISB_EEEEEEPvEEEEEEEC1B7v160006Ev, symObjAddr: 0xA038, symBinAddr: 0xD8D0, symSize: 0x2C }
  - { offsetInCU: 0x562C5, offset: 0x5D107, size: 0x8, addend: 0x0, symName: __ZNSt3__125__bucket_list_deallocatorINS_9allocatorIPNS_16__hash_node_baseIPNS_11__hash_nodeINS_17__hash_value_typeIP11_typeobjectNS_6vectorIPN8pybind116detail9type_infoENS1_ISB_EEEEEEPvEEEEEEEC2B7v160006Ev, symObjAddr: 0xA064, symBinAddr: 0xD8FC, symSize: 0x40 }
  - { offsetInCU: 0x562EE, offset: 0x5D130, size: 0x8, addend: 0x0, symName: __ZNSt3__117__compressed_pairImNS_9allocatorIPNS_16__hash_node_baseIPNS_11__hash_nodeINS_17__hash_value_typeIP11_typeobjectNS_6vectorIPN8pybind116detail9type_infoENS1_ISB_EEEEEEPvEEEEEEEC1B7v160006IiNS_18__default_init_tagEEEOT_OT0_, symObjAddr: 0xA0A4, symBinAddr: 0xD93C, symSize: 0x3C }
  - { offsetInCU: 0x56345, offset: 0x5D187, size: 0x8, addend: 0x0, symName: __ZNSt3__117__compressed_pairImNS_9allocatorIPNS_16__hash_node_baseIPNS_11__hash_nodeINS_17__hash_value_typeIP11_typeobjectNS_6vectorIPN8pybind116detail9type_infoENS1_ISB_EEEEEEPvEEEEEEEC2B7v160006IiNS_18__default_init_tagEEEOT_OT0_, symObjAddr: 0xA0E0, symBinAddr: 0xD978, symSize: 0x40 }
  - { offsetInCU: 0x5639C, offset: 0x5D1DE, size: 0x8, addend: 0x0, symName: __ZNSt3__122__compressed_pair_elemINS_9allocatorIPNS_16__hash_node_baseIPNS_11__hash_nodeINS_17__hash_value_typeIP11_typeobjectNS_6vectorIPN8pybind116detail9type_infoENS1_ISB_EEEEEEPvEEEEEELi1ELb1EEC2B7v160006ENS_18__default_init_tagE, symObjAddr: 0xA120, symBinAddr: 0xD9B8, symSize: 0x2C }
  - { offsetInCU: 0x563D0, offset: 0x5D212, size: 0x8, addend: 0x0, symName: __ZNSt3__19allocatorIPNS_16__hash_node_baseIPNS_11__hash_nodeINS_17__hash_value_typeIP11_typeobjectNS_6vectorIPN8pybind116detail9type_infoENS0_ISA_EEEEEEPvEEEEEC2B7v160006Ev, symObjAddr: 0xA14C, symBinAddr: 0xD9E4, symSize: 0x2C }
  - { offsetInCU: 0x563F9, offset: 0x5D23B, size: 0x8, addend: 0x0, symName: __ZNSt3__116__non_trivial_ifILb1ENS_9allocatorIPNS_16__hash_node_baseIPNS_11__hash_nodeINS_17__hash_value_typeIP11_typeobjectNS_6vectorIPN8pybind116detail9type_infoENS1_ISB_EEEEEEPvEEEEEEEC2B7v160006Ev, symObjAddr: 0xA178, symBinAddr: 0xDA10, symSize: 0x14 }
  - { offsetInCU: 0x56422, offset: 0x5D264, size: 0x8, addend: 0x0, symName: __ZNSt3__117__compressed_pairINS_16__hash_node_baseIPNS_11__hash_nodeINS_17__hash_value_typeIP11_typeobjectNS_6vectorIPN8pybind116detail9type_infoENS_9allocatorISA_EEEEEEPvEEEENSB_ISG_EEEC2B7v160006ILb1EvEEv, symObjAddr: 0xA18C, symBinAddr: 0xDA24, symSize: 0x34 }
  - { offsetInCU: 0x56457, offset: 0x5D299, size: 0x8, addend: 0x0, symName: __ZNSt3__122__compressed_pair_elemINS_16__hash_node_baseIPNS_11__hash_nodeINS_17__hash_value_typeIP11_typeobjectNS_6vectorIPN8pybind116detail9type_infoENS_9allocatorISA_EEEEEEPvEEEELi0ELb0EEC2B7v160006ENS_16__value_init_tagE, symObjAddr: 0xA1C0, symBinAddr: 0xDA58, symSize: 0x2C }
  - { offsetInCU: 0x5648B, offset: 0x5D2CD, size: 0x8, addend: 0x0, symName: __ZNSt3__122__compressed_pair_elemINS_9allocatorINS_11__hash_nodeINS_17__hash_value_typeIP11_typeobjectNS_6vectorIPN8pybind116detail9type_infoENS1_ISA_EEEEEEPvEEEELi1ELb1EEC2B7v160006ENS_16__value_init_tagE, symObjAddr: 0xA1EC, symBinAddr: 0xDA84, symSize: 0x2C }
  - { offsetInCU: 0x564BF, offset: 0x5D301, size: 0x8, addend: 0x0, symName: __ZNSt3__116__hash_node_baseIPNS_11__hash_nodeINS_17__hash_value_typeIP11_typeobjectNS_6vectorIPN8pybind116detail9type_infoENS_9allocatorIS9_EEEEEEPvEEEC1B7v160006Ev, symObjAddr: 0xA218, symBinAddr: 0xDAB0, symSize: 0x2C }
  - { offsetInCU: 0x564E8, offset: 0x5D32A, size: 0x8, addend: 0x0, symName: __ZNSt3__116__hash_node_baseIPNS_11__hash_nodeINS_17__hash_value_typeIP11_typeobjectNS_6vectorIPN8pybind116detail9type_infoENS_9allocatorIS9_EEEEEEPvEEEC2B7v160006Ev, symObjAddr: 0xA244, symBinAddr: 0xDADC, symSize: 0x18 }
  - { offsetInCU: 0x56511, offset: 0x5D353, size: 0x8, addend: 0x0, symName: __ZNSt3__19allocatorINS_11__hash_nodeINS_17__hash_value_typeIP11_typeobjectNS_6vectorIPN8pybind116detail9type_infoENS0_IS9_EEEEEEPvEEEC2B7v160006Ev, symObjAddr: 0xA25C, symBinAddr: 0xDAF4, symSize: 0x2C }
  - { offsetInCU: 0x5653A, offset: 0x5D37C, size: 0x8, addend: 0x0, symName: __ZNSt3__116__non_trivial_ifILb1ENS_9allocatorINS_11__hash_nodeINS_17__hash_value_typeIP11_typeobjectNS_6vectorIPN8pybind116detail9type_infoENS1_ISA_EEEEEEPvEEEEEC2B7v160006Ev, symObjAddr: 0xA288, symBinAddr: 0xDB20, symSize: 0x14 }
  - { offsetInCU: 0x56563, offset: 0x5D3A5, size: 0x8, addend: 0x0, symName: __ZNSt3__117__compressed_pairImNS_22__unordered_map_hasherIP11_typeobjectNS_17__hash_value_typeIS3_NS_6vectorIPN8pybind116detail9type_infoENS_9allocatorIS9_EEEEEENS_4hashIS3_EENS_8equal_toIS3_EELb1EEEEC2B7v160006IiNS_18__default_init_tagEEEOT_OT0_, symObjAddr: 0xA29C, symBinAddr: 0xDB34, symSize: 0x40 }
  - { offsetInCU: 0x565BA, offset: 0x5D3FC, size: 0x8, addend: 0x0, symName: __ZNSt3__122__compressed_pair_elemINS_22__unordered_map_hasherIP11_typeobjectNS_17__hash_value_typeIS3_NS_6vectorIPN8pybind116detail9type_infoENS_9allocatorIS9_EEEEEENS_4hashIS3_EENS_8equal_toIS3_EELb1EEELi1ELb1EEC2B7v160006ENS_18__default_init_tagE, symObjAddr: 0xA2DC, symBinAddr: 0xDB74, symSize: 0x2C }
  - { offsetInCU: 0x565EE, offset: 0x5D430, size: 0x8, addend: 0x0, symName: __ZNSt3__122__unordered_map_hasherIP11_typeobjectNS_17__hash_value_typeIS2_NS_6vectorIPN8pybind116detail9type_infoENS_9allocatorIS8_EEEEEENS_4hashIS2_EENS_8equal_toIS2_EELb1EEC2B7v160006Ev, symObjAddr: 0xA308, symBinAddr: 0xDBA0, symSize: 0x14 }
  - { offsetInCU: 0x56617, offset: 0x5D459, size: 0x8, addend: 0x0, symName: __ZNSt3__117__compressed_pairIfNS_21__unordered_map_equalIP11_typeobjectNS_17__hash_value_typeIS3_NS_6vectorIPN8pybind116detail9type_infoENS_9allocatorIS9_EEEEEENS_8equal_toIS3_EENS_4hashIS3_EELb1EEEEC2B7v160006IfNS_18__default_init_tagEEEOT_OT0_, symObjAddr: 0xA31C, symBinAddr: 0xDBB4, symSize: 0x40 }
  - { offsetInCU: 0x5666E, offset: 0x5D4B0, size: 0x8, addend: 0x0, symName: __ZNSt3__122__compressed_pair_elemINS_21__unordered_map_equalIP11_typeobjectNS_17__hash_value_typeIS3_NS_6vectorIPN8pybind116detail9type_infoENS_9allocatorIS9_EEEEEENS_8equal_toIS3_EENS_4hashIS3_EELb1EEELi1ELb1EEC2B7v160006ENS_18__default_init_tagE, symObjAddr: 0xA35C, symBinAddr: 0xDBF4, symSize: 0x2C }
  - { offsetInCU: 0x566A2, offset: 0x5D4E4, size: 0x8, addend: 0x0, symName: __ZNSt3__121__unordered_map_equalIP11_typeobjectNS_17__hash_value_typeIS2_NS_6vectorIPN8pybind116detail9type_infoENS_9allocatorIS8_EEEEEENS_8equal_toIS2_EENS_4hashIS2_EELb1EEC2B7v160006Ev, symObjAddr: 0xA388, symBinAddr: 0xDC20, symSize: 0x14 }
  - { offsetInCU: 0x566CB, offset: 0x5D50D, size: 0x8, addend: 0x0, symName: __ZNSt3__118unordered_multimapIPKvPN8pybind116detail8instanceENS_4hashIS2_EENS_8equal_toIS2_EENS_9allocatorINS_4pairIKS2_S6_EEEEEC2B7v160006Ev, symObjAddr: 0xA39C, symBinAddr: 0xDC34, symSize: 0x3C }
  - { offsetInCU: 0x566F4, offset: 0x5D536, size: 0x8, addend: 0x0, symName: __ZNSt3__112__hash_tableINS_17__hash_value_typeIPKvPN8pybind116detail8instanceEEENS_22__unordered_map_hasherIS3_S8_NS_4hashIS3_EENS_8equal_toIS3_EELb1EEENS_21__unordered_map_equalIS3_S8_SD_SB_Lb1EEENS_9allocatorIS8_EEEC1Ev, symObjAddr: 0xA3D8, symBinAddr: 0xDC70, symSize: 0x2C }
  - { offsetInCU: 0x5671F, offset: 0x5D561, size: 0x8, addend: 0x0, symName: __ZNSt3__112__hash_tableINS_17__hash_value_typeIPKvPN8pybind116detail8instanceEEENS_22__unordered_map_hasherIS3_S8_NS_4hashIS3_EENS_8equal_toIS3_EELb1EEENS_21__unordered_map_equalIS3_S8_SD_SB_Lb1EEENS_9allocatorIS8_EEEC2Ev, symObjAddr: 0xA414, symBinAddr: 0xDCAC, symSize: 0x7C }
  - { offsetInCU: 0x5674A, offset: 0x5D58C, size: 0x8, addend: 0x0, symName: __ZNSt3__110unique_ptrIA_PNS_16__hash_node_baseIPNS_11__hash_nodeINS_17__hash_value_typeIPKvPN8pybind116detail8instanceEEEPvEEEENS_25__bucket_list_deallocatorINS_9allocatorISF_EEEEEC1B7v160006ILb1EvEEv, symObjAddr: 0xA490, symBinAddr: 0xDD28, symSize: 0x2C }
  - { offsetInCU: 0x5677F, offset: 0x5D5C1, size: 0x8, addend: 0x0, symName: __ZNSt3__117__compressed_pairINS_16__hash_node_baseIPNS_11__hash_nodeINS_17__hash_value_typeIPKvPN8pybind116detail8instanceEEEPvEEEENS_9allocatorISC_EEEC1B7v160006ILb1EvEEv, symObjAddr: 0xA4BC, symBinAddr: 0xDD54, symSize: 0x2C }
  - { offsetInCU: 0x567B4, offset: 0x5D5F6, size: 0x8, addend: 0x0, symName: __ZNSt3__117__compressed_pairImNS_22__unordered_map_hasherIPKvNS_17__hash_value_typeIS3_PN8pybind116detail8instanceEEENS_4hashIS3_EENS_8equal_toIS3_EELb1EEEEC1B7v160006IiNS_18__default_init_tagEEEOT_OT0_, symObjAddr: 0xA4E8, symBinAddr: 0xDD80, symSize: 0x3C }
  - { offsetInCU: 0x5680B, offset: 0x5D64D, size: 0x8, addend: 0x0, symName: __ZNSt3__117__compressed_pairIfNS_21__unordered_map_equalIPKvNS_17__hash_value_typeIS3_PN8pybind116detail8instanceEEENS_8equal_toIS3_EENS_4hashIS3_EELb1EEEEC1B7v160006IfNS_18__default_init_tagEEEOT_OT0_, symObjAddr: 0xA524, symBinAddr: 0xDDBC, symSize: 0x3C }
  - { offsetInCU: 0x56862, offset: 0x5D6A4, size: 0x8, addend: 0x0, symName: __ZNSt3__110unique_ptrIA_PNS_16__hash_node_baseIPNS_11__hash_nodeINS_17__hash_value_typeIPKvPN8pybind116detail8instanceEEEPvEEEENS_25__bucket_list_deallocatorINS_9allocatorISF_EEEEEC2B7v160006ILb1EvEEv, symObjAddr: 0xA560, symBinAddr: 0xDDF8, symSize: 0x3C }
  - { offsetInCU: 0x56897, offset: 0x5D6D9, size: 0x8, addend: 0x0, symName: __ZNSt3__117__compressed_pairIPPNS_16__hash_node_baseIPNS_11__hash_nodeINS_17__hash_value_typeIPKvPN8pybind116detail8instanceEEEPvEEEENS_25__bucket_list_deallocatorINS_9allocatorISF_EEEEEC1B7v160006INS_16__value_init_tagESN_EEOT_OT0_, symObjAddr: 0xA59C, symBinAddr: 0xDE34, symSize: 0x3C }
  - { offsetInCU: 0x568EE, offset: 0x5D730, size: 0x8, addend: 0x0, symName: __ZNSt3__117__compressed_pairIPPNS_16__hash_node_baseIPNS_11__hash_nodeINS_17__hash_value_typeIPKvPN8pybind116detail8instanceEEEPvEEEENS_25__bucket_list_deallocatorINS_9allocatorISF_EEEEEC2B7v160006INS_16__value_init_tagESN_EEOT_OT0_, symObjAddr: 0xA5D8, symBinAddr: 0xDE70, symSize: 0x40 }
  - { offsetInCU: 0x56945, offset: 0x5D787, size: 0x8, addend: 0x0, symName: __ZNSt3__122__compressed_pair_elemIPPNS_16__hash_node_baseIPNS_11__hash_nodeINS_17__hash_value_typeIPKvPN8pybind116detail8instanceEEEPvEEEELi0ELb0EEC2B7v160006ENS_16__value_init_tagE, symObjAddr: 0xA618, symBinAddr: 0xDEB0, symSize: 0x18 }
  - { offsetInCU: 0x56979, offset: 0x5D7BB, size: 0x8, addend: 0x0, symName: __ZNSt3__122__compressed_pair_elemINS_25__bucket_list_deallocatorINS_9allocatorIPNS_16__hash_node_baseIPNS_11__hash_nodeINS_17__hash_value_typeIPKvPN8pybind116detail8instanceEEEPvEEEEEEEELi1ELb0EEC2B7v160006ENS_16__value_init_tagE, symObjAddr: 0xA630, symBinAddr: 0xDEC8, symSize: 0x2C }
  - { offsetInCU: 0x569AD, offset: 0x5D7EF, size: 0x8, addend: 0x0, symName: __ZNSt3__125__bucket_list_deallocatorINS_9allocatorIPNS_16__hash_node_baseIPNS_11__hash_nodeINS_17__hash_value_typeIPKvPN8pybind116detail8instanceEEEPvEEEEEEEC1B7v160006Ev, symObjAddr: 0xA65C, symBinAddr: 0xDEF4, symSize: 0x2C }
  - { offsetInCU: 0x569D6, offset: 0x5D818, size: 0x8, addend: 0x0, symName: __ZNSt3__125__bucket_list_deallocatorINS_9allocatorIPNS_16__hash_node_baseIPNS_11__hash_nodeINS_17__hash_value_typeIPKvPN8pybind116detail8instanceEEEPvEEEEEEEC2B7v160006Ev, symObjAddr: 0xA688, symBinAddr: 0xDF20, symSize: 0x40 }
  - { offsetInCU: 0x569FF, offset: 0x5D841, size: 0x8, addend: 0x0, symName: __ZNSt3__117__compressed_pairImNS_9allocatorIPNS_16__hash_node_baseIPNS_11__hash_nodeINS_17__hash_value_typeIPKvPN8pybind116detail8instanceEEEPvEEEEEEEC1B7v160006IiNS_18__default_init_tagEEEOT_OT0_, symObjAddr: 0xA6C8, symBinAddr: 0xDF60, symSize: 0x3C }
  - { offsetInCU: 0x56A56, offset: 0x5D898, size: 0x8, addend: 0x0, symName: __ZNSt3__117__compressed_pairImNS_9allocatorIPNS_16__hash_node_baseIPNS_11__hash_nodeINS_17__hash_value_typeIPKvPN8pybind116detail8instanceEEEPvEEEEEEEC2B7v160006IiNS_18__default_init_tagEEEOT_OT0_, symObjAddr: 0xA704, symBinAddr: 0xDF9C, symSize: 0x40 }
  - { offsetInCU: 0x56AAD, offset: 0x5D8EF, size: 0x8, addend: 0x0, symName: __ZNSt3__122__compressed_pair_elemINS_9allocatorIPNS_16__hash_node_baseIPNS_11__hash_nodeINS_17__hash_value_typeIPKvPN8pybind116detail8instanceEEEPvEEEEEELi1ELb1EEC2B7v160006ENS_18__default_init_tagE, symObjAddr: 0xA744, symBinAddr: 0xDFDC, symSize: 0x2C }
  - { offsetInCU: 0x56AE1, offset: 0x5D923, size: 0x8, addend: 0x0, symName: __ZNSt3__19allocatorIPNS_16__hash_node_baseIPNS_11__hash_nodeINS_17__hash_value_typeIPKvPN8pybind116detail8instanceEEEPvEEEEEC2B7v160006Ev, symObjAddr: 0xA770, symBinAddr: 0xE008, symSize: 0x2C }
  - { offsetInCU: 0x56B0A, offset: 0x5D94C, size: 0x8, addend: 0x0, symName: __ZNSt3__116__non_trivial_ifILb1ENS_9allocatorIPNS_16__hash_node_baseIPNS_11__hash_nodeINS_17__hash_value_typeIPKvPN8pybind116detail8instanceEEEPvEEEEEEEC2B7v160006Ev, symObjAddr: 0xA79C, symBinAddr: 0xE034, symSize: 0x14 }
  - { offsetInCU: 0x56B33, offset: 0x5D975, size: 0x8, addend: 0x0, symName: __ZNSt3__117__compressed_pairINS_16__hash_node_baseIPNS_11__hash_nodeINS_17__hash_value_typeIPKvPN8pybind116detail8instanceEEEPvEEEENS_9allocatorISC_EEEC2B7v160006ILb1EvEEv, symObjAddr: 0xA7B0, symBinAddr: 0xE048, symSize: 0x34 }
  - { offsetInCU: 0x56B68, offset: 0x5D9AA, size: 0x8, addend: 0x0, symName: __ZNSt3__122__compressed_pair_elemINS_16__hash_node_baseIPNS_11__hash_nodeINS_17__hash_value_typeIPKvPN8pybind116detail8instanceEEEPvEEEELi0ELb0EEC2B7v160006ENS_16__value_init_tagE, symObjAddr: 0xA7E4, symBinAddr: 0xE07C, symSize: 0x2C }
  - { offsetInCU: 0x56B9C, offset: 0x5D9DE, size: 0x8, addend: 0x0, symName: __ZNSt3__122__compressed_pair_elemINS_9allocatorINS_11__hash_nodeINS_17__hash_value_typeIPKvPN8pybind116detail8instanceEEEPvEEEELi1ELb1EEC2B7v160006ENS_16__value_init_tagE, symObjAddr: 0xA810, symBinAddr: 0xE0A8, symSize: 0x2C }
  - { offsetInCU: 0x56BD0, offset: 0x5DA12, size: 0x8, addend: 0x0, symName: __ZNSt3__116__hash_node_baseIPNS_11__hash_nodeINS_17__hash_value_typeIPKvPN8pybind116detail8instanceEEEPvEEEC1B7v160006Ev, symObjAddr: 0xA83C, symBinAddr: 0xE0D4, symSize: 0x2C }
  - { offsetInCU: 0x56BF9, offset: 0x5DA3B, size: 0x8, addend: 0x0, symName: __ZNSt3__116__hash_node_baseIPNS_11__hash_nodeINS_17__hash_value_typeIPKvPN8pybind116detail8instanceEEEPvEEEC2B7v160006Ev, symObjAddr: 0xA868, symBinAddr: 0xE100, symSize: 0x18 }
  - { offsetInCU: 0x56C22, offset: 0x5DA64, size: 0x8, addend: 0x0, symName: __ZNSt3__19allocatorINS_11__hash_nodeINS_17__hash_value_typeIPKvPN8pybind116detail8instanceEEEPvEEEC2B7v160006Ev, symObjAddr: 0xA880, symBinAddr: 0xE118, symSize: 0x2C }
  - { offsetInCU: 0x56C4B, offset: 0x5DA8D, size: 0x8, addend: 0x0, symName: __ZNSt3__116__non_trivial_ifILb1ENS_9allocatorINS_11__hash_nodeINS_17__hash_value_typeIPKvPN8pybind116detail8instanceEEEPvEEEEEC2B7v160006Ev, symObjAddr: 0xA8AC, symBinAddr: 0xE144, symSize: 0x14 }
  - { offsetInCU: 0x56C74, offset: 0x5DAB6, size: 0x8, addend: 0x0, symName: __ZNSt3__117__compressed_pairImNS_22__unordered_map_hasherIPKvNS_17__hash_value_typeIS3_PN8pybind116detail8instanceEEENS_4hashIS3_EENS_8equal_toIS3_EELb1EEEEC2B7v160006IiNS_18__default_init_tagEEEOT_OT0_, symObjAddr: 0xA8C0, symBinAddr: 0xE158, symSize: 0x40 }
  - { offsetInCU: 0x56CCB, offset: 0x5DB0D, size: 0x8, addend: 0x0, symName: __ZNSt3__122__compressed_pair_elemINS_22__unordered_map_hasherIPKvNS_17__hash_value_typeIS3_PN8pybind116detail8instanceEEENS_4hashIS3_EENS_8equal_toIS3_EELb1EEELi1ELb1EEC2B7v160006ENS_18__default_init_tagE, symObjAddr: 0xA900, symBinAddr: 0xE198, symSize: 0x2C }
  - { offsetInCU: 0x56CFF, offset: 0x5DB41, size: 0x8, addend: 0x0, symName: __ZNSt3__122__unordered_map_hasherIPKvNS_17__hash_value_typeIS2_PN8pybind116detail8instanceEEENS_4hashIS2_EENS_8equal_toIS2_EELb1EEC2B7v160006Ev, symObjAddr: 0xA92C, symBinAddr: 0xE1C4, symSize: 0x14 }
  - { offsetInCU: 0x56D28, offset: 0x5DB6A, size: 0x8, addend: 0x0, symName: __ZNSt3__117__compressed_pairIfNS_21__unordered_map_equalIPKvNS_17__hash_value_typeIS3_PN8pybind116detail8instanceEEENS_8equal_toIS3_EENS_4hashIS3_EELb1EEEEC2B7v160006IfNS_18__default_init_tagEEEOT_OT0_, symObjAddr: 0xA940, symBinAddr: 0xE1D8, symSize: 0x40 }
  - { offsetInCU: 0x56D7F, offset: 0x5DBC1, size: 0x8, addend: 0x0, symName: __ZNSt3__122__compressed_pair_elemINS_21__unordered_map_equalIPKvNS_17__hash_value_typeIS3_PN8pybind116detail8instanceEEENS_8equal_toIS3_EENS_4hashIS3_EELb1EEELi1ELb1EEC2B7v160006ENS_18__default_init_tagE, symObjAddr: 0xA980, symBinAddr: 0xE218, symSize: 0x2C }
  - { offsetInCU: 0x56DB3, offset: 0x5DBF5, size: 0x8, addend: 0x0, symName: __ZNSt3__121__unordered_map_equalIPKvNS_17__hash_value_typeIS2_PN8pybind116detail8instanceEEENS_8equal_toIS2_EENS_4hashIS2_EELb1EEC2B7v160006Ev, symObjAddr: 0xA9AC, symBinAddr: 0xE244, symSize: 0x14 }
  - { offsetInCU: 0x56DDC, offset: 0x5DC1E, size: 0x8, addend: 0x0, symName: __ZNSt3__113unordered_setINS_4pairIPK7_objectPKcEEN8pybind116detail13override_hashENS_8equal_toIS7_EENS_9allocatorIS7_EEEC2B7v160006Ev, symObjAddr: 0xA9C0, symBinAddr: 0xE258, symSize: 0x3C }
  - { offsetInCU: 0x56E05, offset: 0x5DC47, size: 0x8, addend: 0x0, symName: __ZNSt3__112__hash_tableINS_4pairIPK7_objectPKcEEN8pybind116detail13override_hashENS_8equal_toIS7_EENS_9allocatorIS7_EEEC1Ev, symObjAddr: 0xA9FC, symBinAddr: 0xE294, symSize: 0x2C }
  - { offsetInCU: 0x56E30, offset: 0x5DC72, size: 0x8, addend: 0x0, symName: __ZNSt3__112__hash_tableINS_4pairIPK7_objectPKcEEN8pybind116detail13override_hashENS_8equal_toIS7_EENS_9allocatorIS7_EEEC2Ev, symObjAddr: 0xAA38, symBinAddr: 0xE2D0, symSize: 0x7C }
  - { offsetInCU: 0x56E5B, offset: 0x5DC9D, size: 0x8, addend: 0x0, symName: __ZNSt3__110unique_ptrIA_PNS_16__hash_node_baseIPNS_11__hash_nodeINS_4pairIPK7_objectPKcEEPvEEEENS_25__bucket_list_deallocatorINS_9allocatorISE_EEEEEC1B7v160006ILb1EvEEv, symObjAddr: 0xAAB4, symBinAddr: 0xE34C, symSize: 0x2C }
  - { offsetInCU: 0x56E90, offset: 0x5DCD2, size: 0x8, addend: 0x0, symName: __ZNSt3__117__compressed_pairINS_16__hash_node_baseIPNS_11__hash_nodeINS_4pairIPK7_objectPKcEEPvEEEENS_9allocatorISB_EEEC1B7v160006ILb1EvEEv, symObjAddr: 0xAAE0, symBinAddr: 0xE378, symSize: 0x2C }
  - { offsetInCU: 0x56EC5, offset: 0x5DD07, size: 0x8, addend: 0x0, symName: __ZNSt3__117__compressed_pairImN8pybind116detail13override_hashEEC1B7v160006IiNS_18__default_init_tagEEEOT_OT0_, symObjAddr: 0xAB0C, symBinAddr: 0xE3A4, symSize: 0x3C }
  - { offsetInCU: 0x56F1C, offset: 0x5DD5E, size: 0x8, addend: 0x0, symName: __ZNSt3__117__compressed_pairIfNS_8equal_toINS_4pairIPK7_objectPKcEEEEEC1B7v160006IfNS_18__default_init_tagEEEOT_OT0_, symObjAddr: 0xAB48, symBinAddr: 0xE3E0, symSize: 0x3C }
  - { offsetInCU: 0x56F73, offset: 0x5DDB5, size: 0x8, addend: 0x0, symName: __ZNSt3__110unique_ptrIA_PNS_16__hash_node_baseIPNS_11__hash_nodeINS_4pairIPK7_objectPKcEEPvEEEENS_25__bucket_list_deallocatorINS_9allocatorISE_EEEEEC2B7v160006ILb1EvEEv, symObjAddr: 0xAB84, symBinAddr: 0xE41C, symSize: 0x3C }
  - { offsetInCU: 0x56FA8, offset: 0x5DDEA, size: 0x8, addend: 0x0, symName: __ZNSt3__117__compressed_pairIPPNS_16__hash_node_baseIPNS_11__hash_nodeINS_4pairIPK7_objectPKcEEPvEEEENS_25__bucket_list_deallocatorINS_9allocatorISE_EEEEEC1B7v160006INS_16__value_init_tagESM_EEOT_OT0_, symObjAddr: 0xABC0, symBinAddr: 0xE458, symSize: 0x3C }
  - { offsetInCU: 0x56FFF, offset: 0x5DE41, size: 0x8, addend: 0x0, symName: __ZNSt3__117__compressed_pairIPPNS_16__hash_node_baseIPNS_11__hash_nodeINS_4pairIPK7_objectPKcEEPvEEEENS_25__bucket_list_deallocatorINS_9allocatorISE_EEEEEC2B7v160006INS_16__value_init_tagESM_EEOT_OT0_, symObjAddr: 0xABFC, symBinAddr: 0xE494, symSize: 0x40 }
  - { offsetInCU: 0x57056, offset: 0x5DE98, size: 0x8, addend: 0x0, symName: __ZNSt3__122__compressed_pair_elemIPPNS_16__hash_node_baseIPNS_11__hash_nodeINS_4pairIPK7_objectPKcEEPvEEEELi0ELb0EEC2B7v160006ENS_16__value_init_tagE, symObjAddr: 0xAC3C, symBinAddr: 0xE4D4, symSize: 0x18 }
  - { offsetInCU: 0x5708A, offset: 0x5DECC, size: 0x8, addend: 0x0, symName: __ZNSt3__122__compressed_pair_elemINS_25__bucket_list_deallocatorINS_9allocatorIPNS_16__hash_node_baseIPNS_11__hash_nodeINS_4pairIPK7_objectPKcEEPvEEEEEEEELi1ELb0EEC2B7v160006ENS_16__value_init_tagE, symObjAddr: 0xAC54, symBinAddr: 0xE4EC, symSize: 0x2C }
  - { offsetInCU: 0x570BE, offset: 0x5DF00, size: 0x8, addend: 0x0, symName: __ZNSt3__125__bucket_list_deallocatorINS_9allocatorIPNS_16__hash_node_baseIPNS_11__hash_nodeINS_4pairIPK7_objectPKcEEPvEEEEEEEC1B7v160006Ev, symObjAddr: 0xAC80, symBinAddr: 0xE518, symSize: 0x2C }
  - { offsetInCU: 0x570E7, offset: 0x5DF29, size: 0x8, addend: 0x0, symName: __ZNSt3__125__bucket_list_deallocatorINS_9allocatorIPNS_16__hash_node_baseIPNS_11__hash_nodeINS_4pairIPK7_objectPKcEEPvEEEEEEEC2B7v160006Ev, symObjAddr: 0xACAC, symBinAddr: 0xE544, symSize: 0x40 }
  - { offsetInCU: 0x57110, offset: 0x5DF52, size: 0x8, addend: 0x0, symName: __ZNSt3__117__compressed_pairImNS_9allocatorIPNS_16__hash_node_baseIPNS_11__hash_nodeINS_4pairIPK7_objectPKcEEPvEEEEEEEC1B7v160006IiNS_18__default_init_tagEEEOT_OT0_, symObjAddr: 0xACEC, symBinAddr: 0xE584, symSize: 0x3C }
  - { offsetInCU: 0x57167, offset: 0x5DFA9, size: 0x8, addend: 0x0, symName: __ZNSt3__117__compressed_pairImNS_9allocatorIPNS_16__hash_node_baseIPNS_11__hash_nodeINS_4pairIPK7_objectPKcEEPvEEEEEEEC2B7v160006IiNS_18__default_init_tagEEEOT_OT0_, symObjAddr: 0xAD28, symBinAddr: 0xE5C0, symSize: 0x40 }
  - { offsetInCU: 0x571BE, offset: 0x5E000, size: 0x8, addend: 0x0, symName: __ZNSt3__122__compressed_pair_elemINS_9allocatorIPNS_16__hash_node_baseIPNS_11__hash_nodeINS_4pairIPK7_objectPKcEEPvEEEEEELi1ELb1EEC2B7v160006ENS_18__default_init_tagE, symObjAddr: 0xAD68, symBinAddr: 0xE600, symSize: 0x2C }
  - { offsetInCU: 0x571F2, offset: 0x5E034, size: 0x8, addend: 0x0, symName: __ZNSt3__19allocatorIPNS_16__hash_node_baseIPNS_11__hash_nodeINS_4pairIPK7_objectPKcEEPvEEEEEC2B7v160006Ev, symObjAddr: 0xAD94, symBinAddr: 0xE62C, symSize: 0x2C }
  - { offsetInCU: 0x5721B, offset: 0x5E05D, size: 0x8, addend: 0x0, symName: __ZNSt3__116__non_trivial_ifILb1ENS_9allocatorIPNS_16__hash_node_baseIPNS_11__hash_nodeINS_4pairIPK7_objectPKcEEPvEEEEEEEC2B7v160006Ev, symObjAddr: 0xADC0, symBinAddr: 0xE658, symSize: 0x14 }
  - { offsetInCU: 0x57244, offset: 0x5E086, size: 0x8, addend: 0x0, symName: __ZNSt3__117__compressed_pairINS_16__hash_node_baseIPNS_11__hash_nodeINS_4pairIPK7_objectPKcEEPvEEEENS_9allocatorISB_EEEC2B7v160006ILb1EvEEv, symObjAddr: 0xADD4, symBinAddr: 0xE66C, symSize: 0x34 }
  - { offsetInCU: 0x57279, offset: 0x5E0BB, size: 0x8, addend: 0x0, symName: __ZNSt3__122__compressed_pair_elemINS_16__hash_node_baseIPNS_11__hash_nodeINS_4pairIPK7_objectPKcEEPvEEEELi0ELb0EEC2B7v160006ENS_16__value_init_tagE, symObjAddr: 0xAE08, symBinAddr: 0xE6A0, symSize: 0x2C }
  - { offsetInCU: 0x572AD, offset: 0x5E0EF, size: 0x8, addend: 0x0, symName: __ZNSt3__122__compressed_pair_elemINS_9allocatorINS_11__hash_nodeINS_4pairIPK7_objectPKcEEPvEEEELi1ELb1EEC2B7v160006ENS_16__value_init_tagE, symObjAddr: 0xAE34, symBinAddr: 0xE6CC, symSize: 0x2C }
  - { offsetInCU: 0x572E1, offset: 0x5E123, size: 0x8, addend: 0x0, symName: __ZNSt3__116__hash_node_baseIPNS_11__hash_nodeINS_4pairIPK7_objectPKcEEPvEEEC1B7v160006Ev, symObjAddr: 0xAE60, symBinAddr: 0xE6F8, symSize: 0x2C }
  - { offsetInCU: 0x5730A, offset: 0x5E14C, size: 0x8, addend: 0x0, symName: __ZNSt3__116__hash_node_baseIPNS_11__hash_nodeINS_4pairIPK7_objectPKcEEPvEEEC2B7v160006Ev, symObjAddr: 0xAE8C, symBinAddr: 0xE724, symSize: 0x18 }
  - { offsetInCU: 0x57333, offset: 0x5E175, size: 0x8, addend: 0x0, symName: __ZNSt3__19allocatorINS_11__hash_nodeINS_4pairIPK7_objectPKcEEPvEEEC2B7v160006Ev, symObjAddr: 0xAEA4, symBinAddr: 0xE73C, symSize: 0x2C }
  - { offsetInCU: 0x5735C, offset: 0x5E19E, size: 0x8, addend: 0x0, symName: __ZNSt3__116__non_trivial_ifILb1ENS_9allocatorINS_11__hash_nodeINS_4pairIPK7_objectPKcEEPvEEEEEC2B7v160006Ev, symObjAddr: 0xAED0, symBinAddr: 0xE768, symSize: 0x14 }
  - { offsetInCU: 0x57385, offset: 0x5E1C7, size: 0x8, addend: 0x0, symName: __ZNSt3__117__compressed_pairImN8pybind116detail13override_hashEEC2B7v160006IiNS_18__default_init_tagEEEOT_OT0_, symObjAddr: 0xAEE4, symBinAddr: 0xE77C, symSize: 0x40 }
  - { offsetInCU: 0x573DC, offset: 0x5E21E, size: 0x8, addend: 0x0, symName: __ZNSt3__122__compressed_pair_elemIN8pybind116detail13override_hashELi1ELb1EEC2B7v160006ENS_18__default_init_tagE, symObjAddr: 0xAF24, symBinAddr: 0xE7BC, symSize: 0x14 }
  - { offsetInCU: 0x57410, offset: 0x5E252, size: 0x8, addend: 0x0, symName: __ZNSt3__117__compressed_pairIfNS_8equal_toINS_4pairIPK7_objectPKcEEEEEC2B7v160006IfNS_18__default_init_tagEEEOT_OT0_, symObjAddr: 0xAF38, symBinAddr: 0xE7D0, symSize: 0x40 }
  - { offsetInCU: 0x57467, offset: 0x5E2A9, size: 0x8, addend: 0x0, symName: __ZNSt3__122__compressed_pair_elemINS_8equal_toINS_4pairIPK7_objectPKcEEEELi1ELb1EEC2B7v160006ENS_18__default_init_tagE, symObjAddr: 0xAF78, symBinAddr: 0xE810, symSize: 0x14 }
  - { offsetInCU: 0x5749B, offset: 0x5E2DD, size: 0x8, addend: 0x0, symName: __ZNSt3__113unordered_mapINS_10type_indexENS_6vectorIPFbP7_objectRPvENS_9allocatorIS8_EEEEN8pybind116detail9type_hashENSD_13type_equal_toENS9_INS_4pairIKS1_SB_EEEEEC2B7v160006Ev, symObjAddr: 0xAF8C, symBinAddr: 0xE824, symSize: 0x3C }
  - { offsetInCU: 0x574C4, offset: 0x5E306, size: 0x8, addend: 0x0, symName: __ZNSt3__112__hash_tableINS_17__hash_value_typeINS_10type_indexENS_6vectorIPFbP7_objectRPvENS_9allocatorIS9_EEEEEENS_22__unordered_map_hasherIS2_SD_N8pybind116detail9type_hashENSG_13type_equal_toELb1EEENS_21__unordered_map_equalIS2_SD_SI_SH_Lb1EEENSA_ISD_EEEC1Ev, symObjAddr: 0xAFC8, symBinAddr: 0xE860, symSize: 0x2C }
  - { offsetInCU: 0x574EF, offset: 0x5E331, size: 0x8, addend: 0x0, symName: __ZNSt3__112__hash_tableINS_17__hash_value_typeINS_10type_indexENS_6vectorIPFbP7_objectRPvENS_9allocatorIS9_EEEEEENS_22__unordered_map_hasherIS2_SD_N8pybind116detail9type_hashENSG_13type_equal_toELb1EEENS_21__unordered_map_equalIS2_SD_SI_SH_Lb1EEENSA_ISD_EEEC2Ev, symObjAddr: 0xB004, symBinAddr: 0xE89C, symSize: 0x7C }
  - { offsetInCU: 0x5751A, offset: 0x5E35C, size: 0x8, addend: 0x0, symName: __ZNSt3__110unique_ptrIA_PNS_16__hash_node_baseIPNS_11__hash_nodeINS_17__hash_value_typeINS_10type_indexENS_6vectorIPFbP7_objectRPvENS_9allocatorISB_EEEEEES8_EEEENS_25__bucket_list_deallocatorINSC_ISJ_EEEEEC1B7v160006ILb1EvEEv, symObjAddr: 0xB080, symBinAddr: 0xE918, symSize: 0x2C }
  - { offsetInCU: 0x5754F, offset: 0x5E391, size: 0x8, addend: 0x0, symName: __ZNSt3__117__compressed_pairINS_16__hash_node_baseIPNS_11__hash_nodeINS_17__hash_value_typeINS_10type_indexENS_6vectorIPFbP7_objectRPvENS_9allocatorISB_EEEEEES8_EEEENSC_ISG_EEEC1B7v160006ILb1EvEEv, symObjAddr: 0xB0AC, symBinAddr: 0xE944, symSize: 0x2C }
  - { offsetInCU: 0x57584, offset: 0x5E3C6, size: 0x8, addend: 0x0, symName: __ZNSt3__117__compressed_pairImNS_22__unordered_map_hasherINS_10type_indexENS_17__hash_value_typeIS2_NS_6vectorIPFbP7_objectRPvENS_9allocatorISA_EEEEEEN8pybind116detail9type_hashENSG_13type_equal_toELb1EEEEC1B7v160006IiNS_18__default_init_tagEEEOT_OT0_, symObjAddr: 0xB0D8, symBinAddr: 0xE970, symSize: 0x3C }
  - { offsetInCU: 0x575DB, offset: 0x5E41D, size: 0x8, addend: 0x0, symName: __ZNSt3__117__compressed_pairIfNS_21__unordered_map_equalINS_10type_indexENS_17__hash_value_typeIS2_NS_6vectorIPFbP7_objectRPvENS_9allocatorISA_EEEEEEN8pybind116detail13type_equal_toENSG_9type_hashELb1EEEEC1B7v160006IfNS_18__default_init_tagEEEOT_OT0_, symObjAddr: 0xB114, symBinAddr: 0xE9AC, symSize: 0x3C }
  - { offsetInCU: 0x57632, offset: 0x5E474, size: 0x8, addend: 0x0, symName: __ZNSt3__110unique_ptrIA_PNS_16__hash_node_baseIPNS_11__hash_nodeINS_17__hash_value_typeINS_10type_indexENS_6vectorIPFbP7_objectRPvENS_9allocatorISB_EEEEEES8_EEEENS_25__bucket_list_deallocatorINSC_ISJ_EEEEEC2B7v160006ILb1EvEEv, symObjAddr: 0xB150, symBinAddr: 0xE9E8, symSize: 0x3C }
  - { offsetInCU: 0x57667, offset: 0x5E4A9, size: 0x8, addend: 0x0, symName: __ZNSt3__117__compressed_pairIPPNS_16__hash_node_baseIPNS_11__hash_nodeINS_17__hash_value_typeINS_10type_indexENS_6vectorIPFbP7_objectRPvENS_9allocatorISB_EEEEEES8_EEEENS_25__bucket_list_deallocatorINSC_ISJ_EEEEEC1B7v160006INS_16__value_init_tagESQ_EEOT_OT0_, symObjAddr: 0xB18C, symBinAddr: 0xEA24, symSize: 0x3C }
  - { offsetInCU: 0x576BE, offset: 0x5E500, size: 0x8, addend: 0x0, symName: __ZNSt3__117__compressed_pairIPPNS_16__hash_node_baseIPNS_11__hash_nodeINS_17__hash_value_typeINS_10type_indexENS_6vectorIPFbP7_objectRPvENS_9allocatorISB_EEEEEES8_EEEENS_25__bucket_list_deallocatorINSC_ISJ_EEEEEC2B7v160006INS_16__value_init_tagESQ_EEOT_OT0_, symObjAddr: 0xB1C8, symBinAddr: 0xEA60, symSize: 0x40 }
  - { offsetInCU: 0x57715, offset: 0x5E557, size: 0x8, addend: 0x0, symName: __ZNSt3__122__compressed_pair_elemIPPNS_16__hash_node_baseIPNS_11__hash_nodeINS_17__hash_value_typeINS_10type_indexENS_6vectorIPFbP7_objectRPvENS_9allocatorISB_EEEEEES8_EEEELi0ELb0EEC2B7v160006ENS_16__value_init_tagE, symObjAddr: 0xB208, symBinAddr: 0xEAA0, symSize: 0x18 }
  - { offsetInCU: 0x57749, offset: 0x5E58B, size: 0x8, addend: 0x0, symName: __ZNSt3__122__compressed_pair_elemINS_25__bucket_list_deallocatorINS_9allocatorIPNS_16__hash_node_baseIPNS_11__hash_nodeINS_17__hash_value_typeINS_10type_indexENS_6vectorIPFbP7_objectRPvENS2_ISD_EEEEEESA_EEEEEEEELi1ELb0EEC2B7v160006ENS_16__value_init_tagE, symObjAddr: 0xB220, symBinAddr: 0xEAB8, symSize: 0x2C }
  - { offsetInCU: 0x5777D, offset: 0x5E5BF, size: 0x8, addend: 0x0, symName: __ZNSt3__125__bucket_list_deallocatorINS_9allocatorIPNS_16__hash_node_baseIPNS_11__hash_nodeINS_17__hash_value_typeINS_10type_indexENS_6vectorIPFbP7_objectRPvENS1_ISC_EEEEEES9_EEEEEEEC1B7v160006Ev, symObjAddr: 0xB24C, symBinAddr: 0xEAE4, symSize: 0x2C }
  - { offsetInCU: 0x577A6, offset: 0x5E5E8, size: 0x8, addend: 0x0, symName: __ZNSt3__125__bucket_list_deallocatorINS_9allocatorIPNS_16__hash_node_baseIPNS_11__hash_nodeINS_17__hash_value_typeINS_10type_indexENS_6vectorIPFbP7_objectRPvENS1_ISC_EEEEEES9_EEEEEEEC2B7v160006Ev, symObjAddr: 0xB278, symBinAddr: 0xEB10, symSize: 0x40 }
  - { offsetInCU: 0x577CF, offset: 0x5E611, size: 0x8, addend: 0x0, symName: __ZNSt3__117__compressed_pairImNS_9allocatorIPNS_16__hash_node_baseIPNS_11__hash_nodeINS_17__hash_value_typeINS_10type_indexENS_6vectorIPFbP7_objectRPvENS1_ISC_EEEEEES9_EEEEEEEC1B7v160006IiNS_18__default_init_tagEEEOT_OT0_, symObjAddr: 0xB2B8, symBinAddr: 0xEB50, symSize: 0x3C }
  - { offsetInCU: 0x57826, offset: 0x5E668, size: 0x8, addend: 0x0, symName: __ZNSt3__117__compressed_pairImNS_9allocatorIPNS_16__hash_node_baseIPNS_11__hash_nodeINS_17__hash_value_typeINS_10type_indexENS_6vectorIPFbP7_objectRPvENS1_ISC_EEEEEES9_EEEEEEEC2B7v160006IiNS_18__default_init_tagEEEOT_OT0_, symObjAddr: 0xB2F4, symBinAddr: 0xEB8C, symSize: 0x40 }
  - { offsetInCU: 0x5787D, offset: 0x5E6BF, size: 0x8, addend: 0x0, symName: __ZNSt3__122__compressed_pair_elemINS_9allocatorIPNS_16__hash_node_baseIPNS_11__hash_nodeINS_17__hash_value_typeINS_10type_indexENS_6vectorIPFbP7_objectRPvENS1_ISC_EEEEEES9_EEEEEELi1ELb1EEC2B7v160006ENS_18__default_init_tagE, symObjAddr: 0xB334, symBinAddr: 0xEBCC, symSize: 0x2C }
  - { offsetInCU: 0x578B1, offset: 0x5E6F3, size: 0x8, addend: 0x0, symName: __ZNSt3__19allocatorIPNS_16__hash_node_baseIPNS_11__hash_nodeINS_17__hash_value_typeINS_10type_indexENS_6vectorIPFbP7_objectRPvENS0_ISB_EEEEEES8_EEEEEC2B7v160006Ev, symObjAddr: 0xB360, symBinAddr: 0xEBF8, symSize: 0x2C }
  - { offsetInCU: 0x578DA, offset: 0x5E71C, size: 0x8, addend: 0x0, symName: __ZNSt3__116__non_trivial_ifILb1ENS_9allocatorIPNS_16__hash_node_baseIPNS_11__hash_nodeINS_17__hash_value_typeINS_10type_indexENS_6vectorIPFbP7_objectRPvENS1_ISC_EEEEEES9_EEEEEEEC2B7v160006Ev, symObjAddr: 0xB38C, symBinAddr: 0xEC24, symSize: 0x14 }
  - { offsetInCU: 0x57903, offset: 0x5E745, size: 0x8, addend: 0x0, symName: __ZNSt3__117__compressed_pairINS_16__hash_node_baseIPNS_11__hash_nodeINS_17__hash_value_typeINS_10type_indexENS_6vectorIPFbP7_objectRPvENS_9allocatorISB_EEEEEES8_EEEENSC_ISG_EEEC2B7v160006ILb1EvEEv, symObjAddr: 0xB3A0, symBinAddr: 0xEC38, symSize: 0x34 }
  - { offsetInCU: 0x57938, offset: 0x5E77A, size: 0x8, addend: 0x0, symName: __ZNSt3__122__compressed_pair_elemINS_16__hash_node_baseIPNS_11__hash_nodeINS_17__hash_value_typeINS_10type_indexENS_6vectorIPFbP7_objectRPvENS_9allocatorISB_EEEEEES8_EEEELi0ELb0EEC2B7v160006ENS_16__value_init_tagE, symObjAddr: 0xB3D4, symBinAddr: 0xEC6C, symSize: 0x2C }
  - { offsetInCU: 0x5796C, offset: 0x5E7AE, size: 0x8, addend: 0x0, symName: __ZNSt3__122__compressed_pair_elemINS_9allocatorINS_11__hash_nodeINS_17__hash_value_typeINS_10type_indexENS_6vectorIPFbP7_objectRPvENS1_ISB_EEEEEES8_EEEELi1ELb1EEC2B7v160006ENS_16__value_init_tagE, symObjAddr: 0xB400, symBinAddr: 0xEC98, symSize: 0x2C }
  - { offsetInCU: 0x579A0, offset: 0x5E7E2, size: 0x8, addend: 0x0, symName: __ZNSt3__116__hash_node_baseIPNS_11__hash_nodeINS_17__hash_value_typeINS_10type_indexENS_6vectorIPFbP7_objectRPvENS_9allocatorISA_EEEEEES7_EEEC1B7v160006Ev, symObjAddr: 0xB42C, symBinAddr: 0xECC4, symSize: 0x2C }
  - { offsetInCU: 0x579C9, offset: 0x5E80B, size: 0x8, addend: 0x0, symName: __ZNSt3__116__hash_node_baseIPNS_11__hash_nodeINS_17__hash_value_typeINS_10type_indexENS_6vectorIPFbP7_objectRPvENS_9allocatorISA_EEEEEES7_EEEC2B7v160006Ev, symObjAddr: 0xB458, symBinAddr: 0xECF0, symSize: 0x18 }
  - { offsetInCU: 0x579F2, offset: 0x5E834, size: 0x8, addend: 0x0, symName: __ZNSt3__19allocatorINS_11__hash_nodeINS_17__hash_value_typeINS_10type_indexENS_6vectorIPFbP7_objectRPvENS0_ISA_EEEEEES7_EEEC2B7v160006Ev, symObjAddr: 0xB470, symBinAddr: 0xED08, symSize: 0x2C }
  - { offsetInCU: 0x57A1B, offset: 0x5E85D, size: 0x8, addend: 0x0, symName: __ZNSt3__116__non_trivial_ifILb1ENS_9allocatorINS_11__hash_nodeINS_17__hash_value_typeINS_10type_indexENS_6vectorIPFbP7_objectRPvENS1_ISB_EEEEEES8_EEEEEC2B7v160006Ev, symObjAddr: 0xB49C, symBinAddr: 0xED34, symSize: 0x14 }
  - { offsetInCU: 0x57A44, offset: 0x5E886, size: 0x8, addend: 0x0, symName: __ZNSt3__117__compressed_pairImNS_22__unordered_map_hasherINS_10type_indexENS_17__hash_value_typeIS2_NS_6vectorIPFbP7_objectRPvENS_9allocatorISA_EEEEEEN8pybind116detail9type_hashENSG_13type_equal_toELb1EEEEC2B7v160006IiNS_18__default_init_tagEEEOT_OT0_, symObjAddr: 0xB4B0, symBinAddr: 0xED48, symSize: 0x40 }
  - { offsetInCU: 0x57A9B, offset: 0x5E8DD, size: 0x8, addend: 0x0, symName: __ZNSt3__122__compressed_pair_elemINS_22__unordered_map_hasherINS_10type_indexENS_17__hash_value_typeIS2_NS_6vectorIPFbP7_objectRPvENS_9allocatorISA_EEEEEEN8pybind116detail9type_hashENSG_13type_equal_toELb1EEELi1ELb1EEC2B7v160006ENS_18__default_init_tagE, symObjAddr: 0xB4F0, symBinAddr: 0xED88, symSize: 0x2C }
  - { offsetInCU: 0x57ACF, offset: 0x5E911, size: 0x8, addend: 0x0, symName: __ZNSt3__122__unordered_map_hasherINS_10type_indexENS_17__hash_value_typeIS1_NS_6vectorIPFbP7_objectRPvENS_9allocatorIS9_EEEEEEN8pybind116detail9type_hashENSF_13type_equal_toELb1EEC2B7v160006Ev, symObjAddr: 0xB51C, symBinAddr: 0xEDB4, symSize: 0x14 }
  - { offsetInCU: 0x57AF8, offset: 0x5E93A, size: 0x8, addend: 0x0, symName: __ZNSt3__117__compressed_pairIfNS_21__unordered_map_equalINS_10type_indexENS_17__hash_value_typeIS2_NS_6vectorIPFbP7_objectRPvENS_9allocatorISA_EEEEEEN8pybind116detail13type_equal_toENSG_9type_hashELb1EEEEC2B7v160006IfNS_18__default_init_tagEEEOT_OT0_, symObjAddr: 0xB530, symBinAddr: 0xEDC8, symSize: 0x40 }
  - { offsetInCU: 0x57B4F, offset: 0x5E991, size: 0x8, addend: 0x0, symName: __ZNSt3__122__compressed_pair_elemINS_21__unordered_map_equalINS_10type_indexENS_17__hash_value_typeIS2_NS_6vectorIPFbP7_objectRPvENS_9allocatorISA_EEEEEEN8pybind116detail13type_equal_toENSG_9type_hashELb1EEELi1ELb1EEC2B7v160006ENS_18__default_init_tagE, symObjAddr: 0xB570, symBinAddr: 0xEE08, symSize: 0x2C }
  - { offsetInCU: 0x57B83, offset: 0x5E9C5, size: 0x8, addend: 0x0, symName: __ZNSt3__121__unordered_map_equalINS_10type_indexENS_17__hash_value_typeIS1_NS_6vectorIPFbP7_objectRPvENS_9allocatorIS9_EEEEEEN8pybind116detail13type_equal_toENSF_9type_hashELb1EEC2B7v160006Ev, symObjAddr: 0xB59C, symBinAddr: 0xEE34, symSize: 0x14 }
  - { offsetInCU: 0x57BAC, offset: 0x5E9EE, size: 0x8, addend: 0x0, symName: __ZNSt3__113unordered_mapIPK7_objectNS_6vectorIPS1_NS_9allocatorIS5_EEEENS_4hashIS3_EENS_8equal_toIS3_EENS6_INS_4pairIKS3_S8_EEEEEC2B7v160006Ev, symObjAddr: 0xB5B0, symBinAddr: 0xEE48, symSize: 0x3C }
  - { offsetInCU: 0x57BD5, offset: 0x5EA17, size: 0x8, addend: 0x0, symName: __ZNSt3__112__hash_tableINS_17__hash_value_typeIPK7_objectNS_6vectorIPS2_NS_9allocatorIS6_EEEEEENS_22__unordered_map_hasherIS4_SA_NS_4hashIS4_EENS_8equal_toIS4_EELb1EEENS_21__unordered_map_equalIS4_SA_SF_SD_Lb1EEENS7_ISA_EEEC1Ev, symObjAddr: 0xB5EC, symBinAddr: 0xEE84, symSize: 0x2C }
  - { offsetInCU: 0x57C00, offset: 0x5EA42, size: 0x8, addend: 0x0, symName: __ZNSt3__112__hash_tableINS_17__hash_value_typeIPK7_objectNS_6vectorIPS2_NS_9allocatorIS6_EEEEEENS_22__unordered_map_hasherIS4_SA_NS_4hashIS4_EENS_8equal_toIS4_EELb1EEENS_21__unordered_map_equalIS4_SA_SF_SD_Lb1EEENS7_ISA_EEEC2Ev, symObjAddr: 0xB628, symBinAddr: 0xEEC0, symSize: 0x7C }
  - { offsetInCU: 0x57C2B, offset: 0x5EA6D, size: 0x8, addend: 0x0, symName: __ZNSt3__110unique_ptrIA_PNS_16__hash_node_baseIPNS_11__hash_nodeINS_17__hash_value_typeIPK7_objectNS_6vectorIPS4_NS_9allocatorIS8_EEEEEEPvEEEENS_25__bucket_list_deallocatorINS9_ISH_EEEEEC1B7v160006ILb1EvEEv, symObjAddr: 0xB6A4, symBinAddr: 0xEF3C, symSize: 0x2C }
  - { offsetInCU: 0x57C60, offset: 0x5EAA2, size: 0x8, addend: 0x0, symName: __ZNSt3__117__compressed_pairINS_16__hash_node_baseIPNS_11__hash_nodeINS_17__hash_value_typeIPK7_objectNS_6vectorIPS4_NS_9allocatorIS8_EEEEEEPvEEEENS9_ISE_EEEC1B7v160006ILb1EvEEv, symObjAddr: 0xB6D0, symBinAddr: 0xEF68, symSize: 0x2C }
  - { offsetInCU: 0x57C95, offset: 0x5EAD7, size: 0x8, addend: 0x0, symName: __ZNSt3__117__compressed_pairImNS_22__unordered_map_hasherIPK7_objectNS_17__hash_value_typeIS4_NS_6vectorIPS2_NS_9allocatorIS7_EEEEEENS_4hashIS4_EENS_8equal_toIS4_EELb1EEEEC1B7v160006IiNS_18__default_init_tagEEEOT_OT0_, symObjAddr: 0xB6FC, symBinAddr: 0xEF94, symSize: 0x3C }
  - { offsetInCU: 0x57CEC, offset: 0x5EB2E, size: 0x8, addend: 0x0, symName: __ZNSt3__117__compressed_pairIfNS_21__unordered_map_equalIPK7_objectNS_17__hash_value_typeIS4_NS_6vectorIPS2_NS_9allocatorIS7_EEEEEENS_8equal_toIS4_EENS_4hashIS4_EELb1EEEEC1B7v160006IfNS_18__default_init_tagEEEOT_OT0_, symObjAddr: 0xB738, symBinAddr: 0xEFD0, symSize: 0x3C }
  - { offsetInCU: 0x57D43, offset: 0x5EB85, size: 0x8, addend: 0x0, symName: __ZNSt3__110unique_ptrIA_PNS_16__hash_node_baseIPNS_11__hash_nodeINS_17__hash_value_typeIPK7_objectNS_6vectorIPS4_NS_9allocatorIS8_EEEEEEPvEEEENS_25__bucket_list_deallocatorINS9_ISH_EEEEEC2B7v160006ILb1EvEEv, symObjAddr: 0xB774, symBinAddr: 0xF00C, symSize: 0x3C }
  - { offsetInCU: 0x57D78, offset: 0x5EBBA, size: 0x8, addend: 0x0, symName: __ZNSt3__117__compressed_pairIPPNS_16__hash_node_baseIPNS_11__hash_nodeINS_17__hash_value_typeIPK7_objectNS_6vectorIPS4_NS_9allocatorIS8_EEEEEEPvEEEENS_25__bucket_list_deallocatorINS9_ISH_EEEEEC1B7v160006INS_16__value_init_tagESO_EEOT_OT0_, symObjAddr: 0xB7B0, symBinAddr: 0xF048, symSize: 0x3C }
  - { offsetInCU: 0x57DCF, offset: 0x5EC11, size: 0x8, addend: 0x0, symName: __ZNSt3__117__compressed_pairIPPNS_16__hash_node_baseIPNS_11__hash_nodeINS_17__hash_value_typeIPK7_objectNS_6vectorIPS4_NS_9allocatorIS8_EEEEEEPvEEEENS_25__bucket_list_deallocatorINS9_ISH_EEEEEC2B7v160006INS_16__value_init_tagESO_EEOT_OT0_, symObjAddr: 0xB7EC, symBinAddr: 0xF084, symSize: 0x40 }
  - { offsetInCU: 0x57E26, offset: 0x5EC68, size: 0x8, addend: 0x0, symName: __ZNSt3__122__compressed_pair_elemIPPNS_16__hash_node_baseIPNS_11__hash_nodeINS_17__hash_value_typeIPK7_objectNS_6vectorIPS4_NS_9allocatorIS8_EEEEEEPvEEEELi0ELb0EEC2B7v160006ENS_16__value_init_tagE, symObjAddr: 0xB82C, symBinAddr: 0xF0C4, symSize: 0x18 }
  - { offsetInCU: 0x57E5A, offset: 0x5EC9C, size: 0x8, addend: 0x0, symName: __ZNSt3__122__compressed_pair_elemINS_25__bucket_list_deallocatorINS_9allocatorIPNS_16__hash_node_baseIPNS_11__hash_nodeINS_17__hash_value_typeIPK7_objectNS_6vectorIPS6_NS2_ISA_EEEEEEPvEEEEEEEELi1ELb0EEC2B7v160006ENS_16__value_init_tagE, symObjAddr: 0xB844, symBinAddr: 0xF0DC, symSize: 0x2C }
  - { offsetInCU: 0x57E8E, offset: 0x5ECD0, size: 0x8, addend: 0x0, symName: __ZNSt3__125__bucket_list_deallocatorINS_9allocatorIPNS_16__hash_node_baseIPNS_11__hash_nodeINS_17__hash_value_typeIPK7_objectNS_6vectorIPS5_NS1_IS9_EEEEEEPvEEEEEEEC1B7v160006Ev, symObjAddr: 0xB870, symBinAddr: 0xF108, symSize: 0x2C }
  - { offsetInCU: 0x57EB7, offset: 0x5ECF9, size: 0x8, addend: 0x0, symName: __ZNSt3__125__bucket_list_deallocatorINS_9allocatorIPNS_16__hash_node_baseIPNS_11__hash_nodeINS_17__hash_value_typeIPK7_objectNS_6vectorIPS5_NS1_IS9_EEEEEEPvEEEEEEEC2B7v160006Ev, symObjAddr: 0xB89C, symBinAddr: 0xF134, symSize: 0x40 }
  - { offsetInCU: 0x57EE0, offset: 0x5ED22, size: 0x8, addend: 0x0, symName: __ZNSt3__117__compressed_pairImNS_9allocatorIPNS_16__hash_node_baseIPNS_11__hash_nodeINS_17__hash_value_typeIPK7_objectNS_6vectorIPS5_NS1_IS9_EEEEEEPvEEEEEEEC1B7v160006IiNS_18__default_init_tagEEEOT_OT0_, symObjAddr: 0xB8DC, symBinAddr: 0xF174, symSize: 0x3C }
  - { offsetInCU: 0x57F37, offset: 0x5ED79, size: 0x8, addend: 0x0, symName: __ZNSt3__117__compressed_pairImNS_9allocatorIPNS_16__hash_node_baseIPNS_11__hash_nodeINS_17__hash_value_typeIPK7_objectNS_6vectorIPS5_NS1_IS9_EEEEEEPvEEEEEEEC2B7v160006IiNS_18__default_init_tagEEEOT_OT0_, symObjAddr: 0xB918, symBinAddr: 0xF1B0, symSize: 0x40 }
  - { offsetInCU: 0x57F8E, offset: 0x5EDD0, size: 0x8, addend: 0x0, symName: __ZNSt3__122__compressed_pair_elemINS_9allocatorIPNS_16__hash_node_baseIPNS_11__hash_nodeINS_17__hash_value_typeIPK7_objectNS_6vectorIPS5_NS1_IS9_EEEEEEPvEEEEEELi1ELb1EEC2B7v160006ENS_18__default_init_tagE, symObjAddr: 0xB958, symBinAddr: 0xF1F0, symSize: 0x2C }
  - { offsetInCU: 0x57FC2, offset: 0x5EE04, size: 0x8, addend: 0x0, symName: __ZNSt3__19allocatorIPNS_16__hash_node_baseIPNS_11__hash_nodeINS_17__hash_value_typeIPK7_objectNS_6vectorIPS4_NS0_IS8_EEEEEEPvEEEEEC2B7v160006Ev, symObjAddr: 0xB984, symBinAddr: 0xF21C, symSize: 0x2C }
  - { offsetInCU: 0x57FEB, offset: 0x5EE2D, size: 0x8, addend: 0x0, symName: __ZNSt3__116__non_trivial_ifILb1ENS_9allocatorIPNS_16__hash_node_baseIPNS_11__hash_nodeINS_17__hash_value_typeIPK7_objectNS_6vectorIPS5_NS1_IS9_EEEEEEPvEEEEEEEC2B7v160006Ev, symObjAddr: 0xB9B0, symBinAddr: 0xF248, symSize: 0x14 }
  - { offsetInCU: 0x58014, offset: 0x5EE56, size: 0x8, addend: 0x0, symName: __ZNSt3__117__compressed_pairINS_16__hash_node_baseIPNS_11__hash_nodeINS_17__hash_value_typeIPK7_objectNS_6vectorIPS4_NS_9allocatorIS8_EEEEEEPvEEEENS9_ISE_EEEC2B7v160006ILb1EvEEv, symObjAddr: 0xB9C4, symBinAddr: 0xF25C, symSize: 0x34 }
  - { offsetInCU: 0x58049, offset: 0x5EE8B, size: 0x8, addend: 0x0, symName: __ZNSt3__122__compressed_pair_elemINS_16__hash_node_baseIPNS_11__hash_nodeINS_17__hash_value_typeIPK7_objectNS_6vectorIPS4_NS_9allocatorIS8_EEEEEEPvEEEELi0ELb0EEC2B7v160006ENS_16__value_init_tagE, symObjAddr: 0xB9F8, symBinAddr: 0xF290, symSize: 0x2C }
  - { offsetInCU: 0x5807D, offset: 0x5EEBF, size: 0x8, addend: 0x0, symName: __ZNSt3__122__compressed_pair_elemINS_9allocatorINS_11__hash_nodeINS_17__hash_value_typeIPK7_objectNS_6vectorIPS4_NS1_IS8_EEEEEEPvEEEELi1ELb1EEC2B7v160006ENS_16__value_init_tagE, symObjAddr: 0xBA24, symBinAddr: 0xF2BC, symSize: 0x2C }
  - { offsetInCU: 0x580B1, offset: 0x5EEF3, size: 0x8, addend: 0x0, symName: __ZNSt3__116__hash_node_baseIPNS_11__hash_nodeINS_17__hash_value_typeIPK7_objectNS_6vectorIPS3_NS_9allocatorIS7_EEEEEEPvEEEC1B7v160006Ev, symObjAddr: 0xBA50, symBinAddr: 0xF2E8, symSize: 0x2C }
  - { offsetInCU: 0x580DA, offset: 0x5EF1C, size: 0x8, addend: 0x0, symName: __ZNSt3__116__hash_node_baseIPNS_11__hash_nodeINS_17__hash_value_typeIPK7_objectNS_6vectorIPS3_NS_9allocatorIS7_EEEEEEPvEEEC2B7v160006Ev, symObjAddr: 0xBA7C, symBinAddr: 0xF314, symSize: 0x18 }
  - { offsetInCU: 0x58103, offset: 0x5EF45, size: 0x8, addend: 0x0, symName: __ZNSt3__19allocatorINS_11__hash_nodeINS_17__hash_value_typeIPK7_objectNS_6vectorIPS3_NS0_IS7_EEEEEEPvEEEC2B7v160006Ev, symObjAddr: 0xBA94, symBinAddr: 0xF32C, symSize: 0x2C }
  - { offsetInCU: 0x5812C, offset: 0x5EF6E, size: 0x8, addend: 0x0, symName: __ZNSt3__116__non_trivial_ifILb1ENS_9allocatorINS_11__hash_nodeINS_17__hash_value_typeIPK7_objectNS_6vectorIPS4_NS1_IS8_EEEEEEPvEEEEEC2B7v160006Ev, symObjAddr: 0xBAC0, symBinAddr: 0xF358, symSize: 0x14 }
  - { offsetInCU: 0x58155, offset: 0x5EF97, size: 0x8, addend: 0x0, symName: __ZNSt3__117__compressed_pairImNS_22__unordered_map_hasherIPK7_objectNS_17__hash_value_typeIS4_NS_6vectorIPS2_NS_9allocatorIS7_EEEEEENS_4hashIS4_EENS_8equal_toIS4_EELb1EEEEC2B7v160006IiNS_18__default_init_tagEEEOT_OT0_, symObjAddr: 0xBAD4, symBinAddr: 0xF36C, symSize: 0x40 }
  - { offsetInCU: 0x581AC, offset: 0x5EFEE, size: 0x8, addend: 0x0, symName: __ZNSt3__122__compressed_pair_elemINS_22__unordered_map_hasherIPK7_objectNS_17__hash_value_typeIS4_NS_6vectorIPS2_NS_9allocatorIS7_EEEEEENS_4hashIS4_EENS_8equal_toIS4_EELb1EEELi1ELb1EEC2B7v160006ENS_18__default_init_tagE, symObjAddr: 0xBB14, symBinAddr: 0xF3AC, symSize: 0x2C }
  - { offsetInCU: 0x581E0, offset: 0x5F022, size: 0x8, addend: 0x0, symName: __ZNSt3__122__unordered_map_hasherIPK7_objectNS_17__hash_value_typeIS3_NS_6vectorIPS1_NS_9allocatorIS6_EEEEEENS_4hashIS3_EENS_8equal_toIS3_EELb1EEC2B7v160006Ev, symObjAddr: 0xBB40, symBinAddr: 0xF3D8, symSize: 0x14 }
  - { offsetInCU: 0x58209, offset: 0x5F04B, size: 0x8, addend: 0x0, symName: __ZNSt3__117__compressed_pairIfNS_21__unordered_map_equalIPK7_objectNS_17__hash_value_typeIS4_NS_6vectorIPS2_NS_9allocatorIS7_EEEEEENS_8equal_toIS4_EENS_4hashIS4_EELb1EEEEC2B7v160006IfNS_18__default_init_tagEEEOT_OT0_, symObjAddr: 0xBB54, symBinAddr: 0xF3EC, symSize: 0x40 }
  - { offsetInCU: 0x58260, offset: 0x5F0A2, size: 0x8, addend: 0x0, symName: __ZNSt3__122__compressed_pair_elemINS_21__unordered_map_equalIPK7_objectNS_17__hash_value_typeIS4_NS_6vectorIPS2_NS_9allocatorIS7_EEEEEENS_8equal_toIS4_EENS_4hashIS4_EELb1EEELi1ELb1EEC2B7v160006ENS_18__default_init_tagE, symObjAddr: 0xBB94, symBinAddr: 0xF42C, symSize: 0x2C }
  - { offsetInCU: 0x58294, offset: 0x5F0D6, size: 0x8, addend: 0x0, symName: __ZNSt3__121__unordered_map_equalIPK7_objectNS_17__hash_value_typeIS3_NS_6vectorIPS1_NS_9allocatorIS6_EEEEEENS_8equal_toIS3_EENS_4hashIS3_EELb1EEC2B7v160006Ev, symObjAddr: 0xBBC0, symBinAddr: 0xF458, symSize: 0x14 }
  - { offsetInCU: 0x582BD, offset: 0x5F0FF, size: 0x8, addend: 0x0, symName: __ZNSt3__112forward_listIPFvSt13exception_ptrENS_9allocatorIS3_EEEC2B7v160006Ev, symObjAddr: 0xBBD4, symBinAddr: 0xF46C, symSize: 0x2C }
  - { offsetInCU: 0x582E6, offset: 0x5F128, size: 0x8, addend: 0x0, symName: __ZNSt3__119__forward_list_baseIPFvSt13exception_ptrENS_9allocatorIS3_EEEC2B7v160006Ev, symObjAddr: 0xBC00, symBinAddr: 0xF498, symSize: 0x4C }
  - { offsetInCU: 0x5830F, offset: 0x5F151, size: 0x8, addend: 0x0, symName: __ZNSt3__120__forward_begin_nodeIPNS_19__forward_list_nodeIPFvSt13exception_ptrEPvEEEC1B7v160006Ev, symObjAddr: 0xBC4C, symBinAddr: 0xF4E4, symSize: 0x2C }
  - { offsetInCU: 0x5833E, offset: 0x5F180, size: 0x8, addend: 0x0, symName: __ZNSt3__117__compressed_pairINS_20__forward_begin_nodeIPNS_19__forward_list_nodeIPFvSt13exception_ptrEPvEEEENS_9allocatorIS7_EEEC1B7v160006IS9_NS_18__default_init_tagEEEOT_OT0_, symObjAddr: 0xBC78, symBinAddr: 0xF510, symSize: 0x3C }
  - { offsetInCU: 0x58395, offset: 0x5F1D7, size: 0x8, addend: 0x0, symName: __ZNSt3__120__forward_begin_nodeIPNS_19__forward_list_nodeIPFvSt13exception_ptrEPvEEEC2B7v160006Ev, symObjAddr: 0xBCB4, symBinAddr: 0xF54C, symSize: 0x18 }
  - { offsetInCU: 0x583BE, offset: 0x5F200, size: 0x8, addend: 0x0, symName: __ZNSt3__117__compressed_pairINS_20__forward_begin_nodeIPNS_19__forward_list_nodeIPFvSt13exception_ptrEPvEEEENS_9allocatorIS7_EEEC2B7v160006IS9_NS_18__default_init_tagEEEOT_OT0_, symObjAddr: 0xBCCC, symBinAddr: 0xF564, symSize: 0x40 }
  - { offsetInCU: 0x58415, offset: 0x5F257, size: 0x8, addend: 0x0, symName: __ZNSt3__122__compressed_pair_elemINS_20__forward_begin_nodeIPNS_19__forward_list_nodeIPFvSt13exception_ptrEPvEEEELi0ELb0EEC2B7v160006IS9_vEEOT_, symObjAddr: 0xBD0C, symBinAddr: 0xF5A4, symSize: 0x24 }
  - { offsetInCU: 0x58457, offset: 0x5F299, size: 0x8, addend: 0x0, symName: __ZNSt3__122__compressed_pair_elemINS_9allocatorINS_19__forward_list_nodeIPFvSt13exception_ptrEPvEEEELi1ELb1EEC2B7v160006ENS_18__default_init_tagE, symObjAddr: 0xBD30, symBinAddr: 0xF5C8, symSize: 0x2C }
  - { offsetInCU: 0x5848B, offset: 0x5F2CD, size: 0x8, addend: 0x0, symName: __ZNSt3__19allocatorINS_19__forward_list_nodeIPFvSt13exception_ptrEPvEEEC2B7v160006Ev, symObjAddr: 0xBD5C, symBinAddr: 0xF5F4, symSize: 0x2C }
  - { offsetInCU: 0x584B4, offset: 0x5F2F6, size: 0x8, addend: 0x0, symName: __ZNSt3__116__non_trivial_ifILb1ENS_9allocatorINS_19__forward_list_nodeIPFvSt13exception_ptrEPvEEEEEC2B7v160006Ev, symObjAddr: 0xBD88, symBinAddr: 0xF620, symSize: 0x14 }
  - { offsetInCU: 0x584DD, offset: 0x5F31F, size: 0x8, addend: 0x0, symName: __ZNSt3__113unordered_mapINS_12basic_stringIcNS_11char_traitsIcEENS_9allocatorIcEEEEPvNS_4hashIS6_EENS_8equal_toIS6_EENS4_INS_4pairIKS6_S7_EEEEEC2B7v160006Ev, symObjAddr: 0xBD9C, symBinAddr: 0xF634, symSize: 0x3C }
  - { offsetInCU: 0x58506, offset: 0x5F348, size: 0x8, addend: 0x0, symName: __ZNSt3__112__hash_tableINS_17__hash_value_typeINS_12basic_stringIcNS_11char_traitsIcEENS_9allocatorIcEEEEPvEENS_22__unordered_map_hasherIS7_S9_NS_4hashIS7_EENS_8equal_toIS7_EELb1EEENS_21__unordered_map_equalIS7_S9_SE_SC_Lb1EEENS5_IS9_EEEC1Ev, symObjAddr: 0xBDD8, symBinAddr: 0xF670, symSize: 0x2C }
  - { offsetInCU: 0x58531, offset: 0x5F373, size: 0x8, addend: 0x0, symName: __ZNSt3__112__hash_tableINS_17__hash_value_typeINS_12basic_stringIcNS_11char_traitsIcEENS_9allocatorIcEEEEPvEENS_22__unordered_map_hasherIS7_S9_NS_4hashIS7_EENS_8equal_toIS7_EELb1EEENS_21__unordered_map_equalIS7_S9_SE_SC_Lb1EEENS5_IS9_EEEC2Ev, symObjAddr: 0xBE14, symBinAddr: 0xF6AC, symSize: 0x7C }
  - { offsetInCU: 0x5855C, offset: 0x5F39E, size: 0x8, addend: 0x0, symName: __ZNSt3__110unique_ptrIA_PNS_16__hash_node_baseIPNS_11__hash_nodeINS_17__hash_value_typeINS_12basic_stringIcNS_11char_traitsIcEENS_9allocatorIcEEEEPvEESA_EEEENS_25__bucket_list_deallocatorINS7_ISF_EEEEEC1B7v160006ILb1EvEEv, symObjAddr: 0xBE90, symBinAddr: 0xF728, symSize: 0x2C }
  - { offsetInCU: 0x58591, offset: 0x5F3D3, size: 0x8, addend: 0x0, symName: __ZNSt3__117__compressed_pairINS_16__hash_node_baseIPNS_11__hash_nodeINS_17__hash_value_typeINS_12basic_stringIcNS_11char_traitsIcEENS_9allocatorIcEEEEPvEESA_EEEENS7_ISC_EEEC1B7v160006ILb1EvEEv, symObjAddr: 0xBEBC, symBinAddr: 0xF754, symSize: 0x2C }
  - { offsetInCU: 0x585C6, offset: 0x5F408, size: 0x8, addend: 0x0, symName: __ZNSt3__117__compressed_pairImNS_22__unordered_map_hasherINS_12basic_stringIcNS_11char_traitsIcEENS_9allocatorIcEEEENS_17__hash_value_typeIS7_PvEENS_4hashIS7_EENS_8equal_toIS7_EELb1EEEEC1B7v160006IiNS_18__default_init_tagEEEOT_OT0_, symObjAddr: 0xBEE8, symBinAddr: 0xF780, symSize: 0x3C }
  - { offsetInCU: 0x5861D, offset: 0x5F45F, size: 0x8, addend: 0x0, symName: __ZNSt3__117__compressed_pairIfNS_21__unordered_map_equalINS_12basic_stringIcNS_11char_traitsIcEENS_9allocatorIcEEEENS_17__hash_value_typeIS7_PvEENS_8equal_toIS7_EENS_4hashIS7_EELb1EEEEC1B7v160006IfNS_18__default_init_tagEEEOT_OT0_, symObjAddr: 0xBF24, symBinAddr: 0xF7BC, symSize: 0x3C }
  - { offsetInCU: 0x58674, offset: 0x5F4B6, size: 0x8, addend: 0x0, symName: __ZNSt3__110unique_ptrIA_PNS_16__hash_node_baseIPNS_11__hash_nodeINS_17__hash_value_typeINS_12basic_stringIcNS_11char_traitsIcEENS_9allocatorIcEEEEPvEESA_EEEENS_25__bucket_list_deallocatorINS7_ISF_EEEEEC2B7v160006ILb1EvEEv, symObjAddr: 0xBF60, symBinAddr: 0xF7F8, symSize: 0x3C }
  - { offsetInCU: 0x586A9, offset: 0x5F4EB, size: 0x8, addend: 0x0, symName: __ZNSt3__117__compressed_pairIPPNS_16__hash_node_baseIPNS_11__hash_nodeINS_17__hash_value_typeINS_12basic_stringIcNS_11char_traitsIcEENS_9allocatorIcEEEEPvEESA_EEEENS_25__bucket_list_deallocatorINS7_ISF_EEEEEC1B7v160006INS_16__value_init_tagESM_EEOT_OT0_, symObjAddr: 0xBF9C, symBinAddr: 0xF834, symSize: 0x3C }
  - { offsetInCU: 0x58700, offset: 0x5F542, size: 0x8, addend: 0x0, symName: __ZNSt3__117__compressed_pairIPPNS_16__hash_node_baseIPNS_11__hash_nodeINS_17__hash_value_typeINS_12basic_stringIcNS_11char_traitsIcEENS_9allocatorIcEEEEPvEESA_EEEENS_25__bucket_list_deallocatorINS7_ISF_EEEEEC2B7v160006INS_16__value_init_tagESM_EEOT_OT0_, symObjAddr: 0xBFD8, symBinAddr: 0xF870, symSize: 0x40 }
  - { offsetInCU: 0x58757, offset: 0x5F599, size: 0x8, addend: 0x0, symName: __ZNSt3__122__compressed_pair_elemIPPNS_16__hash_node_baseIPNS_11__hash_nodeINS_17__hash_value_typeINS_12basic_stringIcNS_11char_traitsIcEENS_9allocatorIcEEEEPvEESA_EEEELi0ELb0EEC2B7v160006ENS_16__value_init_tagE, symObjAddr: 0xC018, symBinAddr: 0xF8B0, symSize: 0x18 }
  - { offsetInCU: 0x5878B, offset: 0x5F5CD, size: 0x8, addend: 0x0, symName: __ZNSt3__122__compressed_pair_elemINS_25__bucket_list_deallocatorINS_9allocatorIPNS_16__hash_node_baseIPNS_11__hash_nodeINS_17__hash_value_typeINS_12basic_stringIcNS_11char_traitsIcEENS2_IcEEEEPvEESB_EEEEEEEELi1ELb0EEC2B7v160006ENS_16__value_init_tagE, symObjAddr: 0xC030, symBinAddr: 0xF8C8, symSize: 0x2C }
  - { offsetInCU: 0x587BF, offset: 0x5F601, size: 0x8, addend: 0x0, symName: __ZNSt3__125__bucket_list_deallocatorINS_9allocatorIPNS_16__hash_node_baseIPNS_11__hash_nodeINS_17__hash_value_typeINS_12basic_stringIcNS_11char_traitsIcEENS1_IcEEEEPvEESA_EEEEEEEC1B7v160006Ev, symObjAddr: 0xC05C, symBinAddr: 0xF8F4, symSize: 0x2C }
  - { offsetInCU: 0x587E8, offset: 0x5F62A, size: 0x8, addend: 0x0, symName: __ZNSt3__125__bucket_list_deallocatorINS_9allocatorIPNS_16__hash_node_baseIPNS_11__hash_nodeINS_17__hash_value_typeINS_12basic_stringIcNS_11char_traitsIcEENS1_IcEEEEPvEESA_EEEEEEEC2B7v160006Ev, symObjAddr: 0xC088, symBinAddr: 0xF920, symSize: 0x40 }
  - { offsetInCU: 0x58811, offset: 0x5F653, size: 0x8, addend: 0x0, symName: __ZNSt3__117__compressed_pairImNS_9allocatorIPNS_16__hash_node_baseIPNS_11__hash_nodeINS_17__hash_value_typeINS_12basic_stringIcNS_11char_traitsIcEENS1_IcEEEEPvEESA_EEEEEEEC1B7v160006IiNS_18__default_init_tagEEEOT_OT0_, symObjAddr: 0xC0C8, symBinAddr: 0xF960, symSize: 0x3C }
  - { offsetInCU: 0x58868, offset: 0x5F6AA, size: 0x8, addend: 0x0, symName: __ZNSt3__117__compressed_pairImNS_9allocatorIPNS_16__hash_node_baseIPNS_11__hash_nodeINS_17__hash_value_typeINS_12basic_stringIcNS_11char_traitsIcEENS1_IcEEEEPvEESA_EEEEEEEC2B7v160006IiNS_18__default_init_tagEEEOT_OT0_, symObjAddr: 0xC104, symBinAddr: 0xF99C, symSize: 0x40 }
  - { offsetInCU: 0x588BF, offset: 0x5F701, size: 0x8, addend: 0x0, symName: __ZNSt3__122__compressed_pair_elemINS_9allocatorIPNS_16__hash_node_baseIPNS_11__hash_nodeINS_17__hash_value_typeINS_12basic_stringIcNS_11char_traitsIcEENS1_IcEEEEPvEESA_EEEEEELi1ELb1EEC2B7v160006ENS_18__default_init_tagE, symObjAddr: 0xC144, symBinAddr: 0xF9DC, symSize: 0x2C }
  - { offsetInCU: 0x588F3, offset: 0x5F735, size: 0x8, addend: 0x0, symName: __ZNSt3__19allocatorIPNS_16__hash_node_baseIPNS_11__hash_nodeINS_17__hash_value_typeINS_12basic_stringIcNS_11char_traitsIcEENS0_IcEEEEPvEES9_EEEEEC2B7v160006Ev, symObjAddr: 0xC170, symBinAddr: 0xFA08, symSize: 0x2C }
  - { offsetInCU: 0x5891C, offset: 0x5F75E, size: 0x8, addend: 0x0, symName: __ZNSt3__116__non_trivial_ifILb1ENS_9allocatorIPNS_16__hash_node_baseIPNS_11__hash_nodeINS_17__hash_value_typeINS_12basic_stringIcNS_11char_traitsIcEENS1_IcEEEEPvEESA_EEEEEEEC2B7v160006Ev, symObjAddr: 0xC19C, symBinAddr: 0xFA34, symSize: 0x14 }
  - { offsetInCU: 0x58945, offset: 0x5F787, size: 0x8, addend: 0x0, symName: __ZNSt3__117__compressed_pairINS_16__hash_node_baseIPNS_11__hash_nodeINS_17__hash_value_typeINS_12basic_stringIcNS_11char_traitsIcEENS_9allocatorIcEEEEPvEESA_EEEENS7_ISC_EEEC2B7v160006ILb1EvEEv, symObjAddr: 0xC1B0, symBinAddr: 0xFA48, symSize: 0x34 }
  - { offsetInCU: 0x5897A, offset: 0x5F7BC, size: 0x8, addend: 0x0, symName: __ZNSt3__122__compressed_pair_elemINS_16__hash_node_baseIPNS_11__hash_nodeINS_17__hash_value_typeINS_12basic_stringIcNS_11char_traitsIcEENS_9allocatorIcEEEEPvEESA_EEEELi0ELb0EEC2B7v160006ENS_16__value_init_tagE, symObjAddr: 0xC1E4, symBinAddr: 0xFA7C, symSize: 0x2C }
  - { offsetInCU: 0x589AE, offset: 0x5F7F0, size: 0x8, addend: 0x0, symName: __ZNSt3__122__compressed_pair_elemINS_9allocatorINS_11__hash_nodeINS_17__hash_value_typeINS_12basic_stringIcNS_11char_traitsIcEENS1_IcEEEEPvEES9_EEEELi1ELb1EEC2B7v160006ENS_16__value_init_tagE, symObjAddr: 0xC210, symBinAddr: 0xFAA8, symSize: 0x2C }
  - { offsetInCU: 0x589E2, offset: 0x5F824, size: 0x8, addend: 0x0, symName: __ZNSt3__116__hash_node_baseIPNS_11__hash_nodeINS_17__hash_value_typeINS_12basic_stringIcNS_11char_traitsIcEENS_9allocatorIcEEEEPvEES9_EEEC1B7v160006Ev, symObjAddr: 0xC23C, symBinAddr: 0xFAD4, symSize: 0x2C }
  - { offsetInCU: 0x58A0B, offset: 0x5F84D, size: 0x8, addend: 0x0, symName: __ZNSt3__116__hash_node_baseIPNS_11__hash_nodeINS_17__hash_value_typeINS_12basic_stringIcNS_11char_traitsIcEENS_9allocatorIcEEEEPvEES9_EEEC2B7v160006Ev, symObjAddr: 0xC268, symBinAddr: 0xFB00, symSize: 0x18 }
  - { offsetInCU: 0x58A34, offset: 0x5F876, size: 0x8, addend: 0x0, symName: __ZNSt3__19allocatorINS_11__hash_nodeINS_17__hash_value_typeINS_12basic_stringIcNS_11char_traitsIcEENS0_IcEEEEPvEES8_EEEC2B7v160006Ev, symObjAddr: 0xC280, symBinAddr: 0xFB18, symSize: 0x2C }
  - { offsetInCU: 0x58A5D, offset: 0x5F89F, size: 0x8, addend: 0x0, symName: __ZNSt3__116__non_trivial_ifILb1ENS_9allocatorINS_11__hash_nodeINS_17__hash_value_typeINS_12basic_stringIcNS_11char_traitsIcEENS1_IcEEEEPvEES9_EEEEEC2B7v160006Ev, symObjAddr: 0xC2AC, symBinAddr: 0xFB44, symSize: 0x14 }
  - { offsetInCU: 0x58A86, offset: 0x5F8C8, size: 0x8, addend: 0x0, symName: __ZNSt3__117__compressed_pairImNS_22__unordered_map_hasherINS_12basic_stringIcNS_11char_traitsIcEENS_9allocatorIcEEEENS_17__hash_value_typeIS7_PvEENS_4hashIS7_EENS_8equal_toIS7_EELb1EEEEC2B7v160006IiNS_18__default_init_tagEEEOT_OT0_, symObjAddr: 0xC2C0, symBinAddr: 0xFB58, symSize: 0x40 }
  - { offsetInCU: 0x58ADD, offset: 0x5F91F, size: 0x8, addend: 0x0, symName: __ZNSt3__122__compressed_pair_elemINS_22__unordered_map_hasherINS_12basic_stringIcNS_11char_traitsIcEENS_9allocatorIcEEEENS_17__hash_value_typeIS7_PvEENS_4hashIS7_EENS_8equal_toIS7_EELb1EEELi1ELb1EEC2B7v160006ENS_18__default_init_tagE, symObjAddr: 0xC300, symBinAddr: 0xFB98, symSize: 0x2C }
  - { offsetInCU: 0x58B11, offset: 0x5F953, size: 0x8, addend: 0x0, symName: __ZNSt3__122__unordered_map_hasherINS_12basic_stringIcNS_11char_traitsIcEENS_9allocatorIcEEEENS_17__hash_value_typeIS6_PvEENS_4hashIS6_EENS_8equal_toIS6_EELb1EEC2B7v160006Ev, symObjAddr: 0xC32C, symBinAddr: 0xFBC4, symSize: 0x14 }
  - { offsetInCU: 0x58B3A, offset: 0x5F97C, size: 0x8, addend: 0x0, symName: __ZNSt3__117__compressed_pairIfNS_21__unordered_map_equalINS_12basic_stringIcNS_11char_traitsIcEENS_9allocatorIcEEEENS_17__hash_value_typeIS7_PvEENS_8equal_toIS7_EENS_4hashIS7_EELb1EEEEC2B7v160006IfNS_18__default_init_tagEEEOT_OT0_, symObjAddr: 0xC340, symBinAddr: 0xFBD8, symSize: 0x40 }
  - { offsetInCU: 0x58B91, offset: 0x5F9D3, size: 0x8, addend: 0x0, symName: __ZNSt3__122__compressed_pair_elemINS_21__unordered_map_equalINS_12basic_stringIcNS_11char_traitsIcEENS_9allocatorIcEEEENS_17__hash_value_typeIS7_PvEENS_8equal_toIS7_EENS_4hashIS7_EELb1EEELi1ELb1EEC2B7v160006ENS_18__default_init_tagE, symObjAddr: 0xC380, symBinAddr: 0xFC18, symSize: 0x2C }
  - { offsetInCU: 0x58BC5, offset: 0x5FA07, size: 0x8, addend: 0x0, symName: __ZNSt3__121__unordered_map_equalINS_12basic_stringIcNS_11char_traitsIcEENS_9allocatorIcEEEENS_17__hash_value_typeIS6_PvEENS_8equal_toIS6_EENS_4hashIS6_EELb1EEC2B7v160006Ev, symObjAddr: 0xC3AC, symBinAddr: 0xFC44, symSize: 0x14 }
  - { offsetInCU: 0x58BEE, offset: 0x5FA30, size: 0x8, addend: 0x0, symName: __ZNSt3__16vectorIP7_objectNS_9allocatorIS2_EEEC2B7v160006Ev, symObjAddr: 0xC3C0, symBinAddr: 0xFC58, symSize: 0x58 }
  - { offsetInCU: 0x58C1D, offset: 0x5FA5F, size: 0x8, addend: 0x0, symName: __ZNSt3__117__compressed_pairIPP7_objectNS_9allocatorIS2_EEEC1B7v160006IDnNS_18__default_init_tagEEEOT_OT0_, symObjAddr: 0xC418, symBinAddr: 0xFCB0, symSize: 0x3C }
  - { offsetInCU: 0x58C74, offset: 0x5FAB6, size: 0x8, addend: 0x0, symName: __ZNSt3__117__compressed_pairIPP7_objectNS_9allocatorIS2_EEEC2B7v160006IDnNS_18__default_init_tagEEEOT_OT0_, symObjAddr: 0xC464, symBinAddr: 0xFCFC, symSize: 0x40 }
  - { offsetInCU: 0x58CCB, offset: 0x5FB0D, size: 0x8, addend: 0x0, symName: __ZNSt3__122__compressed_pair_elemIPP7_objectLi0ELb0EEC2B7v160006IDnvEEOT_, symObjAddr: 0xC4A4, symBinAddr: 0xFD3C, symSize: 0x1C }
  - { offsetInCU: 0x58D0D, offset: 0x5FB4F, size: 0x8, addend: 0x0, symName: __ZNSt3__122__compressed_pair_elemINS_9allocatorIP7_objectEELi1ELb1EEC2B7v160006ENS_18__default_init_tagE, symObjAddr: 0xC4C0, symBinAddr: 0xFD58, symSize: 0x2C }
  - { offsetInCU: 0x58D41, offset: 0x5FB83, size: 0x8, addend: 0x0, symName: __ZNSt3__19allocatorIP7_objectEC2B7v160006Ev, symObjAddr: 0xC4EC, symBinAddr: 0xFD84, symSize: 0x2C }
  - { offsetInCU: 0x58D6A, offset: 0x5FBAC, size: 0x8, addend: 0x0, symName: __ZNSt3__116__non_trivial_ifILb1ENS_9allocatorIP7_objectEEEC2B7v160006Ev, symObjAddr: 0xC518, symBinAddr: 0xFDB0, symSize: 0x14 }
  - { offsetInCU: 0x58D93, offset: 0x5FBD5, size: 0x8, addend: 0x0, symName: __ZNSt3__112forward_listINS_12basic_stringIcNS_11char_traitsIcEENS_9allocatorIcEEEENS4_IS6_EEEC2B7v160006Ev, symObjAddr: 0xC52C, symBinAddr: 0xFDC4, symSize: 0x2C }
  - { offsetInCU: 0x58DBC, offset: 0x5FBFE, size: 0x8, addend: 0x0, symName: __ZNSt3__119__forward_list_baseINS_12basic_stringIcNS_11char_traitsIcEENS_9allocatorIcEEEENS4_IS6_EEEC2B7v160006Ev, symObjAddr: 0xC558, symBinAddr: 0xFDF0, symSize: 0x4C }
  - { offsetInCU: 0x58DE5, offset: 0x5FC27, size: 0x8, addend: 0x0, symName: __ZNSt3__120__forward_begin_nodeIPNS_19__forward_list_nodeINS_12basic_stringIcNS_11char_traitsIcEENS_9allocatorIcEEEEPvEEEC1B7v160006Ev, symObjAddr: 0xC5A4, symBinAddr: 0xFE3C, symSize: 0x2C }
  - { offsetInCU: 0x58E14, offset: 0x5FC56, size: 0x8, addend: 0x0, symName: __ZNSt3__117__compressed_pairINS_20__forward_begin_nodeIPNS_19__forward_list_nodeINS_12basic_stringIcNS_11char_traitsIcEENS_9allocatorIcEEEEPvEEEENS6_ISA_EEEC1B7v160006ISC_NS_18__default_init_tagEEEOT_OT0_, symObjAddr: 0xC5D0, symBinAddr: 0xFE68, symSize: 0x3C }
  - { offsetInCU: 0x58E6B, offset: 0x5FCAD, size: 0x8, addend: 0x0, symName: __ZNSt3__120__forward_begin_nodeIPNS_19__forward_list_nodeINS_12basic_stringIcNS_11char_traitsIcEENS_9allocatorIcEEEEPvEEEC2B7v160006Ev, symObjAddr: 0xC60C, symBinAddr: 0xFEA4, symSize: 0x18 }
  - { offsetInCU: 0x58E94, offset: 0x5FCD6, size: 0x8, addend: 0x0, symName: __ZNSt3__117__compressed_pairINS_20__forward_begin_nodeIPNS_19__forward_list_nodeINS_12basic_stringIcNS_11char_traitsIcEENS_9allocatorIcEEEEPvEEEENS6_ISA_EEEC2B7v160006ISC_NS_18__default_init_tagEEEOT_OT0_, symObjAddr: 0xC624, symBinAddr: 0xFEBC, symSize: 0x40 }
  - { offsetInCU: 0x58EEB, offset: 0x5FD2D, size: 0x8, addend: 0x0, symName: __ZNSt3__122__compressed_pair_elemINS_20__forward_begin_nodeIPNS_19__forward_list_nodeINS_12basic_stringIcNS_11char_traitsIcEENS_9allocatorIcEEEEPvEEEELi0ELb0EEC2B7v160006ISC_vEEOT_, symObjAddr: 0xC664, symBinAddr: 0xFEFC, symSize: 0x24 }
  - { offsetInCU: 0x58F2D, offset: 0x5FD6F, size: 0x8, addend: 0x0, symName: __ZNSt3__122__compressed_pair_elemINS_9allocatorINS_19__forward_list_nodeINS_12basic_stringIcNS_11char_traitsIcEENS1_IcEEEEPvEEEELi1ELb1EEC2B7v160006ENS_18__default_init_tagE, symObjAddr: 0xC688, symBinAddr: 0xFF20, symSize: 0x2C }
  - { offsetInCU: 0x58F61, offset: 0x5FDA3, size: 0x8, addend: 0x0, symName: __ZNSt3__19allocatorINS_19__forward_list_nodeINS_12basic_stringIcNS_11char_traitsIcEENS0_IcEEEEPvEEEC2B7v160006Ev, symObjAddr: 0xC6B4, symBinAddr: 0xFF4C, symSize: 0x2C }
  - { offsetInCU: 0x58F8A, offset: 0x5FDCC, size: 0x8, addend: 0x0, symName: __ZNSt3__116__non_trivial_ifILb1ENS_9allocatorINS_19__forward_list_nodeINS_12basic_stringIcNS_11char_traitsIcEENS1_IcEEEEPvEEEEEC2B7v160006Ev, symObjAddr: 0xC6E0, symBinAddr: 0xFF78, symSize: 0x14 }
  - { offsetInCU: 0x58FB3, offset: 0x5FDF5, size: 0x8, addend: 0x0, symName: __ZN8pybind117capsuleC2EPKvPKcPFvP7_objectE, symObjAddr: 0xC6F4, symBinAddr: 0xFF8C, symSize: 0xE8 }
  - { offsetInCU: 0x59009, offset: 0x5FE4B, size: 0x8, addend: 0x0, symName: __ZN8pybind116detail17accessor_policies12generic_item3setENS_6handleES3_S3_, symObjAddr: 0xC7DC, symBinAddr: 0x10074, symSize: 0xDC }
  - { offsetInCU: 0x5904B, offset: 0x5FE8D, size: 0x8, addend: 0x0, symName: __ZNKSt16nested_exception10nested_ptrB7v160006Ev, symObjAddr: 0xD26C, symBinAddr: 0x10B04, symSize: 0x3C }
  - { offsetInCU: 0x59070, offset: 0x5FEB2, size: 0x8, addend: 0x0, symName: __ZNSt13exception_ptrC1B7v160006EDn, symObjAddr: 0xD2DC, symBinAddr: 0x10B74, symSize: 0x34 }
  - { offsetInCU: 0x590A4, offset: 0x5FEE6, size: 0x8, addend: 0x0, symName: __ZNSt13exception_ptrC2B7v160006EDn, symObjAddr: 0xD340, symBinAddr: 0x10BD8, symSize: 0x1C }
  - { offsetInCU: 0x590D8, offset: 0x5FF1A, size: 0x8, addend: 0x0, symName: _pybind11_static_get, symObjAddr: 0xD384, symBinAddr: 0x10C1C, symSize: 0x40 }
  - { offsetInCU: 0x5911A, offset: 0x5FF5C, size: 0x8, addend: 0x0, symName: _pybind11_static_set, symObjAddr: 0xD3C4, symBinAddr: 0x10C5C, symSize: 0x84 }
  - { offsetInCU: 0x5916D, offset: 0x5FFAF, size: 0x8, addend: 0x0, symName: _pybind11_meta_call, symObjAddr: 0xD510, symBinAddr: 0x10DA8, symSize: 0x1A8 }
  - { offsetInCU: 0x59213, offset: 0x60055, size: 0x8, addend: 0x0, symName: _pybind11_meta_setattro, symObjAddr: 0xD6B8, symBinAddr: 0x10F50, symSize: 0x128 }
  - { offsetInCU: 0x59282, offset: 0x600C4, size: 0x8, addend: 0x0, symName: _pybind11_meta_getattro, symObjAddr: 0xD7E0, symBinAddr: 0x11078, symSize: 0xA4 }
  - { offsetInCU: 0x592C7, offset: 0x60109, size: 0x8, addend: 0x0, symName: _pybind11_meta_dealloc, symObjAddr: 0xD884, symBinAddr: 0x1111C, symSize: 0x244 }
  - { offsetInCU: 0x5937A, offset: 0x601BC, size: 0x8, addend: 0x0, symName: __ZN8pybind116detail18values_and_holdersC1EPNS0_8instanceE, symObjAddr: 0xDAC8, symBinAddr: 0x11360, symSize: 0x34 }
  - { offsetInCU: 0x593B2, offset: 0x601F4, size: 0x8, addend: 0x0, symName: __ZN8pybind116detail18values_and_holders5beginEv, symObjAddr: 0xDAFC, symBinAddr: 0x11394, symSize: 0x38 }
  - { offsetInCU: 0x593D7, offset: 0x60219, size: 0x8, addend: 0x0, symName: __ZN8pybind116detail18values_and_holders3endEv, symObjAddr: 0xDB34, symBinAddr: 0x113CC, symSize: 0x38 }
  - { offsetInCU: 0x593FC, offset: 0x6023E, size: 0x8, addend: 0x0, symName: __ZNK8pybind116detail18values_and_holders8iteratorneERKS2_, symObjAddr: 0xDB6C, symBinAddr: 0x11404, symSize: 0x30 }
  - { offsetInCU: 0x59430, offset: 0x60272, size: 0x8, addend: 0x0, symName: __ZN8pybind116detail18values_and_holders8iteratordeEv, symObjAddr: 0xDB9C, symBinAddr: 0x11434, symSize: 0x18 }
  - { offsetInCU: 0x59455, offset: 0x60297, size: 0x8, addend: 0x0, symName: __ZNK8pybind116detail16value_and_holder18holder_constructedEv, symObjAddr: 0xDBB4, symBinAddr: 0x1144C, symSize: 0x70 }
  - { offsetInCU: 0x5947A, offset: 0x602BC, size: 0x8, addend: 0x0, symName: __ZN8pybind116detail18values_and_holders8iteratorppEv, symObjAddr: 0xDC24, symBinAddr: 0x114BC, symSize: 0xCC }
  - { offsetInCU: 0x5949F, offset: 0x602E1, size: 0x8, addend: 0x0, symName: __ZN8pybind116detail18values_and_holdersC2EPNS0_8instanceE, symObjAddr: 0xDCF0, symBinAddr: 0x11588, symSize: 0x48 }
  - { offsetInCU: 0x594D7, offset: 0x60319, size: 0x8, addend: 0x0, symName: __ZNKSt3__119__hash_map_iteratorINS_15__hash_iteratorIPNS_11__hash_nodeINS_17__hash_value_typeIP11_typeobjectNS_6vectorIPN8pybind116detail9type_infoENS_9allocatorISA_EEEEEEPvEEEEEptB7v160006Ev, symObjAddr: 0xE344, symBinAddr: 0x11BDC, symSize: 0x2C }
  - { offsetInCU: 0x594FC, offset: 0x6033E, size: 0x8, addend: 0x0, symName: __ZNSt3__113unordered_mapIP11_typeobjectNS_6vectorIPN8pybind116detail9type_infoENS_9allocatorIS7_EEEENS_4hashIS2_EENS_8equal_toIS2_EENS8_INS_4pairIKS2_SA_EEEEE11try_emplaceB7v160006IJEEENSF_INS_19__hash_map_iteratorINS_15__hash_iteratorIPNS_11__hash_nodeINS_17__hash_value_typeIS2_SA_EEPvEEEEEEbEERSG_DpOT_, symObjAddr: 0xE370, symBinAddr: 0x11C08, symSize: 0x84 }
  - { offsetInCU: 0x59535, offset: 0x60377, size: 0x8, addend: 0x0, symName: __ZN8pybind1112cpp_functionC1IZNS_6detail23all_type_info_get_cacheEP11_typeobjectEUlNS_6handleEE_JEvEEOT_DpRKT0_, symObjAddr: 0xE3F4, symBinAddr: 0x11C8C, symSize: 0x34 }
  - { offsetInCU: 0x5958B, offset: 0x603CD, size: 0x8, addend: 0x0, symName: __ZN8pybind117weakrefC1ENS_6handleES1_, symObjAddr: 0xE428, symBinAddr: 0x11CC0, symSize: 0x3C }
  - { offsetInCU: 0x595D2, offset: 0x60414, size: 0x8, addend: 0x0, symName: __ZN8pybind117weakrefD1Ev, symObjAddr: 0xE464, symBinAddr: 0x11CFC, symSize: 0x2C }
  - { offsetInCU: 0x595FE, offset: 0x60440, size: 0x8, addend: 0x0, symName: __ZN8pybind1112cpp_functionD1Ev, symObjAddr: 0xE490, symBinAddr: 0x11D28, symSize: 0x2C }
  - { offsetInCU: 0x5963D, offset: 0x6047F, size: 0x8, addend: 0x0, symName: __ZNSt3__112__hash_tableINS_17__hash_value_typeIP11_typeobjectNS_6vectorIPN8pybind116detail9type_infoENS_9allocatorIS8_EEEEEENS_22__unordered_map_hasherIS3_SC_NS_4hashIS3_EENS_8equal_toIS3_EELb1EEENS_21__unordered_map_equalIS3_SC_SH_SF_Lb1EEENS9_ISC_EEE25__emplace_unique_key_argsIS3_JRKNS_21piecewise_construct_tENS_5tupleIJRKS3_EEENSR_IJEEEEEENS_4pairINS_15__hash_iteratorIPNS_11__hash_nodeISC_PvEEEEbEERKT_DpOT0_, symObjAddr: 0xE4BC, symBinAddr: 0x11D54, symSize: 0x4D0 }
  - { offsetInCU: 0x59746, offset: 0x60588, size: 0x8, addend: 0x0, symName: __ZNSt3__14pairINS_19__hash_map_iteratorINS_15__hash_iteratorIPNS_11__hash_nodeINS_17__hash_value_typeIP11_typeobjectNS_6vectorIPN8pybind116detail9type_infoENS_9allocatorISB_EEEEEEPvEEEEEEbEC1B7v160006ISJ_bLSG_0EEEONS0_IT_T0_EE, symObjAddr: 0xE9BC, symBinAddr: 0x12254, symSize: 0x34 }
  - { offsetInCU: 0x59796, offset: 0x605D8, size: 0x8, addend: 0x0, symName: __ZNSt3__112__hash_tableINS_17__hash_value_typeIP11_typeobjectNS_6vectorIPN8pybind116detail9type_infoENS_9allocatorIS8_EEEEEENS_22__unordered_map_hasherIS3_SC_NS_4hashIS3_EENS_8equal_toIS3_EELb1EEENS_21__unordered_map_equalIS3_SC_SH_SF_Lb1EEENS9_ISC_EEE13hash_functionB7v160006Ev, symObjAddr: 0xE9F0, symBinAddr: 0x12288, symSize: 0x28 }
  - { offsetInCU: 0x597BB, offset: 0x605FD, size: 0x8, addend: 0x0, symName: __ZNKSt3__122__unordered_map_hasherIP11_typeobjectNS_17__hash_value_typeIS2_NS_6vectorIPN8pybind116detail9type_infoENS_9allocatorIS8_EEEEEENS_4hashIS2_EENS_8equal_toIS2_EELb1EEclB7v160006ERKS2_, symObjAddr: 0xEA18, symBinAddr: 0x122B0, symSize: 0x30 }
  - { offsetInCU: 0x597EF, offset: 0x60631, size: 0x8, addend: 0x0, symName: __ZNKSt3__112__hash_tableINS_17__hash_value_typeIP11_typeobjectNS_6vectorIPN8pybind116detail9type_infoENS_9allocatorIS8_EEEEEENS_22__unordered_map_hasherIS3_SC_NS_4hashIS3_EENS_8equal_toIS3_EELb1EEENS_21__unordered_map_equalIS3_SC_SH_SF_Lb1EEENS9_ISC_EEE12bucket_countB7v160006Ev, symObjAddr: 0xEA48, symBinAddr: 0x122E0, symSize: 0x28 }
  - { offsetInCU: 0x59814, offset: 0x60656, size: 0x8, addend: 0x0, symName: __ZNKSt3__110unique_ptrIA_PNS_16__hash_node_baseIPNS_11__hash_nodeINS_17__hash_value_typeIP11_typeobjectNS_6vectorIPN8pybind116detail9type_infoENS_9allocatorISA_EEEEEEPvEEEENS_25__bucket_list_deallocatorINSB_ISJ_EEEEEixB7v160006Em, symObjAddr: 0xEB08, symBinAddr: 0x123A0, symSize: 0x34 }
  - { offsetInCU: 0x59848, offset: 0x6068A, size: 0x8, addend: 0x0, symName: __ZNKSt3__116__hash_node_baseIPNS_11__hash_nodeINS_17__hash_value_typeIP11_typeobjectNS_6vectorIPN8pybind116detail9type_infoENS_9allocatorIS9_EEEEEEPvEEE6__hashB7v160006Ev, symObjAddr: 0xEB3C, symBinAddr: 0x123D4, symSize: 0x18 }
  - { offsetInCU: 0x5986D, offset: 0x606AF, size: 0x8, addend: 0x0, symName: __ZNSt3__112__hash_tableINS_17__hash_value_typeIP11_typeobjectNS_6vectorIPN8pybind116detail9type_infoENS_9allocatorIS8_EEEEEENS_22__unordered_map_hasherIS3_SC_NS_4hashIS3_EENS_8equal_toIS3_EELb1EEENS_21__unordered_map_equalIS3_SC_SH_SF_Lb1EEENS9_ISC_EEE6key_eqB7v160006Ev, symObjAddr: 0xEB54, symBinAddr: 0x123EC, symSize: 0x28 }
  - { offsetInCU: 0x59892, offset: 0x606D4, size: 0x8, addend: 0x0, symName: __ZNKSt3__121__unordered_map_equalIP11_typeobjectNS_17__hash_value_typeIS2_NS_6vectorIPN8pybind116detail9type_infoENS_9allocatorIS8_EEEEEENS_8equal_toIS2_EENS_4hashIS2_EELb1EEclB7v160006ERKSC_RKS2_, symObjAddr: 0xEB7C, symBinAddr: 0x12414, symSize: 0x48 }
  - { offsetInCU: 0x598D5, offset: 0x60717, size: 0x8, addend: 0x0, symName: __ZNSt3__116__hash_node_baseIPNS_11__hash_nodeINS_17__hash_value_typeIP11_typeobjectNS_6vectorIPN8pybind116detail9type_infoENS_9allocatorIS9_EEEEEEPvEEE8__upcastB7v160006Ev, symObjAddr: 0xEBC4, symBinAddr: 0x1245C, symSize: 0x24 }
  - { offsetInCU: 0x598FA, offset: 0x6073C, size: 0x8, addend: 0x0, symName: __ZNSt3__112__hash_tableINS_17__hash_value_typeIP11_typeobjectNS_6vectorIPN8pybind116detail9type_infoENS_9allocatorIS8_EEEEEENS_22__unordered_map_hasherIS3_SC_NS_4hashIS3_EENS_8equal_toIS3_EELb1EEENS_21__unordered_map_equalIS3_SC_SH_SF_Lb1EEENS9_ISC_EEE21__construct_node_hashIRKNS_21piecewise_construct_tEJNS_5tupleIJRKS3_EEENSR_IJEEEEEENS_10unique_ptrINS_11__hash_nodeISC_PvEENS_22__hash_node_destructorINS9_ISZ_EEEEEEmOT_DpOT0_, symObjAddr: 0xEBE8, symBinAddr: 0x12480, symSize: 0x150 }
  - { offsetInCU: 0x59995, offset: 0x607D7, size: 0x8, addend: 0x0, symName: __ZNSt3__112__hash_tableINS_17__hash_value_typeIP11_typeobjectNS_6vectorIPN8pybind116detail9type_infoENS_9allocatorIS8_EEEEEENS_22__unordered_map_hasherIS3_SC_NS_4hashIS3_EENS_8equal_toIS3_EELb1EEENS_21__unordered_map_equalIS3_SC_SH_SF_Lb1EEENS9_ISC_EEE4sizeB7v160006Ev, symObjAddr: 0xED38, symBinAddr: 0x125D0, symSize: 0x28 }
  - { offsetInCU: 0x599BA, offset: 0x607FC, size: 0x8, addend: 0x0, symName: __ZNSt3__112__hash_tableINS_17__hash_value_typeIP11_typeobjectNS_6vectorIPN8pybind116detail9type_infoENS_9allocatorIS8_EEEEEENS_22__unordered_map_hasherIS3_SC_NS_4hashIS3_EENS_8equal_toIS3_EELb1EEENS_21__unordered_map_equalIS3_SC_SH_SF_Lb1EEENS9_ISC_EEE15max_load_factorB7v160006Ev, symObjAddr: 0xED60, symBinAddr: 0x125F8, symSize: 0x28 }
  - { offsetInCU: 0x599DF, offset: 0x60821, size: 0x8, addend: 0x0, symName: __ZNSt3__112__hash_tableINS_17__hash_value_typeIP11_typeobjectNS_6vectorIPN8pybind116detail9type_infoENS_9allocatorIS8_EEEEEENS_22__unordered_map_hasherIS3_SC_NS_4hashIS3_EENS_8equal_toIS3_EELb1EEENS_21__unordered_map_equalIS3_SC_SH_SF_Lb1EEENS9_ISC_EEE15__rehash_uniqueB7v160006Em, symObjAddr: 0xED88, symBinAddr: 0x12620, symSize: 0x2C }
  - { offsetInCU: 0x59A12, offset: 0x60854, size: 0x8, addend: 0x0, symName: __Z4ceilB7v160006f, symObjAddr: 0xEE30, symBinAddr: 0x126C8, symSize: 0x18 }
  - { offsetInCU: 0x59A41, offset: 0x60883, size: 0x8, addend: 0x0, symName: __ZNSt3__117__compressed_pairINS_16__hash_node_baseIPNS_11__hash_nodeINS_17__hash_value_typeIP11_typeobjectNS_6vectorIPN8pybind116detail9type_infoENS_9allocatorISA_EEEEEEPvEEEENSB_ISG_EEE5firstB7v160006Ev, symObjAddr: 0xEE48, symBinAddr: 0x126E0, symSize: 0x24 }
  - { offsetInCU: 0x59A66, offset: 0x608A8, size: 0x8, addend: 0x0, symName: __ZNSt3__116__hash_node_baseIPNS_11__hash_nodeINS_17__hash_value_typeIP11_typeobjectNS_6vectorIPN8pybind116detail9type_infoENS_9allocatorIS9_EEEEEEPvEEE5__ptrB7v160006Ev, symObjAddr: 0xEE6C, symBinAddr: 0x12704, symSize: 0x24 }
  - { offsetInCU: 0x59A8B, offset: 0x608CD, size: 0x8, addend: 0x0, symName: __ZNKSt3__110unique_ptrINS_11__hash_nodeINS_17__hash_value_typeIP11_typeobjectNS_6vectorIPN8pybind116detail9type_infoENS_9allocatorIS9_EEEEEEPvEENS_22__hash_node_destructorINSA_ISF_EEEEEptB7v160006Ev, symObjAddr: 0xEE90, symBinAddr: 0x12728, symSize: 0x28 }
  - { offsetInCU: 0x59AB0, offset: 0x608F2, size: 0x8, addend: 0x0, symName: __ZNKSt3__110unique_ptrINS_11__hash_nodeINS_17__hash_value_typeIP11_typeobjectNS_6vectorIPN8pybind116detail9type_infoENS_9allocatorIS9_EEEEEEPvEENS_22__hash_node_destructorINSA_ISF_EEEEE3getB7v160006Ev, symObjAddr: 0xEEB8, symBinAddr: 0x12750, symSize: 0x28 }
  - { offsetInCU: 0x59AD5, offset: 0x60917, size: 0x8, addend: 0x0, symName: __ZNSt3__110unique_ptrINS_11__hash_nodeINS_17__hash_value_typeIP11_typeobjectNS_6vectorIPN8pybind116detail9type_infoENS_9allocatorIS9_EEEEEEPvEENS_22__hash_node_destructorINSA_ISF_EEEEE7releaseB7v160006Ev, symObjAddr: 0xEEE0, symBinAddr: 0x12778, symSize: 0x44 }
  - { offsetInCU: 0x59B09, offset: 0x6094B, size: 0x8, addend: 0x0, symName: __ZNSt3__110unique_ptrINS_11__hash_nodeINS_17__hash_value_typeIP11_typeobjectNS_6vectorIPN8pybind116detail9type_infoENS_9allocatorIS9_EEEEEEPvEENS_22__hash_node_destructorINSA_ISF_EEEEED1B7v160006Ev, symObjAddr: 0xEF24, symBinAddr: 0x127BC, symSize: 0x2C }
  - { offsetInCU: 0x59B32, offset: 0x60974, size: 0x8, addend: 0x0, symName: __ZNSt3__115__hash_iteratorIPNS_11__hash_nodeINS_17__hash_value_typeIP11_typeobjectNS_6vectorIPN8pybind116detail9type_infoENS_9allocatorIS9_EEEEEEPvEEEC1B7v160006EPNS_16__hash_node_baseISG_EEPKv, symObjAddr: 0xEF50, symBinAddr: 0x127E8, symSize: 0x3C }
  - { offsetInCU: 0x59B7F, offset: 0x609C1, size: 0x8, addend: 0x0, symName: __ZNSt3__14pairINS_15__hash_iteratorIPNS_11__hash_nodeINS_17__hash_value_typeIP11_typeobjectNS_6vectorIPN8pybind116detail9type_infoENS_9allocatorISA_EEEEEEPvEEEEbEC1B7v160006ISI_RbLSF_0EEEOT_OT0_, symObjAddr: 0xEF8C, symBinAddr: 0x12824, symSize: 0x3C }
  - { offsetInCU: 0x59BDC, offset: 0x60A1E, size: 0x8, addend: 0x0, symName: __ZNSt3__117__compressed_pairImNS_22__unordered_map_hasherIP11_typeobjectNS_17__hash_value_typeIS3_NS_6vectorIPN8pybind116detail9type_infoENS_9allocatorIS9_EEEEEENS_4hashIS3_EENS_8equal_toIS3_EELb1EEEE6secondB7v160006Ev, symObjAddr: 0xEFC8, symBinAddr: 0x12860, symSize: 0x24 }
  - { offsetInCU: 0x59C01, offset: 0x60A43, size: 0x8, addend: 0x0, symName: __ZNSt3__122__compressed_pair_elemINS_22__unordered_map_hasherIP11_typeobjectNS_17__hash_value_typeIS3_NS_6vectorIPN8pybind116detail9type_infoENS_9allocatorIS9_EEEEEENS_4hashIS3_EENS_8equal_toIS3_EELb1EEELi1ELb1EE5__getB7v160006Ev, symObjAddr: 0xEFEC, symBinAddr: 0x12884, symSize: 0x14 }
  - { offsetInCU: 0x59C26, offset: 0x60A68, size: 0x8, addend: 0x0, symName: __ZNKSt3__14hashIP11_typeobjectEclB7v160006ES2_, symObjAddr: 0xF000, symBinAddr: 0x12898, symSize: 0x48 }
  - { offsetInCU: 0x59C8B, offset: 0x60ACD, size: 0x8, addend: 0x0, symName: __ZNSt3__121__murmur2_or_cityhashImLm64EEclEPKvm, symObjAddr: 0xF048, symBinAddr: 0x128E0, symSize: 0x410 }
  - { offsetInCU: 0x59D25, offset: 0x60B67, size: 0x8, addend: 0x0, symName: __ZNSt3__121__murmur2_or_cityhashImLm64EE18__hash_len_0_to_16EPKcm, symObjAddr: 0xF458, symBinAddr: 0x12CF0, symSize: 0x1C0 }
  - { offsetInCU: 0x59DFE, offset: 0x60C40, size: 0x8, addend: 0x0, symName: __ZNSt3__121__murmur2_or_cityhashImLm64EE19__hash_len_17_to_32EPKcm, symObjAddr: 0xF618, symBinAddr: 0x12EB0, symSize: 0x130 }
  - { offsetInCU: 0x59E67, offset: 0x60CA9, size: 0x8, addend: 0x0, symName: __ZNSt3__121__murmur2_or_cityhashImLm64EE19__hash_len_33_to_64EPKcm, symObjAddr: 0xF748, symBinAddr: 0x12FE0, symSize: 0x2B8 }
  - { offsetInCU: 0x59F19, offset: 0x60D5B, size: 0x8, addend: 0x0, symName: __ZNSt3__121__murmur2_or_cityhashImLm64EE13__hash_len_16Emm, symObjAddr: 0xFA20, symBinAddr: 0x132B8, symSize: 0x80 }
  - { offsetInCU: 0x59F74, offset: 0x60DB6, size: 0x8, addend: 0x0, symName: __ZNSt3__121__murmur2_or_cityhashImLm64EE29__weak_hash_len_32_with_seedsEPKcmm, symObjAddr: 0xFAA0, symBinAddr: 0x13338, symSize: 0x88 }
  - { offsetInCU: 0x59FB3, offset: 0x60DF5, size: 0x8, addend: 0x0, symName: __ZNSt3__121__murmur2_or_cityhashImLm64EE8__rotateEmi, symObjAddr: 0xFB28, symBinAddr: 0x133C0, symSize: 0x64 }
  - { offsetInCU: 0x59FE4, offset: 0x60E26, size: 0x8, addend: 0x0, symName: __ZNSt3__14pairImmEaSB7v160006EOS1_, symObjAddr: 0xFB8C, symBinAddr: 0x13424, symSize: 0x30 }
  - { offsetInCU: 0x5A018, offset: 0x60E5A, size: 0x8, addend: 0x0, symName: __ZNSt3__121__murmur2_or_cityhashImLm64EE11__shift_mixEm, symObjAddr: 0xFBF8, symBinAddr: 0x13490, symSize: 0x1C }
  - { offsetInCU: 0x5A03B, offset: 0x60E7D, size: 0x8, addend: 0x0, symName: __ZNSt3__121__murmur2_or_cityhashImLm64EE22__rotate_by_at_least_1Emi, symObjAddr: 0xFC14, symBinAddr: 0x134AC, symSize: 0x38 }
  - { offsetInCU: 0x5A06C, offset: 0x60EAE, size: 0x8, addend: 0x0, symName: __ZNSt3__121__murmur2_or_cityhashImLm64EE29__weak_hash_len_32_with_seedsEmmmmmm, symObjAddr: 0xFC6C, symBinAddr: 0x13504, symSize: 0xD8 }
  - { offsetInCU: 0x5A0E9, offset: 0x60F2B, size: 0x8, addend: 0x0, symName: __ZNSt3__14pairImmEC1B7v160006ImmLPv0EEEOT_OT0_, symObjAddr: 0xFD44, symBinAddr: 0x135DC, symSize: 0x3C }
  - { offsetInCU: 0x5A146, offset: 0x60F88, size: 0x8, addend: 0x0, symName: __ZNSt3__14pairImmEC2B7v160006ImmLPv0EEEOT_OT0_, symObjAddr: 0xFD80, symBinAddr: 0x13618, symSize: 0x34 }
  - { offsetInCU: 0x5A1A3, offset: 0x60FE5, size: 0x8, addend: 0x0, symName: __ZNKSt3__110unique_ptrIA_PNS_16__hash_node_baseIPNS_11__hash_nodeINS_17__hash_value_typeIP11_typeobjectNS_6vectorIPN8pybind116detail9type_infoENS_9allocatorISA_EEEEEEPvEEEENS_25__bucket_list_deallocatorINSB_ISJ_EEEEE11get_deleterB7v160006Ev, symObjAddr: 0xFDB4, symBinAddr: 0x1364C, symSize: 0x24 }
  - { offsetInCU: 0x5A1C8, offset: 0x6100A, size: 0x8, addend: 0x0, symName: __ZNKSt3__125__bucket_list_deallocatorINS_9allocatorIPNS_16__hash_node_baseIPNS_11__hash_nodeINS_17__hash_value_typeIP11_typeobjectNS_6vectorIPN8pybind116detail9type_infoENS1_ISB_EEEEEEPvEEEEEEE4sizeB7v160006Ev, symObjAddr: 0xFDD8, symBinAddr: 0x13670, symSize: 0x28 }
  - { offsetInCU: 0x5A1ED, offset: 0x6102F, size: 0x8, addend: 0x0, symName: __ZNKSt3__117__compressed_pairIPPNS_16__hash_node_baseIPNS_11__hash_nodeINS_17__hash_value_typeIP11_typeobjectNS_6vectorIPN8pybind116detail9type_infoENS_9allocatorISA_EEEEEEPvEEEENS_25__bucket_list_deallocatorINSB_ISJ_EEEEE6secondB7v160006Ev, symObjAddr: 0xFE00, symBinAddr: 0x13698, symSize: 0x28 }
  - { offsetInCU: 0x5A212, offset: 0x61054, size: 0x8, addend: 0x0, symName: __ZNKSt3__122__compressed_pair_elemINS_25__bucket_list_deallocatorINS_9allocatorIPNS_16__hash_node_baseIPNS_11__hash_nodeINS_17__hash_value_typeIP11_typeobjectNS_6vectorIPN8pybind116detail9type_infoENS2_ISC_EEEEEEPvEEEEEEEELi1ELb0EE5__getB7v160006Ev, symObjAddr: 0xFE28, symBinAddr: 0x136C0, symSize: 0x14 }
  - { offsetInCU: 0x5A237, offset: 0x61079, size: 0x8, addend: 0x0, symName: __ZNKSt3__117__compressed_pairImNS_9allocatorIPNS_16__hash_node_baseIPNS_11__hash_nodeINS_17__hash_value_typeIP11_typeobjectNS_6vectorIPN8pybind116detail9type_infoENS1_ISB_EEEEEEPvEEEEEEE5firstB7v160006Ev, symObjAddr: 0xFE3C, symBinAddr: 0x136D4, symSize: 0x24 }
  - { offsetInCU: 0x5A25C, offset: 0x6109E, size: 0x8, addend: 0x0, symName: __ZNKSt3__122__compressed_pair_elemImLi0ELb0EE5__getB7v160006Ev, symObjAddr: 0xFE60, symBinAddr: 0x136F8, symSize: 0x14 }
  - { offsetInCU: 0x5A281, offset: 0x610C3, size: 0x8, addend: 0x0, symName: __ZNKSt3__117__compressed_pairIPPNS_16__hash_node_baseIPNS_11__hash_nodeINS_17__hash_value_typeIP11_typeobjectNS_6vectorIPN8pybind116detail9type_infoENS_9allocatorISA_EEEEEEPvEEEENS_25__bucket_list_deallocatorINSB_ISJ_EEEEE5firstB7v160006Ev, symObjAddr: 0xFE74, symBinAddr: 0x1370C, symSize: 0x24 }
  - { offsetInCU: 0x5A2A6, offset: 0x610E8, size: 0x8, addend: 0x0, symName: __ZNKSt3__122__compressed_pair_elemIPPNS_16__hash_node_baseIPNS_11__hash_nodeINS_17__hash_value_typeIP11_typeobjectNS_6vectorIPN8pybind116detail9type_infoENS_9allocatorISA_EEEEEEPvEEEELi0ELb0EE5__getB7v160006Ev, symObjAddr: 0xFE98, symBinAddr: 0x13730, symSize: 0x14 }
  - { offsetInCU: 0x5A2CB, offset: 0x6110D, size: 0x8, addend: 0x0, symName: __ZNSt3__117__compressed_pairIfNS_21__unordered_map_equalIP11_typeobjectNS_17__hash_value_typeIS3_NS_6vectorIPN8pybind116detail9type_infoENS_9allocatorIS9_EEEEEENS_8equal_toIS3_EENS_4hashIS3_EELb1EEEE6secondB7v160006Ev, symObjAddr: 0xFEAC, symBinAddr: 0x13744, symSize: 0x24 }
  - { offsetInCU: 0x5A2F0, offset: 0x61132, size: 0x8, addend: 0x0, symName: __ZNSt3__122__compressed_pair_elemINS_21__unordered_map_equalIP11_typeobjectNS_17__hash_value_typeIS3_NS_6vectorIPN8pybind116detail9type_infoENS_9allocatorIS9_EEEEEENS_8equal_toIS3_EENS_4hashIS3_EELb1EEELi1ELb1EE5__getB7v160006Ev, symObjAddr: 0xFED0, symBinAddr: 0x13768, symSize: 0x14 }
  - { offsetInCU: 0x5A315, offset: 0x61157, size: 0x8, addend: 0x0, symName: __ZNKSt3__18equal_toIP11_typeobjectEclB7v160006ERKS2_S5_, symObjAddr: 0xFEE4, symBinAddr: 0x1377C, symSize: 0x34 }
  - { offsetInCU: 0x5A358, offset: 0x6119A, size: 0x8, addend: 0x0, symName: __ZNKSt3__117__hash_value_typeIP11_typeobjectNS_6vectorIPN8pybind116detail9type_infoENS_9allocatorIS7_EEEEE11__get_valueB7v160006Ev, symObjAddr: 0xFF18, symBinAddr: 0x137B0, symSize: 0x24 }
  - { offsetInCU: 0x5A37D, offset: 0x611BF, size: 0x8, addend: 0x0, symName: __ZNSt3__114pointer_traitsIPNS_16__hash_node_baseIPNS_11__hash_nodeINS_17__hash_value_typeIP11_typeobjectNS_6vectorIPN8pybind116detail9type_infoENS_9allocatorISA_EEEEEEPvEEEEE10pointer_toB7v160006ERSI_, symObjAddr: 0xFF74, symBinAddr: 0x1380C, symSize: 0x14 }
  - { offsetInCU: 0x5A3A0, offset: 0x611E2, size: 0x8, addend: 0x0, symName: __ZNSt3__112__hash_tableINS_17__hash_value_typeIP11_typeobjectNS_6vectorIPN8pybind116detail9type_infoENS_9allocatorIS8_EEEEEENS_22__unordered_map_hasherIS3_SC_NS_4hashIS3_EENS_8equal_toIS3_EELb1EEENS_21__unordered_map_equalIS3_SC_SH_SF_Lb1EEENS9_ISC_EEE12__node_allocB7v160006Ev, symObjAddr: 0xFF88, symBinAddr: 0x13820, symSize: 0x28 }
  - { offsetInCU: 0x5A3C5, offset: 0x61207, size: 0x8, addend: 0x0, symName: __ZNSt3__116allocator_traitsINS_9allocatorINS_11__hash_nodeINS_17__hash_value_typeIP11_typeobjectNS_6vectorIPN8pybind116detail9type_infoENS1_ISA_EEEEEEPvEEEEE8allocateB7v160006ERSG_m, symObjAddr: 0xFFB0, symBinAddr: 0x13848, symSize: 0x2C }
  - { offsetInCU: 0x5A3F8, offset: 0x6123A, size: 0x8, addend: 0x0, symName: __ZNSt3__122__hash_node_destructorINS_9allocatorINS_11__hash_nodeINS_17__hash_value_typeIP11_typeobjectNS_6vectorIPN8pybind116detail9type_infoENS1_ISA_EEEEEEPvEEEEEC1B7v160006ERSG_b, symObjAddr: 0xFFDC, symBinAddr: 0x13874, symSize: 0x48 }
  - { offsetInCU: 0x5A445, offset: 0x61287, size: 0x8, addend: 0x0, symName: __ZNSt3__110unique_ptrINS_11__hash_nodeINS_17__hash_value_typeIP11_typeobjectNS_6vectorIPN8pybind116detail9type_infoENS_9allocatorIS9_EEEEEEPvEENS_22__hash_node_destructorINSA_ISF_EEEEEC1B7v160006ILb1EvEEPSF_NS_16__dependent_typeINS_27__unique_ptr_deleter_sfinaeISI_EEXT_EE20__good_rval_ref_typeE, symObjAddr: 0x10024, symBinAddr: 0x138BC, symSize: 0x3C }
  - { offsetInCU: 0x5A496, offset: 0x612D8, size: 0x8, addend: 0x0, symName: __ZNSt3__116allocator_traitsINS_9allocatorINS_11__hash_nodeINS_17__hash_value_typeIP11_typeobjectNS_6vectorIPN8pybind116detail9type_infoENS1_ISA_EEEEEEPvEEEEE9constructB7v160006INS_4pairIKS5_SC_EEJRKNS_21piecewise_construct_tENS_5tupleIJRSK_EEENSP_IJEEEEvEEvRSG_PT_DpOT0_, symObjAddr: 0x10060, symBinAddr: 0x138F8, symSize: 0x44 }
  - { offsetInCU: 0x5A516, offset: 0x61358, size: 0x8, addend: 0x0, symName: __ZNSt3__122__hash_key_value_typesINS_17__hash_value_typeIP11_typeobjectNS_6vectorIPN8pybind116detail9type_infoENS_9allocatorIS8_EEEEEEE9__get_ptrB7v160006ERSC_, symObjAddr: 0x100A4, symBinAddr: 0x1393C, symSize: 0x24 }
  - { offsetInCU: 0x5A539, offset: 0x6137B, size: 0x8, addend: 0x0, symName: __ZNSt3__110unique_ptrINS_11__hash_nodeINS_17__hash_value_typeIP11_typeobjectNS_6vectorIPN8pybind116detail9type_infoENS_9allocatorIS9_EEEEEEPvEENS_22__hash_node_destructorINSA_ISF_EEEEE11get_deleterB7v160006Ev, symObjAddr: 0x100C8, symBinAddr: 0x13960, symSize: 0x24 }
  - { offsetInCU: 0x5A55E, offset: 0x613A0, size: 0x8, addend: 0x0, symName: __ZNSt3__117__compressed_pairINS_16__hash_node_baseIPNS_11__hash_nodeINS_17__hash_value_typeIP11_typeobjectNS_6vectorIPN8pybind116detail9type_infoENS_9allocatorISA_EEEEEEPvEEEENSB_ISG_EEE6secondB7v160006Ev, symObjAddr: 0x100EC, symBinAddr: 0x13984, symSize: 0x24 }
  - { offsetInCU: 0x5A583, offset: 0x613C5, size: 0x8, addend: 0x0, symName: __ZNSt3__122__compressed_pair_elemINS_9allocatorINS_11__hash_nodeINS_17__hash_value_typeIP11_typeobjectNS_6vectorIPN8pybind116detail9type_infoENS1_ISA_EEEEEEPvEEEELi1ELb1EE5__getB7v160006Ev, symObjAddr: 0x10110, symBinAddr: 0x139A8, symSize: 0x14 }
  - { offsetInCU: 0x5A5A8, offset: 0x613EA, size: 0x8, addend: 0x0, symName: __ZNSt3__19allocatorINS_11__hash_nodeINS_17__hash_value_typeIP11_typeobjectNS_6vectorIPN8pybind116detail9type_infoENS0_IS9_EEEEEEPvEEE8allocateB7v160006Em, symObjAddr: 0x10124, symBinAddr: 0x139BC, symSize: 0x5C }
  - { offsetInCU: 0x5A5E5, offset: 0x61427, size: 0x8, addend: 0x0, symName: __ZNSt3__116allocator_traitsINS_9allocatorINS_11__hash_nodeINS_17__hash_value_typeIP11_typeobjectNS_6vectorIPN8pybind116detail9type_infoENS1_ISA_EEEEEEPvEEEEE8max_sizeB7v160006ISG_vEEmRKSG_, symObjAddr: 0x10180, symBinAddr: 0x13A18, symSize: 0x24 }
  - { offsetInCU: 0x5A614, offset: 0x61456, size: 0x8, addend: 0x0, symName: __ZNKSt3__19allocatorINS_11__hash_nodeINS_17__hash_value_typeIP11_typeobjectNS_6vectorIPN8pybind116detail9type_infoENS0_IS9_EEEEEEPvEEE8max_sizeB7v160006Ev, symObjAddr: 0x101A4, symBinAddr: 0x13A3C, symSize: 0x18 }
  - { offsetInCU: 0x5A639, offset: 0x6147B, size: 0x8, addend: 0x0, symName: __ZNSt3__122__hash_node_destructorINS_9allocatorINS_11__hash_nodeINS_17__hash_value_typeIP11_typeobjectNS_6vectorIPN8pybind116detail9type_infoENS1_ISA_EEEEEEPvEEEEEC2B7v160006ERSG_b, symObjAddr: 0x101BC, symBinAddr: 0x13A54, symSize: 0x38 }
  - { offsetInCU: 0x5A680, offset: 0x614C2, size: 0x8, addend: 0x0, symName: __ZNSt3__110unique_ptrINS_11__hash_nodeINS_17__hash_value_typeIP11_typeobjectNS_6vectorIPN8pybind116detail9type_infoENS_9allocatorIS9_EEEEEEPvEENS_22__hash_node_destructorINSA_ISF_EEEEEC2B7v160006ILb1EvEEPSF_NS_16__dependent_typeINS_27__unique_ptr_deleter_sfinaeISI_EEXT_EE20__good_rval_ref_typeE, symObjAddr: 0x101F4, symBinAddr: 0x13A8C, symSize: 0x48 }
  - { offsetInCU: 0x5A6D1, offset: 0x61513, size: 0x8, addend: 0x0, symName: __ZNSt3__117__compressed_pairIPNS_11__hash_nodeINS_17__hash_value_typeIP11_typeobjectNS_6vectorIPN8pybind116detail9type_infoENS_9allocatorIS9_EEEEEEPvEENS_22__hash_node_destructorINSA_ISF_EEEEEC1B7v160006IRSG_SJ_EEOT_OT0_, symObjAddr: 0x1023C, symBinAddr: 0x13AD4, symSize: 0x3C }
  - { offsetInCU: 0x5A728, offset: 0x6156A, size: 0x8, addend: 0x0, symName: __ZNSt3__117__compressed_pairIPNS_11__hash_nodeINS_17__hash_value_typeIP11_typeobjectNS_6vectorIPN8pybind116detail9type_infoENS_9allocatorIS9_EEEEEEPvEENS_22__hash_node_destructorINSA_ISF_EEEEEC2B7v160006IRSG_SJ_EEOT_OT0_, symObjAddr: 0x10278, symBinAddr: 0x13B10, symSize: 0x48 }
  - { offsetInCU: 0x5A77F, offset: 0x615C1, size: 0x8, addend: 0x0, symName: __ZNSt3__122__compressed_pair_elemIPNS_11__hash_nodeINS_17__hash_value_typeIP11_typeobjectNS_6vectorIPN8pybind116detail9type_infoENS_9allocatorIS9_EEEEEEPvEELi0ELb0EEC2B7v160006IRSG_vEEOT_, symObjAddr: 0x102C0, symBinAddr: 0x13B58, symSize: 0x24 }
  - { offsetInCU: 0x5A7C1, offset: 0x61603, size: 0x8, addend: 0x0, symName: __ZNSt3__122__compressed_pair_elemINS_22__hash_node_destructorINS_9allocatorINS_11__hash_nodeINS_17__hash_value_typeIP11_typeobjectNS_6vectorIPN8pybind116detail9type_infoENS2_ISB_EEEEEEPvEEEEEELi1ELb0EEC2B7v160006ISI_vEEOT_, symObjAddr: 0x102E4, symBinAddr: 0x13B7C, symSize: 0x24 }
  - { offsetInCU: 0x5A803, offset: 0x61645, size: 0x8, addend: 0x0, symName: __ZNSt3__19allocatorINS_11__hash_nodeINS_17__hash_value_typeIP11_typeobjectNS_6vectorIPN8pybind116detail9type_infoENS0_IS9_EEEEEEPvEEE9constructB7v160006INS_4pairIKS4_SB_EEJRKNS_21piecewise_construct_tENS_5tupleIJRSI_EEENSN_IJEEEEEEvPT_DpOT0_, symObjAddr: 0x10308, symBinAddr: 0x13BA0, symSize: 0x44 }
  - { offsetInCU: 0x5A87E, offset: 0x616C0, size: 0x8, addend: 0x0, symName: __ZNSt3__14pairIKP11_typeobjectNS_6vectorIPN8pybind116detail9type_infoENS_9allocatorIS8_EEEEEC1B7v160006IJRS3_EJEEENS_21piecewise_construct_tENS_5tupleIJDpT_EEENSG_IJDpT0_EEE, symObjAddr: 0x1034C, symBinAddr: 0x13BE4, symSize: 0x44 }
  - { offsetInCU: 0x5A8E4, offset: 0x61726, size: 0x8, addend: 0x0, symName: __ZNSt3__14pairIKP11_typeobjectNS_6vectorIPN8pybind116detail9type_infoENS_9allocatorIS8_EEEEEC1B7v160006IJRS3_EJEJLm0EEJEEENS_21piecewise_construct_tERNS_5tupleIJDpT_EEERNSG_IJDpT0_EEENS_15__tuple_indicesIJXspT1_EEEENSP_IJXspT2_EEEE, symObjAddr: 0x10390, symBinAddr: 0x13C28, symSize: 0x3C }
  - { offsetInCU: 0x5A973, offset: 0x617B5, size: 0x8, addend: 0x0, symName: __ZNSt3__14pairIKP11_typeobjectNS_6vectorIPN8pybind116detail9type_infoENS_9allocatorIS8_EEEEEC2B7v160006IJRS3_EJEJLm0EEJEEENS_21piecewise_construct_tERNS_5tupleIJDpT_EEERNSG_IJDpT0_EEENS_15__tuple_indicesIJXspT1_EEEENSP_IJXspT2_EEEE, symObjAddr: 0x103CC, symBinAddr: 0x13C64, symSize: 0x4C }
  - { offsetInCU: 0x5AA02, offset: 0x61844, size: 0x8, addend: 0x0, symName: __ZNSt3__16vectorIPN8pybind116detail9type_infoENS_9allocatorIS4_EEEC1B7v160006Ev, symObjAddr: 0x1043C, symBinAddr: 0x13CD4, symSize: 0x2C }
  - { offsetInCU: 0x5AA2B, offset: 0x6186D, size: 0x8, addend: 0x0, symName: __ZNSt3__112__tuple_leafILm0ERKP11_typeobjectLb0EE3getB7v160006Ev, symObjAddr: 0x10468, symBinAddr: 0x13D00, symSize: 0x18 }
  - { offsetInCU: 0x5AA50, offset: 0x61892, size: 0x8, addend: 0x0, symName: __ZNSt3__16vectorIPN8pybind116detail9type_infoENS_9allocatorIS4_EEEC2B7v160006Ev, symObjAddr: 0x10480, symBinAddr: 0x13D18, symSize: 0x58 }
  - { offsetInCU: 0x5AA79, offset: 0x618BB, size: 0x8, addend: 0x0, symName: __ZNSt3__117__compressed_pairIPPN8pybind116detail9type_infoENS_9allocatorIS4_EEEC1B7v160006IDnNS_18__default_init_tagEEEOT_OT0_, symObjAddr: 0x104D8, symBinAddr: 0x13D70, symSize: 0x3C }
  - { offsetInCU: 0x5AAD0, offset: 0x61912, size: 0x8, addend: 0x0, symName: __ZNSt3__117__compressed_pairIPPN8pybind116detail9type_infoENS_9allocatorIS4_EEEC2B7v160006IDnNS_18__default_init_tagEEEOT_OT0_, symObjAddr: 0x10524, symBinAddr: 0x13DBC, symSize: 0x40 }
  - { offsetInCU: 0x5AB27, offset: 0x61969, size: 0x8, addend: 0x0, symName: __ZNSt3__122__compressed_pair_elemIPPN8pybind116detail9type_infoELi0ELb0EEC2B7v160006IDnvEEOT_, symObjAddr: 0x10564, symBinAddr: 0x13DFC, symSize: 0x1C }
  - { offsetInCU: 0x5AB69, offset: 0x619AB, size: 0x8, addend: 0x0, symName: __ZNSt3__122__compressed_pair_elemINS_9allocatorIPN8pybind116detail9type_infoEEELi1ELb1EEC2B7v160006ENS_18__default_init_tagE, symObjAddr: 0x10580, symBinAddr: 0x13E18, symSize: 0x2C }
  - { offsetInCU: 0x5AB9D, offset: 0x619DF, size: 0x8, addend: 0x0, symName: __ZNSt3__19allocatorIPN8pybind116detail9type_infoEEC2B7v160006Ev, symObjAddr: 0x105AC, symBinAddr: 0x13E44, symSize: 0x2C }
  - { offsetInCU: 0x5ABC6, offset: 0x61A08, size: 0x8, addend: 0x0, symName: __ZNSt3__116__non_trivial_ifILb1ENS_9allocatorIPN8pybind116detail9type_infoEEEEC2B7v160006Ev, symObjAddr: 0x105D8, symBinAddr: 0x13E70, symSize: 0x14 }
  - { offsetInCU: 0x5ABEF, offset: 0x61A31, size: 0x8, addend: 0x0, symName: __ZNSt3__117__hash_value_typeIP11_typeobjectNS_6vectorIPN8pybind116detail9type_infoENS_9allocatorIS7_EEEEE11__get_valueB7v160006Ev, symObjAddr: 0x105EC, symBinAddr: 0x13E84, symSize: 0x24 }
  - { offsetInCU: 0x5AC14, offset: 0x61A56, size: 0x8, addend: 0x0, symName: __ZNSt3__117__compressed_pairIPNS_11__hash_nodeINS_17__hash_value_typeIP11_typeobjectNS_6vectorIPN8pybind116detail9type_infoENS_9allocatorIS9_EEEEEEPvEENS_22__hash_node_destructorINSA_ISF_EEEEE6secondB7v160006Ev, symObjAddr: 0x10648, symBinAddr: 0x13EE0, symSize: 0x28 }
  - { offsetInCU: 0x5AC39, offset: 0x61A7B, size: 0x8, addend: 0x0, symName: __ZNSt3__122__compressed_pair_elemINS_22__hash_node_destructorINS_9allocatorINS_11__hash_nodeINS_17__hash_value_typeIP11_typeobjectNS_6vectorIPN8pybind116detail9type_infoENS2_ISB_EEEEEEPvEEEEEELi1ELb0EE5__getB7v160006Ev, symObjAddr: 0x10670, symBinAddr: 0x13F08, symSize: 0x14 }
  - { offsetInCU: 0x5AC5E, offset: 0x61AA0, size: 0x8, addend: 0x0, symName: __ZNSt3__117__compressed_pairImNS_22__unordered_map_hasherIP11_typeobjectNS_17__hash_value_typeIS3_NS_6vectorIPN8pybind116detail9type_infoENS_9allocatorIS9_EEEEEENS_4hashIS3_EENS_8equal_toIS3_EELb1EEEE5firstB7v160006Ev, symObjAddr: 0x10684, symBinAddr: 0x13F1C, symSize: 0x24 }
  - { offsetInCU: 0x5AC83, offset: 0x61AC5, size: 0x8, addend: 0x0, symName: __ZNSt3__122__compressed_pair_elemImLi0ELb0EE5__getB7v160006Ev, symObjAddr: 0x106A8, symBinAddr: 0x13F40, symSize: 0x14 }
  - { offsetInCU: 0x5ACA8, offset: 0x61AEA, size: 0x8, addend: 0x0, symName: __ZNSt3__117__compressed_pairIfNS_21__unordered_map_equalIP11_typeobjectNS_17__hash_value_typeIS3_NS_6vectorIPN8pybind116detail9type_infoENS_9allocatorIS9_EEEEEENS_8equal_toIS3_EENS_4hashIS3_EELb1EEEE5firstB7v160006Ev, symObjAddr: 0x106BC, symBinAddr: 0x13F54, symSize: 0x24 }
  - { offsetInCU: 0x5ACCD, offset: 0x61B0F, size: 0x8, addend: 0x0, symName: __ZNSt3__122__compressed_pair_elemIfLi0ELb0EE5__getB7v160006Ev, symObjAddr: 0x106E0, symBinAddr: 0x13F78, symSize: 0x14 }
  - { offsetInCU: 0x5ACF2, offset: 0x61B34, size: 0x8, addend: 0x0, symName: __ZNSt3__112__hash_tableINS_17__hash_value_typeIP11_typeobjectNS_6vectorIPN8pybind116detail9type_infoENS_9allocatorIS8_EEEEEENS_22__unordered_map_hasherIS3_SC_NS_4hashIS3_EENS_8equal_toIS3_EELb1EEENS_21__unordered_map_equalIS3_SC_SH_SF_Lb1EEENS9_ISC_EEE8__rehashILb1EEEvm, symObjAddr: 0x106F4, symBinAddr: 0x13F8C, symSize: 0x1A8 }
  - { offsetInCU: 0x5AD41, offset: 0x61B83, size: 0x8, addend: 0x0, symName: __ZNSt3__112__hash_tableINS_17__hash_value_typeIP11_typeobjectNS_6vectorIPN8pybind116detail9type_infoENS_9allocatorIS8_EEEEEENS_22__unordered_map_hasherIS3_SC_NS_4hashIS3_EENS_8equal_toIS3_EELb1EEENS_21__unordered_map_equalIS3_SC_SH_SF_Lb1EEENS9_ISC_EEE11__do_rehashILb1EEEvm, symObjAddr: 0x1089C, symBinAddr: 0x14134, symSize: 0x290 }
  - { offsetInCU: 0x5AE23, offset: 0x61C65, size: 0x8, addend: 0x0, symName: __ZNSt3__110unique_ptrIA_PNS_16__hash_node_baseIPNS_11__hash_nodeINS_17__hash_value_typeIP11_typeobjectNS_6vectorIPN8pybind116detail9type_infoENS_9allocatorISA_EEEEEEPvEEEENS_25__bucket_list_deallocatorINSB_ISJ_EEEEE11get_deleterB7v160006Ev, symObjAddr: 0x10BA8, symBinAddr: 0x14440, symSize: 0x24 }
  - { offsetInCU: 0x5AE48, offset: 0x61C8A, size: 0x8, addend: 0x0, symName: __ZNSt3__125__bucket_list_deallocatorINS_9allocatorIPNS_16__hash_node_baseIPNS_11__hash_nodeINS_17__hash_value_typeIP11_typeobjectNS_6vectorIPN8pybind116detail9type_infoENS1_ISB_EEEEEEPvEEEEEEE7__allocB7v160006Ev, symObjAddr: 0x10BCC, symBinAddr: 0x14464, symSize: 0x24 }
  - { offsetInCU: 0x5AE6D, offset: 0x61CAF, size: 0x8, addend: 0x0, symName: __ZNSt3__110unique_ptrIA_PNS_16__hash_node_baseIPNS_11__hash_nodeINS_17__hash_value_typeIP11_typeobjectNS_6vectorIPN8pybind116detail9type_infoENS_9allocatorISA_EEEEEEPvEEEENS_25__bucket_list_deallocatorINSB_ISJ_EEEEE5resetB7v160006IPSJ_EENS_9enable_ifIXsr28_CheckArrayPointerConversionIT_EE5valueEvE4typeESS_, symObjAddr: 0x10BF0, symBinAddr: 0x14488, symSize: 0x78 }
  - { offsetInCU: 0x5AEB9, offset: 0x61CFB, size: 0x8, addend: 0x0, symName: __ZNSt3__116allocator_traitsINS_9allocatorIPNS_16__hash_node_baseIPNS_11__hash_nodeINS_17__hash_value_typeIP11_typeobjectNS_6vectorIPN8pybind116detail9type_infoENS1_ISB_EEEEEEPvEEEEEEE8allocateB7v160006ERSK_m, symObjAddr: 0x10C68, symBinAddr: 0x14500, symSize: 0x2C }
  - { offsetInCU: 0x5AEEC, offset: 0x61D2E, size: 0x8, addend: 0x0, symName: __ZNSt3__125__bucket_list_deallocatorINS_9allocatorIPNS_16__hash_node_baseIPNS_11__hash_nodeINS_17__hash_value_typeIP11_typeobjectNS_6vectorIPN8pybind116detail9type_infoENS1_ISB_EEEEEEPvEEEEEEE4sizeB7v160006Ev, symObjAddr: 0x10C94, symBinAddr: 0x1452C, symSize: 0x24 }
  - { offsetInCU: 0x5AF11, offset: 0x61D53, size: 0x8, addend: 0x0, symName: __ZNSt3__117__compressed_pairIPPNS_16__hash_node_baseIPNS_11__hash_nodeINS_17__hash_value_typeIP11_typeobjectNS_6vectorIPN8pybind116detail9type_infoENS_9allocatorISA_EEEEEEPvEEEENS_25__bucket_list_deallocatorINSB_ISJ_EEEEE6secondB7v160006Ev, symObjAddr: 0x10CB8, symBinAddr: 0x14550, symSize: 0x28 }
  - { offsetInCU: 0x5AF36, offset: 0x61D78, size: 0x8, addend: 0x0, symName: __ZNSt3__122__compressed_pair_elemINS_25__bucket_list_deallocatorINS_9allocatorIPNS_16__hash_node_baseIPNS_11__hash_nodeINS_17__hash_value_typeIP11_typeobjectNS_6vectorIPN8pybind116detail9type_infoENS2_ISC_EEEEEEPvEEEEEEEELi1ELb0EE5__getB7v160006Ev, symObjAddr: 0x10CE0, symBinAddr: 0x14578, symSize: 0x14 }
  - { offsetInCU: 0x5AF5B, offset: 0x61D9D, size: 0x8, addend: 0x0, symName: __ZNSt3__117__compressed_pairImNS_9allocatorIPNS_16__hash_node_baseIPNS_11__hash_nodeINS_17__hash_value_typeIP11_typeobjectNS_6vectorIPN8pybind116detail9type_infoENS1_ISB_EEEEEEPvEEEEEEE6secondB7v160006Ev, symObjAddr: 0x10CF4, symBinAddr: 0x1458C, symSize: 0x24 }
  - { offsetInCU: 0x5AF80, offset: 0x61DC2, size: 0x8, addend: 0x0, symName: __ZNSt3__122__compressed_pair_elemINS_9allocatorIPNS_16__hash_node_baseIPNS_11__hash_nodeINS_17__hash_value_typeIP11_typeobjectNS_6vectorIPN8pybind116detail9type_infoENS1_ISB_EEEEEEPvEEEEEELi1ELb1EE5__getB7v160006Ev, symObjAddr: 0x10D18, symBinAddr: 0x145B0, symSize: 0x14 }
  - { offsetInCU: 0x5AFA5, offset: 0x61DE7, size: 0x8, addend: 0x0, symName: __ZNSt3__117__compressed_pairIPPNS_16__hash_node_baseIPNS_11__hash_nodeINS_17__hash_value_typeIP11_typeobjectNS_6vectorIPN8pybind116detail9type_infoENS_9allocatorISA_EEEEEEPvEEEENS_25__bucket_list_deallocatorINSB_ISJ_EEEEE5firstB7v160006Ev, symObjAddr: 0x10D2C, symBinAddr: 0x145C4, symSize: 0x24 }
  - { offsetInCU: 0x5AFCA, offset: 0x61E0C, size: 0x8, addend: 0x0, symName: __ZNSt3__125__bucket_list_deallocatorINS_9allocatorIPNS_16__hash_node_baseIPNS_11__hash_nodeINS_17__hash_value_typeIP11_typeobjectNS_6vectorIPN8pybind116detail9type_infoENS1_ISB_EEEEEEPvEEEEEEEclB7v160006EPSJ_, symObjAddr: 0x10D50, symBinAddr: 0x145E8, symSize: 0x58 }
  - { offsetInCU: 0x5AFFE, offset: 0x61E40, size: 0x8, addend: 0x0, symName: __ZNSt3__122__compressed_pair_elemIPPNS_16__hash_node_baseIPNS_11__hash_nodeINS_17__hash_value_typeIP11_typeobjectNS_6vectorIPN8pybind116detail9type_infoENS_9allocatorISA_EEEEEEPvEEEELi0ELb0EE5__getB7v160006Ev, symObjAddr: 0x10DA8, symBinAddr: 0x14640, symSize: 0x14 }
  - { offsetInCU: 0x5B023, offset: 0x61E65, size: 0x8, addend: 0x0, symName: __ZNSt3__116allocator_traitsINS_9allocatorIPNS_16__hash_node_baseIPNS_11__hash_nodeINS_17__hash_value_typeIP11_typeobjectNS_6vectorIPN8pybind116detail9type_infoENS1_ISB_EEEEEEPvEEEEEEE10deallocateB7v160006ERSK_PSJ_m, symObjAddr: 0x10DBC, symBinAddr: 0x14654, symSize: 0x34 }
  - { offsetInCU: 0x5B065, offset: 0x61EA7, size: 0x8, addend: 0x0, symName: __ZNSt3__19allocatorIPNS_16__hash_node_baseIPNS_11__hash_nodeINS_17__hash_value_typeIP11_typeobjectNS_6vectorIPN8pybind116detail9type_infoENS0_ISA_EEEEEEPvEEEEE10deallocateB7v160006EPSI_m, symObjAddr: 0x10DF0, symBinAddr: 0x14688, symSize: 0x40 }
  - { offsetInCU: 0x5B0A6, offset: 0x61EE8, size: 0x8, addend: 0x0, symName: __ZNSt3__19allocatorIPNS_16__hash_node_baseIPNS_11__hash_nodeINS_17__hash_value_typeIP11_typeobjectNS_6vectorIPN8pybind116detail9type_infoENS0_ISA_EEEEEEPvEEEEE8allocateB7v160006Em, symObjAddr: 0x10E30, symBinAddr: 0x146C8, symSize: 0x58 }
  - { offsetInCU: 0x5B0E3, offset: 0x61F25, size: 0x8, addend: 0x0, symName: __ZNSt3__116allocator_traitsINS_9allocatorIPNS_16__hash_node_baseIPNS_11__hash_nodeINS_17__hash_value_typeIP11_typeobjectNS_6vectorIPN8pybind116detail9type_infoENS1_ISB_EEEEEEPvEEEEEEE8max_sizeB7v160006ISK_vEEmRKSK_, symObjAddr: 0x10E88, symBinAddr: 0x14720, symSize: 0x24 }
  - { offsetInCU: 0x5B112, offset: 0x61F54, size: 0x8, addend: 0x0, symName: __ZNKSt3__19allocatorIPNS_16__hash_node_baseIPNS_11__hash_nodeINS_17__hash_value_typeIP11_typeobjectNS_6vectorIPN8pybind116detail9type_infoENS0_ISA_EEEEEEPvEEEEE8max_sizeB7v160006Ev, symObjAddr: 0x10EAC, symBinAddr: 0x14744, symSize: 0x14 }
  - { offsetInCU: 0x5B137, offset: 0x61F79, size: 0x8, addend: 0x0, symName: __ZNSt3__117__compressed_pairImNS_9allocatorIPNS_16__hash_node_baseIPNS_11__hash_nodeINS_17__hash_value_typeIP11_typeobjectNS_6vectorIPN8pybind116detail9type_infoENS1_ISB_EEEEEEPvEEEEEEE5firstB7v160006Ev, symObjAddr: 0x10EC0, symBinAddr: 0x14758, symSize: 0x24 }
  - { offsetInCU: 0x5B166, offset: 0x61FA8, size: 0x8, addend: 0x0, symName: __ZNKSt3__16__lessImmEclB7v160006ERKmS3_, symObjAddr: 0x10F54, symBinAddr: 0x147EC, symSize: 0x34 }
  - { offsetInCU: 0x5B1A7, offset: 0x61FE9, size: 0x8, addend: 0x0, symName: __ZNSt3__122__compressed_pair_elemINS_16__hash_node_baseIPNS_11__hash_nodeINS_17__hash_value_typeIP11_typeobjectNS_6vectorIPN8pybind116detail9type_infoENS_9allocatorISA_EEEEEEPvEEEELi0ELb0EE5__getB7v160006Ev, symObjAddr: 0x10F88, symBinAddr: 0x14820, symSize: 0x14 }
  - { offsetInCU: 0x5B1CC, offset: 0x6200E, size: 0x8, addend: 0x0, symName: __ZNKSt3__117__compressed_pairIPNS_11__hash_nodeINS_17__hash_value_typeIP11_typeobjectNS_6vectorIPN8pybind116detail9type_infoENS_9allocatorIS9_EEEEEEPvEENS_22__hash_node_destructorINSA_ISF_EEEEE5firstB7v160006Ev, symObjAddr: 0x10F9C, symBinAddr: 0x14834, symSize: 0x24 }
  - { offsetInCU: 0x5B1F1, offset: 0x62033, size: 0x8, addend: 0x0, symName: __ZNKSt3__122__compressed_pair_elemIPNS_11__hash_nodeINS_17__hash_value_typeIP11_typeobjectNS_6vectorIPN8pybind116detail9type_infoENS_9allocatorIS9_EEEEEEPvEELi0ELb0EE5__getB7v160006Ev, symObjAddr: 0x10FC0, symBinAddr: 0x14858, symSize: 0x14 }
  - { offsetInCU: 0x5B216, offset: 0x62058, size: 0x8, addend: 0x0, symName: __ZNSt3__117__compressed_pairIPNS_11__hash_nodeINS_17__hash_value_typeIP11_typeobjectNS_6vectorIPN8pybind116detail9type_infoENS_9allocatorIS9_EEEEEEPvEENS_22__hash_node_destructorINSA_ISF_EEEEE5firstB7v160006Ev, symObjAddr: 0x10FD4, symBinAddr: 0x1486C, symSize: 0x24 }
  - { offsetInCU: 0x5B23B, offset: 0x6207D, size: 0x8, addend: 0x0, symName: __ZNSt3__122__compressed_pair_elemIPNS_11__hash_nodeINS_17__hash_value_typeIP11_typeobjectNS_6vectorIPN8pybind116detail9type_infoENS_9allocatorIS9_EEEEEEPvEELi0ELb0EE5__getB7v160006Ev, symObjAddr: 0x10FF8, symBinAddr: 0x14890, symSize: 0x14 }
  - { offsetInCU: 0x5B260, offset: 0x620A2, size: 0x8, addend: 0x0, symName: __ZNSt3__110unique_ptrINS_11__hash_nodeINS_17__hash_value_typeIP11_typeobjectNS_6vectorIPN8pybind116detail9type_infoENS_9allocatorIS9_EEEEEEPvEENS_22__hash_node_destructorINSA_ISF_EEEEED2B7v160006Ev, symObjAddr: 0x1100C, symBinAddr: 0x148A4, symSize: 0x30 }
  - { offsetInCU: 0x5B289, offset: 0x620CB, size: 0x8, addend: 0x0, symName: __ZNSt3__110unique_ptrINS_11__hash_nodeINS_17__hash_value_typeIP11_typeobjectNS_6vectorIPN8pybind116detail9type_infoENS_9allocatorIS9_EEEEEEPvEENS_22__hash_node_destructorINSA_ISF_EEEEE5resetB7v160006EPSF_, symObjAddr: 0x1103C, symBinAddr: 0x148D4, symSize: 0x78 }
  - { offsetInCU: 0x5B2CC, offset: 0x6210E, size: 0x8, addend: 0x0, symName: __ZNSt3__122__hash_node_destructorINS_9allocatorINS_11__hash_nodeINS_17__hash_value_typeIP11_typeobjectNS_6vectorIPN8pybind116detail9type_infoENS1_ISA_EEEEEEPvEEEEEclB7v160006EPSF_, symObjAddr: 0x110B4, symBinAddr: 0x1494C, symSize: 0x98 }
  - { offsetInCU: 0x5B300, offset: 0x62142, size: 0x8, addend: 0x0, symName: __ZNSt3__116allocator_traitsINS_9allocatorINS_11__hash_nodeINS_17__hash_value_typeIP11_typeobjectNS_6vectorIPN8pybind116detail9type_infoENS1_ISA_EEEEEEPvEEEEE7destroyB7v160006INS_4pairIKS5_SC_EEvvEEvRSG_PT_, symObjAddr: 0x1114C, symBinAddr: 0x149E4, symSize: 0x28 }
  - { offsetInCU: 0x5B33D, offset: 0x6217F, size: 0x8, addend: 0x0, symName: __ZNSt3__116allocator_traitsINS_9allocatorINS_11__hash_nodeINS_17__hash_value_typeIP11_typeobjectNS_6vectorIPN8pybind116detail9type_infoENS1_ISA_EEEEEEPvEEEEE10deallocateB7v160006ERSG_PSF_m, symObjAddr: 0x11174, symBinAddr: 0x14A0C, symSize: 0x34 }
  - { offsetInCU: 0x5B37F, offset: 0x621C1, size: 0x8, addend: 0x0, symName: __ZNSt3__14pairIKP11_typeobjectNS_6vectorIPN8pybind116detail9type_infoENS_9allocatorIS8_EEEEED1Ev, symObjAddr: 0x111A8, symBinAddr: 0x14A40, symSize: 0x2C }
  - { offsetInCU: 0x5B3A9, offset: 0x621EB, size: 0x8, addend: 0x0, symName: __ZNSt3__14pairIKP11_typeobjectNS_6vectorIPN8pybind116detail9type_infoENS_9allocatorIS8_EEEEED2Ev, symObjAddr: 0x111D4, symBinAddr: 0x14A6C, symSize: 0x30 }
  - { offsetInCU: 0x5B3D3, offset: 0x62215, size: 0x8, addend: 0x0, symName: __ZNSt3__16vectorIPN8pybind116detail9type_infoENS_9allocatorIS4_EEED1B7v160006Ev, symObjAddr: 0x11204, symBinAddr: 0x14A9C, symSize: 0x2C }
  - { offsetInCU: 0x5B3FC, offset: 0x6223E, size: 0x8, addend: 0x0, symName: __ZNSt3__16vectorIPN8pybind116detail9type_infoENS_9allocatorIS4_EEED2B7v160006Ev, symObjAddr: 0x11230, symBinAddr: 0x14AC8, symSize: 0x44 }
  - { offsetInCU: 0x5B425, offset: 0x62267, size: 0x8, addend: 0x0, symName: __ZNSt3__16vectorIPN8pybind116detail9type_infoENS_9allocatorIS4_EEE16__destroy_vectorC1ERS7_, symObjAddr: 0x11274, symBinAddr: 0x14B0C, symSize: 0x34 }
  - { offsetInCU: 0x5B45D, offset: 0x6229F, size: 0x8, addend: 0x0, symName: __ZNSt3__16vectorIPN8pybind116detail9type_infoENS_9allocatorIS4_EEE16__destroy_vectorclB7v160006Ev, symObjAddr: 0x112A8, symBinAddr: 0x14B40, symSize: 0x9C }
  - { offsetInCU: 0x5B482, offset: 0x622C4, size: 0x8, addend: 0x0, symName: __ZNSt3__16vectorIPN8pybind116detail9type_infoENS_9allocatorIS4_EEE16__destroy_vectorC2ERS7_, symObjAddr: 0x11344, symBinAddr: 0x14BDC, symSize: 0x20 }
  - { offsetInCU: 0x5B4BA, offset: 0x622FC, size: 0x8, addend: 0x0, symName: __ZNKSt3__16vectorIPN8pybind116detail9type_infoENS_9allocatorIS4_EEE17__annotate_deleteB7v160006Ev, symObjAddr: 0x11364, symBinAddr: 0x14BFC, symSize: 0xB8 }
  - { offsetInCU: 0x5B4DF, offset: 0x62321, size: 0x8, addend: 0x0, symName: __ZNSt3__16vectorIPN8pybind116detail9type_infoENS_9allocatorIS4_EEE7__clearB7v160006Ev, symObjAddr: 0x1142C, symBinAddr: 0x14CC4, symSize: 0x28 }
  - { offsetInCU: 0x5B504, offset: 0x62346, size: 0x8, addend: 0x0, symName: __ZNSt3__116allocator_traitsINS_9allocatorIPN8pybind116detail9type_infoEEEE10deallocateB7v160006ERS6_PS5_m, symObjAddr: 0x11454, symBinAddr: 0x14CEC, symSize: 0x34 }
  - { offsetInCU: 0x5B546, offset: 0x62388, size: 0x8, addend: 0x0, symName: __ZNSt3__16vectorIPN8pybind116detail9type_infoENS_9allocatorIS4_EEE7__allocB7v160006Ev, symObjAddr: 0x11488, symBinAddr: 0x14D20, symSize: 0x28 }
  - { offsetInCU: 0x5B56B, offset: 0x623AD, size: 0x8, addend: 0x0, symName: __ZNKSt3__16vectorIPN8pybind116detail9type_infoENS_9allocatorIS4_EEE8capacityB7v160006Ev, symObjAddr: 0x114B0, symBinAddr: 0x14D48, symSize: 0x40 }
  - { offsetInCU: 0x5B590, offset: 0x623D2, size: 0x8, addend: 0x0, symName: __ZNKSt3__16vectorIPN8pybind116detail9type_infoENS_9allocatorIS4_EEE31__annotate_contiguous_containerB7v160006EPKvS9_S9_S9_, symObjAddr: 0x114F0, symBinAddr: 0x14D88, symSize: 0x20 }
  - { offsetInCU: 0x5B5E5, offset: 0x62427, size: 0x8, addend: 0x0, symName: __ZNKSt3__16vectorIPN8pybind116detail9type_infoENS_9allocatorIS4_EEE4dataB7v160006Ev, symObjAddr: 0x11510, symBinAddr: 0x14DA8, symSize: 0x28 }
  - { offsetInCU: 0x5B60A, offset: 0x6244C, size: 0x8, addend: 0x0, symName: __ZNKSt3__16vectorIPN8pybind116detail9type_infoENS_9allocatorIS4_EEE4sizeB7v160006Ev, symObjAddr: 0x11538, symBinAddr: 0x14DD0, symSize: 0x28 }
  - { offsetInCU: 0x5B62F, offset: 0x62471, size: 0x8, addend: 0x0, symName: __ZNSt3__16vectorIPN8pybind116detail9type_infoENS_9allocatorIS4_EEE22__base_destruct_at_endB7v160006EPS4_, symObjAddr: 0x11574, symBinAddr: 0x14E0C, symSize: 0x8C }
  - { offsetInCU: 0x5B672, offset: 0x624B4, size: 0x8, addend: 0x0, symName: __ZNSt3__116allocator_traitsINS_9allocatorIPN8pybind116detail9type_infoEEEE7destroyB7v160006IS5_vEEvRS6_PT_, symObjAddr: 0x11600, symBinAddr: 0x14E98, symSize: 0x2C }
  - { offsetInCU: 0x5B6B0, offset: 0x624F2, size: 0x8, addend: 0x0, symName: __ZNSt3__19allocatorIPN8pybind116detail9type_infoEE7destroyB7v160006EPS4_, symObjAddr: 0x1162C, symBinAddr: 0x14EC4, symSize: 0x14 }
  - { offsetInCU: 0x5B6E3, offset: 0x62525, size: 0x8, addend: 0x0, symName: __ZNSt3__19allocatorIPN8pybind116detail9type_infoEE10deallocateB7v160006EPS4_m, symObjAddr: 0x11640, symBinAddr: 0x14ED8, symSize: 0x40 }
  - { offsetInCU: 0x5B724, offset: 0x62566, size: 0x8, addend: 0x0, symName: __ZNSt3__117__compressed_pairIPPN8pybind116detail9type_infoENS_9allocatorIS4_EEE6secondB7v160006Ev, symObjAddr: 0x11680, symBinAddr: 0x14F18, symSize: 0x24 }
  - { offsetInCU: 0x5B749, offset: 0x6258B, size: 0x8, addend: 0x0, symName: __ZNSt3__122__compressed_pair_elemINS_9allocatorIPN8pybind116detail9type_infoEEELi1ELb1EE5__getB7v160006Ev, symObjAddr: 0x116A4, symBinAddr: 0x14F3C, symSize: 0x14 }
  - { offsetInCU: 0x5B76E, offset: 0x625B0, size: 0x8, addend: 0x0, symName: __ZNKSt3__16vectorIPN8pybind116detail9type_infoENS_9allocatorIS4_EEE9__end_capB7v160006Ev, symObjAddr: 0x116B8, symBinAddr: 0x14F50, symSize: 0x28 }
  - { offsetInCU: 0x5B793, offset: 0x625D5, size: 0x8, addend: 0x0, symName: __ZNKSt3__117__compressed_pairIPPN8pybind116detail9type_infoENS_9allocatorIS4_EEE5firstB7v160006Ev, symObjAddr: 0x116E0, symBinAddr: 0x14F78, symSize: 0x24 }
  - { offsetInCU: 0x5B7B8, offset: 0x625FA, size: 0x8, addend: 0x0, symName: __ZNKSt3__122__compressed_pair_elemIPPN8pybind116detail9type_infoELi0ELb0EE5__getB7v160006Ev, symObjAddr: 0x11704, symBinAddr: 0x14F9C, symSize: 0x14 }
  - { offsetInCU: 0x5B7DD, offset: 0x6261F, size: 0x8, addend: 0x0, symName: __ZNSt3__19allocatorINS_11__hash_nodeINS_17__hash_value_typeIP11_typeobjectNS_6vectorIPN8pybind116detail9type_infoENS0_IS9_EEEEEEPvEEE10deallocateB7v160006EPSE_m, symObjAddr: 0x11718, symBinAddr: 0x14FB0, symSize: 0x44 }
  - { offsetInCU: 0x5B81E, offset: 0x62660, size: 0x8, addend: 0x0, symName: __ZNSt3__115__hash_iteratorIPNS_11__hash_nodeINS_17__hash_value_typeIP11_typeobjectNS_6vectorIPN8pybind116detail9type_infoENS_9allocatorIS9_EEEEEEPvEEEC2B7v160006EPNS_16__hash_node_baseISG_EEPKv, symObjAddr: 0x1175C, symBinAddr: 0x14FF4, symSize: 0x24 }
  - { offsetInCU: 0x5B865, offset: 0x626A7, size: 0x8, addend: 0x0, symName: __ZNSt3__14pairINS_15__hash_iteratorIPNS_11__hash_nodeINS_17__hash_value_typeIP11_typeobjectNS_6vectorIPN8pybind116detail9type_infoENS_9allocatorISA_EEEEEEPvEEEEbEC2B7v160006ISI_RbLSF_0EEEOT_OT0_, symObjAddr: 0x11780, symBinAddr: 0x15018, symSize: 0x38 }
  - { offsetInCU: 0x5B8C2, offset: 0x62704, size: 0x8, addend: 0x0, symName: __ZNSt3__15tupleIJRKP11_typeobjectEEC1B7v160006INS_4_AndELi0EEES4_, symObjAddr: 0x117B8, symBinAddr: 0x15050, symSize: 0x34 }
  - { offsetInCU: 0x5B909, offset: 0x6274B, size: 0x8, addend: 0x0, symName: __ZNSt3__15tupleIJRKP11_typeobjectEEC2B7v160006INS_4_AndELi0EEES4_, symObjAddr: 0x117EC, symBinAddr: 0x15084, symSize: 0x34 }
  - { offsetInCU: 0x5B950, offset: 0x62792, size: 0x8, addend: 0x0, symName: __ZNSt3__112__tuple_implINS_15__tuple_indicesIJLm0EEEEJRKP11_typeobjectEEC1B7v160006IJLm0EEJS6_EJEJEJS6_EEENS1_IJXspT_EEEENS_13__tuple_typesIJDpT0_EEENS1_IJXspT1_EEEENSA_IJDpT2_EEEDpOT3_, symObjAddr: 0x11820, symBinAddr: 0x150B8, symSize: 0x34 }
  - { offsetInCU: 0x5B9E4, offset: 0x62826, size: 0x8, addend: 0x0, symName: __ZNSt3__112__tuple_implINS_15__tuple_indicesIJLm0EEEEJRKP11_typeobjectEEC2B7v160006IJLm0EEJS6_EJEJEJS6_EEENS1_IJXspT_EEEENS_13__tuple_typesIJDpT0_EEENS1_IJXspT1_EEEENSA_IJDpT2_EEEDpOT3_, symObjAddr: 0x11854, symBinAddr: 0x150EC, symSize: 0x34 }
  - { offsetInCU: 0x5BA78, offset: 0x628BA, size: 0x8, addend: 0x0, symName: __ZNSt3__112__tuple_leafILm0ERKP11_typeobjectLb0EEC2B7v160006IS4_vEEOT_, symObjAddr: 0x11888, symBinAddr: 0x15120, symSize: 0x20 }
  - { offsetInCU: 0x5BABB, offset: 0x628FD, size: 0x8, addend: 0x0, symName: __ZNSt3__14pairINS_19__hash_map_iteratorINS_15__hash_iteratorIPNS_11__hash_nodeINS_17__hash_value_typeIP11_typeobjectNS_6vectorIPN8pybind116detail9type_infoENS_9allocatorISB_EEEEEEPvEEEEEEbEC2B7v160006ISJ_bLSG_0EEEONS0_IT_T0_EE, symObjAddr: 0x118A8, symBinAddr: 0x15140, symSize: 0x50 }
  - { offsetInCU: 0x5BB0B, offset: 0x6294D, size: 0x8, addend: 0x0, symName: __ZNSt3__119__hash_map_iteratorINS_15__hash_iteratorIPNS_11__hash_nodeINS_17__hash_value_typeIP11_typeobjectNS_6vectorIPN8pybind116detail9type_infoENS_9allocatorISA_EEEEEEPvEEEEEC1B7v160006ESI_, symObjAddr: 0x118F8, symBinAddr: 0x15190, symSize: 0x34 }
  - { offsetInCU: 0x5BB43, offset: 0x62985, size: 0x8, addend: 0x0, symName: __ZNSt3__119__hash_map_iteratorINS_15__hash_iteratorIPNS_11__hash_nodeINS_17__hash_value_typeIP11_typeobjectNS_6vectorIPN8pybind116detail9type_infoENS_9allocatorISA_EEEEEEPvEEEEEC2B7v160006ESI_, symObjAddr: 0x1192C, symBinAddr: 0x151C4, symSize: 0x20 }
  - { offsetInCU: 0x5BB7B, offset: 0x629BD, size: 0x8, addend: 0x0, symName: __ZN8pybind1112cpp_functionC2IZNS_6detail23all_type_info_get_cacheEP11_typeobjectEUlNS_6handleEE_JEvEEOT_DpRKT0_, symObjAddr: 0x1194C, symBinAddr: 0x151E4, symSize: 0x68 }
  - { offsetInCU: 0x5BBC2, offset: 0x62A04, size: 0x8, addend: 0x0, symName: __ZN8pybind118functionC2Ev, symObjAddr: 0x119B4, symBinAddr: 0x1524C, symSize: 0x2C }
  - { offsetInCU: 0x5BBEB, offset: 0x62A2D, size: 0x8, addend: 0x0, symName: __ZN8pybind118functionD2Ev, symObjAddr: 0x11AF4, symBinAddr: 0x1538C, symSize: 0x2C }
  - { offsetInCU: 0x5BC17, offset: 0x62A59, size: 0x8, addend: 0x0, symName: __ZN8pybind1112cpp_function20make_function_recordEv, symObjAddr: 0x11B20, symBinAddr: 0x153B8, symSize: 0x68 }
  - { offsetInCU: 0x5BC3C, offset: 0x62A7E, size: 0x8, addend: 0x0, symName: __ZNKSt3__110unique_ptrIN8pybind116detail15function_recordENS1_12cpp_function33InitializingFunctionRecordDeleterEE3getB7v160006Ev, symObjAddr: 0x11B88, symBinAddr: 0x15420, symSize: 0x28 }
  - { offsetInCU: 0x5BC6B, offset: 0x62AAD, size: 0x8, addend: 0x0, symName: __ZZN8pybind1112cpp_function10initializeIZNS_6detail23all_type_info_get_cacheEP11_typeobjectEUlNS_6handleEE_vJS5_EJEEEvOT_PFT0_DpT1_EDpRKT2_ENKUlRNS2_13function_callEE_cvPFS5_SJ_EEv, symObjAddr: 0x11BB0, symBinAddr: 0x15448, symSize: 0x18 }
  - { offsetInCU: 0x5BC9B, offset: 0x62ADD, size: 0x8, addend: 0x0, symName: __ZN8pybind116detail18process_attributesIJEE4initEPNS0_15function_recordE, symObjAddr: 0x11BC8, symBinAddr: 0x15460, symSize: 0x14 }
  - { offsetInCU: 0x5BCBF, offset: 0x62B01, size: 0x8, addend: 0x0, symName: __ZN8pybind1112cpp_function18initialize_genericEONSt3__110unique_ptrINS_6detail15function_recordENS0_33InitializingFunctionRecordDeleterEEEPKcPKPKSt9type_infom, symObjAddr: 0x11BDC, symBinAddr: 0x15474, symSize: 0x1AA0 }
  - { offsetInCU: 0x5BFCA, offset: 0x62E0C, size: 0x8, addend: 0x0, symName: __ZNKSt3__15arrayIPKSt9type_infoLm2EE4dataB7v160006Ev, symObjAddr: 0x1367C, symBinAddr: 0x16F14, symSize: 0x14 }
  - { offsetInCU: 0x5BFEF, offset: 0x62E31, size: 0x8, addend: 0x0, symName: __ZNSt3__110unique_ptrIN8pybind116detail15function_recordENS1_12cpp_function33InitializingFunctionRecordDeleterEED1B7v160006Ev, symObjAddr: 0x13690, symBinAddr: 0x16F28, symSize: 0x2C }
  - { offsetInCU: 0x5C018, offset: 0x62E5A, size: 0x8, addend: 0x0, symName: __ZN8pybind116detail15function_recordC1Ev, symObjAddr: 0x136BC, symBinAddr: 0x16F54, symSize: 0x2C }
  - { offsetInCU: 0x5C041, offset: 0x62E83, size: 0x8, addend: 0x0, symName: __ZNSt3__110unique_ptrIN8pybind116detail15function_recordENS1_12cpp_function33InitializingFunctionRecordDeleterEEC1B7v160006ILb1EvEEPS3_, symObjAddr: 0x136E8, symBinAddr: 0x16F80, symSize: 0x34 }
  - { offsetInCU: 0x5C084, offset: 0x62EC6, size: 0x8, addend: 0x0, symName: __ZN8pybind116detail15function_recordC2Ev, symObjAddr: 0x1371C, symBinAddr: 0x16FB4, symSize: 0x13C }
  - { offsetInCU: 0x5C0AD, offset: 0x62EEF, size: 0x8, addend: 0x0, symName: __ZNSt3__16vectorIN8pybind116detail15argument_recordENS_9allocatorIS3_EEEC1B7v160006Ev, symObjAddr: 0x13858, symBinAddr: 0x170F0, symSize: 0x2C }
  - { offsetInCU: 0x5C0D6, offset: 0x62F18, size: 0x8, addend: 0x0, symName: __ZN8pybind116handleC1Ev, symObjAddr: 0x13884, symBinAddr: 0x1711C, symSize: 0x2C }
  - { offsetInCU: 0x5C0FF, offset: 0x62F41, size: 0x8, addend: 0x0, symName: __ZNSt3__16vectorIN8pybind116detail15argument_recordENS_9allocatorIS3_EEEC2B7v160006Ev, symObjAddr: 0x138B0, symBinAddr: 0x17148, symSize: 0x58 }
  - { offsetInCU: 0x5C128, offset: 0x62F6A, size: 0x8, addend: 0x0, symName: __ZNSt3__117__compressed_pairIPN8pybind116detail15argument_recordENS_9allocatorIS3_EEEC1B7v160006IDnNS_18__default_init_tagEEEOT_OT0_, symObjAddr: 0x13908, symBinAddr: 0x171A0, symSize: 0x3C }
  - { offsetInCU: 0x5C17F, offset: 0x62FC1, size: 0x8, addend: 0x0, symName: __ZNSt3__117__compressed_pairIPN8pybind116detail15argument_recordENS_9allocatorIS3_EEEC2B7v160006IDnNS_18__default_init_tagEEEOT_OT0_, symObjAddr: 0x13954, symBinAddr: 0x171EC, symSize: 0x40 }
  - { offsetInCU: 0x5C1D6, offset: 0x63018, size: 0x8, addend: 0x0, symName: __ZNSt3__122__compressed_pair_elemIPN8pybind116detail15argument_recordELi0ELb0EEC2B7v160006IDnvEEOT_, symObjAddr: 0x13994, symBinAddr: 0x1722C, symSize: 0x1C }
  - { offsetInCU: 0x5C218, offset: 0x6305A, size: 0x8, addend: 0x0, symName: __ZNSt3__122__compressed_pair_elemINS_9allocatorIN8pybind116detail15argument_recordEEELi1ELb1EEC2B7v160006ENS_18__default_init_tagE, symObjAddr: 0x139B0, symBinAddr: 0x17248, symSize: 0x2C }
  - { offsetInCU: 0x5C24C, offset: 0x6308E, size: 0x8, addend: 0x0, symName: __ZNSt3__19allocatorIN8pybind116detail15argument_recordEEC2B7v160006Ev, symObjAddr: 0x139DC, symBinAddr: 0x17274, symSize: 0x2C }
  - { offsetInCU: 0x5C275, offset: 0x630B7, size: 0x8, addend: 0x0, symName: __ZNSt3__116__non_trivial_ifILb1ENS_9allocatorIN8pybind116detail15argument_recordEEEEC2B7v160006Ev, symObjAddr: 0x13A08, symBinAddr: 0x172A0, symSize: 0x14 }
  - { offsetInCU: 0x5C29E, offset: 0x630E0, size: 0x8, addend: 0x0, symName: __ZNSt3__110unique_ptrIN8pybind116detail15function_recordENS1_12cpp_function33InitializingFunctionRecordDeleterEEC2B7v160006ILb1EvEEPS3_, symObjAddr: 0x13A1C, symBinAddr: 0x172B4, symSize: 0x44 }
  - { offsetInCU: 0x5C2E1, offset: 0x63123, size: 0x8, addend: 0x0, symName: __ZNSt3__117__compressed_pairIPN8pybind116detail15function_recordENS1_12cpp_function33InitializingFunctionRecordDeleterEEC1B7v160006IRS4_NS_16__value_init_tagEEEOT_OT0_, symObjAddr: 0x13A60, symBinAddr: 0x172F8, symSize: 0x3C }
  - { offsetInCU: 0x5C338, offset: 0x6317A, size: 0x8, addend: 0x0, symName: __ZNSt3__117__compressed_pairIPN8pybind116detail15function_recordENS1_12cpp_function33InitializingFunctionRecordDeleterEEC2B7v160006IRS4_NS_16__value_init_tagEEEOT_OT0_, symObjAddr: 0x13A9C, symBinAddr: 0x17334, symSize: 0x40 }
  - { offsetInCU: 0x5C38F, offset: 0x631D1, size: 0x8, addend: 0x0, symName: __ZNSt3__122__compressed_pair_elemIPN8pybind116detail15function_recordELi0ELb0EEC2B7v160006IRS4_vEEOT_, symObjAddr: 0x13ADC, symBinAddr: 0x17374, symSize: 0x24 }
  - { offsetInCU: 0x5C3D1, offset: 0x63213, size: 0x8, addend: 0x0, symName: __ZNSt3__122__compressed_pair_elemIN8pybind1112cpp_function33InitializingFunctionRecordDeleterELi1ELb1EEC2B7v160006ENS_16__value_init_tagE, symObjAddr: 0x13B00, symBinAddr: 0x17398, symSize: 0x14 }
  - { offsetInCU: 0x5C405, offset: 0x63247, size: 0x8, addend: 0x0, symName: __ZNKSt3__117__compressed_pairIPN8pybind116detail15function_recordENS1_12cpp_function33InitializingFunctionRecordDeleterEE5firstB7v160006Ev, symObjAddr: 0x13B14, symBinAddr: 0x173AC, symSize: 0x24 }
  - { offsetInCU: 0x5C42A, offset: 0x6326C, size: 0x8, addend: 0x0, symName: __ZNKSt3__122__compressed_pair_elemIPN8pybind116detail15function_recordELi0ELb0EE5__getB7v160006Ev, symObjAddr: 0x13B38, symBinAddr: 0x173D0, symSize: 0x14 }
  - { offsetInCU: 0x5C44F, offset: 0x63291, size: 0x8, addend: 0x0, symName: __ZZN8pybind1112cpp_function10initializeIZNS_6detail23all_type_info_get_cacheEP11_typeobjectEUlNS_6handleEE_vJS5_EJEEEvOT_PFT0_DpT1_EDpRKT2_ENUlRNS2_13function_callEE_8__invokeESJ_, symObjAddr: 0x13B4C, symBinAddr: 0x173E4, symSize: 0x38 }
  - { offsetInCU: 0x5C477, offset: 0x632B9, size: 0x8, addend: 0x0, symName: __ZZN8pybind1112cpp_function10initializeIZNS_6detail23all_type_info_get_cacheEP11_typeobjectEUlNS_6handleEE_vJS5_EJEEEvOT_PFT0_DpT1_EDpRKT2_ENKUlRNS2_13function_callEE_clESJ_, symObjAddr: 0x13B84, symBinAddr: 0x1741C, symSize: 0xC8 }
  - { offsetInCU: 0x5C4F4, offset: 0x63336, size: 0x8, addend: 0x0, symName: __ZN8pybind116detail15argument_loaderIJNS_6handleEEEC1Ev, symObjAddr: 0x13C4C, symBinAddr: 0x174E4, symSize: 0x2C }
  - { offsetInCU: 0x5C520, offset: 0x63362, size: 0x8, addend: 0x0, symName: __ZN8pybind116detail15argument_loaderIJNS_6handleEEE9load_argsERNS0_13function_callE, symObjAddr: 0x13C78, symBinAddr: 0x17510, symSize: 0x30 }
  - { offsetInCU: 0x5C554, offset: 0x63396, size: 0x8, addend: 0x0, symName: __ZN8pybind116detail18process_attributesIJEE7precallERNS0_13function_callE, symObjAddr: 0x13CA8, symBinAddr: 0x17540, symSize: 0x14 }
  - { offsetInCU: 0x5C578, offset: 0x633BA, size: 0x8, addend: 0x0, symName: __ZN8pybind116detail28return_value_policy_overrideIvvE6policyENS_19return_value_policyE, symObjAddr: 0x13CBC, symBinAddr: 0x17554, symSize: 0x14 }
  - { offsetInCU: 0x5C5B1, offset: 0x633F3, size: 0x8, addend: 0x0, symName: __ZN8pybind116detail11void_casterINS0_9void_typeEE4castES2_NS_19return_value_policyENS_6handleE, symObjAddr: 0x13CD0, symBinAddr: 0x17568, symSize: 0x70 }
  - { offsetInCU: 0x5C5EC, offset: 0x6342E, size: 0x8, addend: 0x0, symName: __ZNO8pybind116detail15argument_loaderIJNS_6handleEEE4callIvNS0_9void_typeERZNS0_23all_type_info_get_cacheEP11_typeobjectEUlS2_E_EENSt3__19enable_ifIXsr3std7is_voidIT_EE5valueES5_E4typeEOT1_, symObjAddr: 0x13D40, symBinAddr: 0x175D8, symSize: 0x30 }
  - { offsetInCU: 0x5C637, offset: 0x63479, size: 0x8, addend: 0x0, symName: __ZN8pybind116detail18process_attributesIJEE8postcallERNS0_13function_callENS_6handleE, symObjAddr: 0x13D70, symBinAddr: 0x17608, symSize: 0x18 }
  - { offsetInCU: 0x5C66A, offset: 0x634AC, size: 0x8, addend: 0x0, symName: __ZN8pybind116detail15argument_loaderIJNS_6handleEEEC2Ev, symObjAddr: 0x13D88, symBinAddr: 0x17620, symSize: 0x2C }
  - { offsetInCU: 0x5C696, offset: 0x634D8, size: 0x8, addend: 0x0, symName: __ZNSt3__15tupleIJN8pybind116detail11type_casterINS1_6handleEvEEEEC1B7v160006INS_37__is_implicitly_default_constructibleELi0EEEv, symObjAddr: 0x13DB4, symBinAddr: 0x1764C, symSize: 0x2C }
  - { offsetInCU: 0x5C6CE, offset: 0x63510, size: 0x8, addend: 0x0, symName: __ZNSt3__15tupleIJN8pybind116detail11type_casterINS1_6handleEvEEEEC2B7v160006INS_37__is_implicitly_default_constructibleELi0EEEv, symObjAddr: 0x13DE0, symBinAddr: 0x17678, symSize: 0x2C }
  - { offsetInCU: 0x5C706, offset: 0x63548, size: 0x8, addend: 0x0, symName: __ZNSt3__112__tuple_implINS_15__tuple_indicesIJLm0EEEEJN8pybind116detail11type_casterINS3_6handleEvEEEEC1B7v160006Ev, symObjAddr: 0x13E0C, symBinAddr: 0x176A4, symSize: 0x2C }
  - { offsetInCU: 0x5C72F, offset: 0x63571, size: 0x8, addend: 0x0, symName: __ZNSt3__112__tuple_implINS_15__tuple_indicesIJLm0EEEEJN8pybind116detail11type_casterINS3_6handleEvEEEEC2B7v160006Ev, symObjAddr: 0x13E38, symBinAddr: 0x176D0, symSize: 0x2C }
  - { offsetInCU: 0x5C758, offset: 0x6359A, size: 0x8, addend: 0x0, symName: __ZNSt3__112__tuple_leafILm0EN8pybind116detail11type_casterINS1_6handleEvEELb0EEC2B7v160006Ev, symObjAddr: 0x13E64, symBinAddr: 0x176FC, symSize: 0x30 }
  - { offsetInCU: 0x5C786, offset: 0x635C8, size: 0x8, addend: 0x0, symName: __ZN8pybind116detail11type_casterINS_6handleEvEC1Ev, symObjAddr: 0x13E94, symBinAddr: 0x1772C, symSize: 0x2C }
  - { offsetInCU: 0x5C7B2, offset: 0x635F4, size: 0x8, addend: 0x0, symName: __ZN8pybind116detail11type_casterINS_6handleEvEC2Ev, symObjAddr: 0x13EC0, symBinAddr: 0x17758, symSize: 0x2C }
  - { offsetInCU: 0x5C7DE, offset: 0x63620, size: 0x8, addend: 0x0, symName: __ZN8pybind116detail15pyobject_casterINS_6handleEEC2IS2_Li0EEEv, symObjAddr: 0x13EEC, symBinAddr: 0x17784, symSize: 0x30 }
  - { offsetInCU: 0x5C816, offset: 0x63658, size: 0x8, addend: 0x0, symName: __ZN8pybind116detail15argument_loaderIJNS_6handleEEE18load_impl_sequenceIJLm0EEEEbRNS0_13function_callENSt3__116integer_sequenceImJXspT_EEEE, symObjAddr: 0x13F1C, symBinAddr: 0x177B4, symSize: 0xB8 }
  - { offsetInCU: 0x5C862, offset: 0x636A4, size: 0x8, addend: 0x0, symName: __ZN8pybind116detail15pyobject_casterINS_6handleEE4loadIS2_Li0EEEbS2_b, symObjAddr: 0x13FF8, symBinAddr: 0x17890, symSize: 0x40 }
  - { offsetInCU: 0x5C8B1, offset: 0x636F3, size: 0x8, addend: 0x0, symName: __ZNSt3__16vectorIN8pybind116handleENS_9allocatorIS2_EEEixB7v160006Em, symObjAddr: 0x14038, symBinAddr: 0x178D0, symSize: 0x24 }
  - { offsetInCU: 0x5C8E7, offset: 0x63729, size: 0x8, addend: 0x0, symName: __ZNSt3__16vectorIbNS_9allocatorIbEEEixB7v160006Em, symObjAddr: 0x1405C, symBinAddr: 0x178F4, symSize: 0x3C }
  - { offsetInCU: 0x5C91B, offset: 0x6375D, size: 0x8, addend: 0x0, symName: __ZNKSt3__115__bit_referenceINS_6vectorIbNS_9allocatorIbEEEELb1EEcvbB7v160006Ev, symObjAddr: 0x14098, symBinAddr: 0x17930, symSize: 0x2C }
  - { offsetInCU: 0x5C940, offset: 0x63782, size: 0x8, addend: 0x0, symName: __ZNSt3__112__tuple_leafILm0EN8pybind116detail11type_casterINS1_6handleEvEELb0EE3getB7v160006Ev, symObjAddr: 0x140C4, symBinAddr: 0x1795C, symSize: 0x14 }
  - { offsetInCU: 0x5C965, offset: 0x637A7, size: 0x8, addend: 0x0, symName: __ZNSt3__16vectorIbNS_9allocatorIbEEE10__make_refB7v160006Em, symObjAddr: 0x140D8, symBinAddr: 0x17970, symSize: 0x60 }
  - { offsetInCU: 0x5C999, offset: 0x637DB, size: 0x8, addend: 0x0, symName: __ZNSt3__115__bit_referenceINS_6vectorIbNS_9allocatorIbEEEELb1EEC1B7v160006EPmm, symObjAddr: 0x14138, symBinAddr: 0x179D0, symSize: 0x3C }
  - { offsetInCU: 0x5C9DE, offset: 0x63820, size: 0x8, addend: 0x0, symName: __ZNSt3__115__bit_referenceINS_6vectorIbNS_9allocatorIbEEEELb1EEC2B7v160006EPmm, symObjAddr: 0x14174, symBinAddr: 0x17A0C, symSize: 0x2C }
  - { offsetInCU: 0x5CA32, offset: 0x63874, size: 0x8, addend: 0x0, symName: __ZN8pybind114noneC1Ev, symObjAddr: 0x141A0, symBinAddr: 0x17A38, symSize: 0x2C }
  - { offsetInCU: 0x5CA5B, offset: 0x6389D, size: 0x8, addend: 0x0, symName: __ZN8pybind114noneD1Ev, symObjAddr: 0x141CC, symBinAddr: 0x17A64, symSize: 0x2C }
  - { offsetInCU: 0x5CA87, offset: 0x638C9, size: 0x8, addend: 0x0, symName: __ZN8pybind114noneC2Ev, symObjAddr: 0x141F8, symBinAddr: 0x17A90, symSize: 0x44 }
  - { offsetInCU: 0x5CAB0, offset: 0x638F2, size: 0x8, addend: 0x0, symName: __ZN8pybind114noneD2Ev, symObjAddr: 0x1423C, symBinAddr: 0x17AD4, symSize: 0x2C }
  - { offsetInCU: 0x5CADC, offset: 0x6391E, size: 0x8, addend: 0x0, symName: __ZNO8pybind116detail15argument_loaderIJNS_6handleEEE9call_implIvRZNS0_23all_type_info_get_cacheEP11_typeobjectEUlS2_E_JLm0EENS0_9void_typeEEET_OT0_NSt3__116integer_sequenceImJXspT1_EEEEOT2_, symObjAddr: 0x14268, symBinAddr: 0x17B00, symSize: 0x50 }
  - { offsetInCU: 0x5CB55, offset: 0x63997, size: 0x8, addend: 0x0, symName: __ZZN8pybind116detail23all_type_info_get_cacheEP11_typeobjectENKUlNS_6handleEE_clES3_, symObjAddr: 0x142B8, symBinAddr: 0x17B50, symSize: 0xD4 }
  - { offsetInCU: 0x5CBC8, offset: 0x63A0A, size: 0x8, addend: 0x0, symName: __ZNSt3__113unordered_mapIP11_typeobjectNS_6vectorIPN8pybind116detail9type_infoENS_9allocatorIS7_EEEENS_4hashIS2_EENS_8equal_toIS2_EENS8_INS_4pairIKS2_SA_EEEEE5eraseB7v160006ERSG_, symObjAddr: 0x143B0, symBinAddr: 0x17C48, symSize: 0x2C }
  - { offsetInCU: 0x5CBFC, offset: 0x63A3E, size: 0x8, addend: 0x0, symName: __ZNSt3__113unordered_setINS_4pairIPK7_objectPKcEEN8pybind116detail13override_hashENS_8equal_toIS7_EENS_9allocatorIS7_EEE5beginB7v160006Ev, symObjAddr: 0x143DC, symBinAddr: 0x17C74, symSize: 0x38 }
  - { offsetInCU: 0x5CC21, offset: 0x63A63, size: 0x8, addend: 0x0, symName: __ZNSt3__113unordered_setINS_4pairIPK7_objectPKcEEN8pybind116detail13override_hashENS_8equal_toIS7_EENS_9allocatorIS7_EEE3endB7v160006Ev, symObjAddr: 0x14414, symBinAddr: 0x17CAC, symSize: 0x38 }
  - { offsetInCU: 0x5CC46, offset: 0x63A88, size: 0x8, addend: 0x0, symName: __ZNKSt3__121__hash_const_iteratorIPNS_11__hash_nodeINS_4pairIPK7_objectPKcEEPvEEEptB7v160006Ev, symObjAddr: 0x14480, symBinAddr: 0x17D18, symSize: 0x30 }
  - { offsetInCU: 0x5CC6B, offset: 0x63AAD, size: 0x8, addend: 0x0, symName: __ZNSt3__113unordered_setINS_4pairIPK7_objectPKcEEN8pybind116detail13override_hashENS_8equal_toIS7_EENS_9allocatorIS7_EEE5eraseB7v160006ENS_21__hash_const_iteratorIPNS_11__hash_nodeIS7_PvEEEE, symObjAddr: 0x144B0, symBinAddr: 0x17D48, symSize: 0x48 }
  - { offsetInCU: 0x5CC9F, offset: 0x63AE1, size: 0x8, addend: 0x0, symName: __ZNSt3__121__hash_const_iteratorIPNS_11__hash_nodeINS_4pairIPK7_objectPKcEEPvEEEppB7v160006Ev, symObjAddr: 0x144F8, symBinAddr: 0x17D90, symSize: 0x20 }
  - { offsetInCU: 0x5CCC4, offset: 0x63B06, size: 0x8, addend: 0x0, symName: __ZNSt3__112__hash_tableINS_17__hash_value_typeIP11_typeobjectNS_6vectorIPN8pybind116detail9type_infoENS_9allocatorIS8_EEEEEENS_22__unordered_map_hasherIS3_SC_NS_4hashIS3_EENS_8equal_toIS3_EELb1EEENS_21__unordered_map_equalIS3_SC_SH_SF_Lb1EEENS9_ISC_EEE14__erase_uniqueIS3_EEmRKT_, symObjAddr: 0x14518, symBinAddr: 0x17DB0, symSize: 0x98 }
  - { offsetInCU: 0x5CD12, offset: 0x63B54, size: 0x8, addend: 0x0, symName: __ZNSt3__112__hash_tableINS_17__hash_value_typeIP11_typeobjectNS_6vectorIPN8pybind116detail9type_infoENS_9allocatorIS8_EEEEEENS_22__unordered_map_hasherIS3_SC_NS_4hashIS3_EENS_8equal_toIS3_EELb1EEENS_21__unordered_map_equalIS3_SC_SH_SF_Lb1EEENS9_ISC_EEE4findIS3_EENS_15__hash_iteratorIPNS_11__hash_nodeISC_PvEEEERKT_, symObjAddr: 0x145B0, symBinAddr: 0x17E48, symSize: 0x1B4 }
  - { offsetInCU: 0x5CD9B, offset: 0x63BDD, size: 0x8, addend: 0x0, symName: __ZNSt3__112__hash_tableINS_17__hash_value_typeIP11_typeobjectNS_6vectorIPN8pybind116detail9type_infoENS_9allocatorIS8_EEEEEENS_22__unordered_map_hasherIS3_SC_NS_4hashIS3_EENS_8equal_toIS3_EELb1EEENS_21__unordered_map_equalIS3_SC_SH_SF_Lb1EEENS9_ISC_EEE3endEv, symObjAddr: 0x14794, symBinAddr: 0x1802C, symSize: 0x30 }
  - { offsetInCU: 0x5CDC2, offset: 0x63C04, size: 0x8, addend: 0x0, symName: __ZNSt3__112__hash_tableINS_17__hash_value_typeIP11_typeobjectNS_6vectorIPN8pybind116detail9type_infoENS_9allocatorIS8_EEEEEENS_22__unordered_map_hasherIS3_SC_NS_4hashIS3_EENS_8equal_toIS3_EELb1EEENS_21__unordered_map_equalIS3_SC_SH_SF_Lb1EEENS9_ISC_EEE5eraseENS_21__hash_const_iteratorIPNS_11__hash_nodeISC_PvEEEE, symObjAddr: 0x147C4, symBinAddr: 0x1805C, symSize: 0x70 }
  - { offsetInCU: 0x5CE16, offset: 0x63C58, size: 0x8, addend: 0x0, symName: __ZNSt3__121__hash_const_iteratorIPNS_11__hash_nodeINS_17__hash_value_typeIP11_typeobjectNS_6vectorIPN8pybind116detail9type_infoENS_9allocatorIS9_EEEEEEPvEEEC1B7v160006ERKNS_15__hash_iteratorISG_EE, symObjAddr: 0x14834, symBinAddr: 0x180CC, symSize: 0x34 }
  - { offsetInCU: 0x5CE4E, offset: 0x63C90, size: 0x8, addend: 0x0, symName: __ZNSt3__115__hash_iteratorIPNS_11__hash_nodeINS_17__hash_value_typeIP11_typeobjectNS_6vectorIPN8pybind116detail9type_infoENS_9allocatorIS9_EEEEEEPvEEEppB7v160006Ev, symObjAddr: 0x14868, symBinAddr: 0x18100, symSize: 0x20 }
  - { offsetInCU: 0x5CE73, offset: 0x63CB5, size: 0x8, addend: 0x0, symName: __ZNSt3__112__hash_tableINS_17__hash_value_typeIP11_typeobjectNS_6vectorIPN8pybind116detail9type_infoENS_9allocatorIS8_EEEEEENS_22__unordered_map_hasherIS3_SC_NS_4hashIS3_EENS_8equal_toIS3_EELb1EEENS_21__unordered_map_equalIS3_SC_SH_SF_Lb1EEENS9_ISC_EEE6removeENS_21__hash_const_iteratorIPNS_11__hash_nodeISC_PvEEEE, symObjAddr: 0x14888, symBinAddr: 0x18120, symSize: 0x220 }
  - { offsetInCU: 0x5CF03, offset: 0x63D45, size: 0x8, addend: 0x0, symName: __ZNSt3__121__hash_const_iteratorIPNS_11__hash_nodeINS_17__hash_value_typeIP11_typeobjectNS_6vectorIPN8pybind116detail9type_infoENS_9allocatorIS9_EEEEEEPvEEEC2B7v160006ERKNS_15__hash_iteratorISG_EE, symObjAddr: 0x14AA8, symBinAddr: 0x18340, symSize: 0x24 }
  - { offsetInCU: 0x5CF3B, offset: 0x63D7D, size: 0x8, addend: 0x0, symName: __ZNSt3__112__hash_tableINS_4pairIPK7_objectPKcEEN8pybind116detail13override_hashENS_8equal_toIS7_EENS_9allocatorIS7_EEE5beginEv, symObjAddr: 0x14ACC, symBinAddr: 0x18364, symSize: 0x40 }
  - { offsetInCU: 0x5CF62, offset: 0x63DA4, size: 0x8, addend: 0x0, symName: __ZNSt3__121__hash_const_iteratorIPNS_11__hash_nodeINS_4pairIPK7_objectPKcEEPvEEEC1B7v160006ERKNS_15__hash_iteratorISB_EE, symObjAddr: 0x14B0C, symBinAddr: 0x183A4, symSize: 0x34 }
  - { offsetInCU: 0x5CF9A, offset: 0x63DDC, size: 0x8, addend: 0x0, symName: __ZNSt3__117__compressed_pairINS_16__hash_node_baseIPNS_11__hash_nodeINS_4pairIPK7_objectPKcEEPvEEEENS_9allocatorISB_EEE5firstB7v160006Ev, symObjAddr: 0x14B40, symBinAddr: 0x183D8, symSize: 0x24 }
  - { offsetInCU: 0x5CFBF, offset: 0x63E01, size: 0x8, addend: 0x0, symName: __ZNSt3__115__hash_iteratorIPNS_11__hash_nodeINS_4pairIPK7_objectPKcEEPvEEEC1B7v160006EPNS_16__hash_node_baseISB_EEPKv, symObjAddr: 0x14B64, symBinAddr: 0x183FC, symSize: 0x3C }
  - { offsetInCU: 0x5D006, offset: 0x63E48, size: 0x8, addend: 0x0, symName: __ZNSt3__122__compressed_pair_elemINS_16__hash_node_baseIPNS_11__hash_nodeINS_4pairIPK7_objectPKcEEPvEEEELi0ELb0EE5__getB7v160006Ev, symObjAddr: 0x14BA0, symBinAddr: 0x18438, symSize: 0x14 }
  - { offsetInCU: 0x5D02B, offset: 0x63E6D, size: 0x8, addend: 0x0, symName: __ZNSt3__115__hash_iteratorIPNS_11__hash_nodeINS_4pairIPK7_objectPKcEEPvEEEC2B7v160006EPNS_16__hash_node_baseISB_EEPKv, symObjAddr: 0x14BB4, symBinAddr: 0x1844C, symSize: 0x24 }
  - { offsetInCU: 0x5D072, offset: 0x63EB4, size: 0x8, addend: 0x0, symName: __ZNSt3__121__hash_const_iteratorIPNS_11__hash_nodeINS_4pairIPK7_objectPKcEEPvEEEC2B7v160006ERKNS_15__hash_iteratorISB_EE, symObjAddr: 0x14BD8, symBinAddr: 0x18470, symSize: 0x24 }
  - { offsetInCU: 0x5D0AA, offset: 0x63EEC, size: 0x8, addend: 0x0, symName: __ZNSt3__112__hash_tableINS_4pairIPK7_objectPKcEEN8pybind116detail13override_hashENS_8equal_toIS7_EENS_9allocatorIS7_EEE3endEv, symObjAddr: 0x14BFC, symBinAddr: 0x18494, symSize: 0x30 }
  - { offsetInCU: 0x5D0D1, offset: 0x63F13, size: 0x8, addend: 0x0, symName: __ZNSt3__114pointer_traitsIPKNS_4pairIPK7_objectPKcEEE10pointer_toB7v160006ERS8_, symObjAddr: 0x14C5C, symBinAddr: 0x184F4, symSize: 0x14 }
  - { offsetInCU: 0x5D0F4, offset: 0x63F36, size: 0x8, addend: 0x0, symName: __ZNSt3__116__hash_node_baseIPNS_11__hash_nodeINS_4pairIPK7_objectPKcEEPvEEE8__upcastB7v160006Ev, symObjAddr: 0x14C70, symBinAddr: 0x18508, symSize: 0x24 }
  - { offsetInCU: 0x5D119, offset: 0x63F5B, size: 0x8, addend: 0x0, symName: __ZNSt3__114pointer_traitsIPNS_16__hash_node_baseIPNS_11__hash_nodeINS_4pairIPK7_objectPKcEEPvEEEEE10pointer_toB7v160006ERSD_, symObjAddr: 0x14C94, symBinAddr: 0x1852C, symSize: 0x14 }
  - { offsetInCU: 0x5D13C, offset: 0x63F7E, size: 0x8, addend: 0x0, symName: __ZNSt3__112__hash_tableINS_4pairIPK7_objectPKcEEN8pybind116detail13override_hashENS_8equal_toIS7_EENS_9allocatorIS7_EEE5eraseENS_21__hash_const_iteratorIPNS_11__hash_nodeIS7_PvEEEE, symObjAddr: 0x14CA8, symBinAddr: 0x18540, symSize: 0x70 }
  - { offsetInCU: 0x5D190, offset: 0x63FD2, size: 0x8, addend: 0x0, symName: __ZNSt3__115__hash_iteratorIPNS_11__hash_nodeINS_4pairIPK7_objectPKcEEPvEEEppB7v160006Ev, symObjAddr: 0x14D18, symBinAddr: 0x185B0, symSize: 0x20 }
  - { offsetInCU: 0x5D1B5, offset: 0x63FF7, size: 0x8, addend: 0x0, symName: __ZNSt3__112__hash_tableINS_4pairIPK7_objectPKcEEN8pybind116detail13override_hashENS_8equal_toIS7_EENS_9allocatorIS7_EEE6removeENS_21__hash_const_iteratorIPNS_11__hash_nodeIS7_PvEEEE, symObjAddr: 0x14D38, symBinAddr: 0x185D0, symSize: 0x248 }
  - { offsetInCU: 0x5D244, offset: 0x64086, size: 0x8, addend: 0x0, symName: __ZNSt3__110unique_ptrINS_11__hash_nodeINS_4pairIPK7_objectPKcEEPvEENS_22__hash_node_destructorINS_9allocatorISA_EEEEED1B7v160006Ev, symObjAddr: 0x14F80, symBinAddr: 0x18818, symSize: 0x2C }
  - { offsetInCU: 0x5D26D, offset: 0x640AF, size: 0x8, addend: 0x0, symName: __ZNKSt3__112__hash_tableINS_4pairIPK7_objectPKcEEN8pybind116detail13override_hashENS_8equal_toIS7_EENS_9allocatorIS7_EEE12bucket_countB7v160006Ev, symObjAddr: 0x14FAC, symBinAddr: 0x18844, symSize: 0x28 }
  - { offsetInCU: 0x5D292, offset: 0x640D4, size: 0x8, addend: 0x0, symName: __ZNKSt3__116__hash_node_baseIPNS_11__hash_nodeINS_4pairIPK7_objectPKcEEPvEEE6__hashB7v160006Ev, symObjAddr: 0x14FD4, symBinAddr: 0x1886C, symSize: 0x18 }
  - { offsetInCU: 0x5D2B7, offset: 0x640F9, size: 0x8, addend: 0x0, symName: __ZNKSt3__110unique_ptrIA_PNS_16__hash_node_baseIPNS_11__hash_nodeINS_4pairIPK7_objectPKcEEPvEEEENS_25__bucket_list_deallocatorINS_9allocatorISE_EEEEEixB7v160006Em, symObjAddr: 0x14FEC, symBinAddr: 0x18884, symSize: 0x34 }
  - { offsetInCU: 0x5D2EB, offset: 0x6412D, size: 0x8, addend: 0x0, symName: __ZNSt3__116__hash_node_baseIPNS_11__hash_nodeINS_4pairIPK7_objectPKcEEPvEEE5__ptrB7v160006Ev, symObjAddr: 0x15020, symBinAddr: 0x188B8, symSize: 0x24 }
  - { offsetInCU: 0x5D310, offset: 0x64152, size: 0x8, addend: 0x0, symName: __ZNSt3__112__hash_tableINS_4pairIPK7_objectPKcEEN8pybind116detail13override_hashENS_8equal_toIS7_EENS_9allocatorIS7_EEE4sizeB7v160006Ev, symObjAddr: 0x15044, symBinAddr: 0x188DC, symSize: 0x28 }
  - { offsetInCU: 0x5D335, offset: 0x64177, size: 0x8, addend: 0x0, symName: __ZNSt3__112__hash_tableINS_4pairIPK7_objectPKcEEN8pybind116detail13override_hashENS_8equal_toIS7_EENS_9allocatorIS7_EEE12__node_allocB7v160006Ev, symObjAddr: 0x1506C, symBinAddr: 0x18904, symSize: 0x28 }
  - { offsetInCU: 0x5D35A, offset: 0x6419C, size: 0x8, addend: 0x0, symName: __ZNSt3__122__hash_node_destructorINS_9allocatorINS_11__hash_nodeINS_4pairIPK7_objectPKcEEPvEEEEEC1B7v160006ERSC_b, symObjAddr: 0x15094, symBinAddr: 0x1892C, symSize: 0x48 }
  - { offsetInCU: 0x5D3A7, offset: 0x641E9, size: 0x8, addend: 0x0, symName: __ZNSt3__110unique_ptrINS_11__hash_nodeINS_4pairIPK7_objectPKcEEPvEENS_22__hash_node_destructorINS_9allocatorISA_EEEEEC1B7v160006ILb1EvEEPSA_NS_16__dependent_typeINS_27__unique_ptr_deleter_sfinaeISE_EEXT_EE20__good_rval_ref_typeE, symObjAddr: 0x150DC, symBinAddr: 0x18974, symSize: 0x3C }
  - { offsetInCU: 0x5D3F8, offset: 0x6423A, size: 0x8, addend: 0x0, symName: __ZNKSt3__110unique_ptrIA_PNS_16__hash_node_baseIPNS_11__hash_nodeINS_4pairIPK7_objectPKcEEPvEEEENS_25__bucket_list_deallocatorINS_9allocatorISE_EEEEE11get_deleterB7v160006Ev, symObjAddr: 0x15118, symBinAddr: 0x189B0, symSize: 0x24 }
  - { offsetInCU: 0x5D41D, offset: 0x6425F, size: 0x8, addend: 0x0, symName: __ZNKSt3__125__bucket_list_deallocatorINS_9allocatorIPNS_16__hash_node_baseIPNS_11__hash_nodeINS_4pairIPK7_objectPKcEEPvEEEEEEE4sizeB7v160006Ev, symObjAddr: 0x1513C, symBinAddr: 0x189D4, symSize: 0x28 }
  - { offsetInCU: 0x5D442, offset: 0x64284, size: 0x8, addend: 0x0, symName: __ZNKSt3__117__compressed_pairIPPNS_16__hash_node_baseIPNS_11__hash_nodeINS_4pairIPK7_objectPKcEEPvEEEENS_25__bucket_list_deallocatorINS_9allocatorISE_EEEEE6secondB7v160006Ev, symObjAddr: 0x15164, symBinAddr: 0x189FC, symSize: 0x28 }
  - { offsetInCU: 0x5D467, offset: 0x642A9, size: 0x8, addend: 0x0, symName: __ZNKSt3__122__compressed_pair_elemINS_25__bucket_list_deallocatorINS_9allocatorIPNS_16__hash_node_baseIPNS_11__hash_nodeINS_4pairIPK7_objectPKcEEPvEEEEEEEELi1ELb0EE5__getB7v160006Ev, symObjAddr: 0x1518C, symBinAddr: 0x18A24, symSize: 0x14 }
  - { offsetInCU: 0x5D48C, offset: 0x642CE, size: 0x8, addend: 0x0, symName: __ZNKSt3__117__compressed_pairImNS_9allocatorIPNS_16__hash_node_baseIPNS_11__hash_nodeINS_4pairIPK7_objectPKcEEPvEEEEEEE5firstB7v160006Ev, symObjAddr: 0x151A0, symBinAddr: 0x18A38, symSize: 0x24 }
  - { offsetInCU: 0x5D4B1, offset: 0x642F3, size: 0x8, addend: 0x0, symName: __ZNKSt3__117__compressed_pairIPPNS_16__hash_node_baseIPNS_11__hash_nodeINS_4pairIPK7_objectPKcEEPvEEEENS_25__bucket_list_deallocatorINS_9allocatorISE_EEEEE5firstB7v160006Ev, symObjAddr: 0x151C4, symBinAddr: 0x18A5C, symSize: 0x24 }
  - { offsetInCU: 0x5D4D6, offset: 0x64318, size: 0x8, addend: 0x0, symName: __ZNKSt3__122__compressed_pair_elemIPPNS_16__hash_node_baseIPNS_11__hash_nodeINS_4pairIPK7_objectPKcEEPvEEEELi0ELb0EE5__getB7v160006Ev, symObjAddr: 0x151E8, symBinAddr: 0x18A80, symSize: 0x14 }
  - { offsetInCU: 0x5D4FB, offset: 0x6433D, size: 0x8, addend: 0x0, symName: __ZNSt3__117__compressed_pairImN8pybind116detail13override_hashEE5firstB7v160006Ev, symObjAddr: 0x151FC, symBinAddr: 0x18A94, symSize: 0x24 }
  - { offsetInCU: 0x5D520, offset: 0x64362, size: 0x8, addend: 0x0, symName: __ZNSt3__117__compressed_pairINS_16__hash_node_baseIPNS_11__hash_nodeINS_4pairIPK7_objectPKcEEPvEEEENS_9allocatorISB_EEE6secondB7v160006Ev, symObjAddr: 0x15220, symBinAddr: 0x18AB8, symSize: 0x24 }
  - { offsetInCU: 0x5D545, offset: 0x64387, size: 0x8, addend: 0x0, symName: __ZNSt3__122__compressed_pair_elemINS_9allocatorINS_11__hash_nodeINS_4pairIPK7_objectPKcEEPvEEEELi1ELb1EE5__getB7v160006Ev, symObjAddr: 0x15244, symBinAddr: 0x18ADC, symSize: 0x14 }
  - { offsetInCU: 0x5D56A, offset: 0x643AC, size: 0x8, addend: 0x0, symName: __ZNSt3__122__hash_node_destructorINS_9allocatorINS_11__hash_nodeINS_4pairIPK7_objectPKcEEPvEEEEEC2B7v160006ERSC_b, symObjAddr: 0x15258, symBinAddr: 0x18AF0, symSize: 0x38 }
  - { offsetInCU: 0x5D5B1, offset: 0x643F3, size: 0x8, addend: 0x0, symName: __ZNSt3__110unique_ptrINS_11__hash_nodeINS_4pairIPK7_objectPKcEEPvEENS_22__hash_node_destructorINS_9allocatorISA_EEEEEC2B7v160006ILb1EvEEPSA_NS_16__dependent_typeINS_27__unique_ptr_deleter_sfinaeISE_EEXT_EE20__good_rval_ref_typeE, symObjAddr: 0x15290, symBinAddr: 0x18B28, symSize: 0x48 }
  - { offsetInCU: 0x5D602, offset: 0x64444, size: 0x8, addend: 0x0, symName: __ZNSt3__117__compressed_pairIPNS_11__hash_nodeINS_4pairIPK7_objectPKcEEPvEENS_22__hash_node_destructorINS_9allocatorISA_EEEEEC1B7v160006IRSB_SF_EEOT_OT0_, symObjAddr: 0x152D8, symBinAddr: 0x18B70, symSize: 0x3C }
  - { offsetInCU: 0x5D659, offset: 0x6449B, size: 0x8, addend: 0x0, symName: __ZNSt3__117__compressed_pairIPNS_11__hash_nodeINS_4pairIPK7_objectPKcEEPvEENS_22__hash_node_destructorINS_9allocatorISA_EEEEEC2B7v160006IRSB_SF_EEOT_OT0_, symObjAddr: 0x15314, symBinAddr: 0x18BAC, symSize: 0x48 }
  - { offsetInCU: 0x5D6B0, offset: 0x644F2, size: 0x8, addend: 0x0, symName: __ZNSt3__122__compressed_pair_elemIPNS_11__hash_nodeINS_4pairIPK7_objectPKcEEPvEELi0ELb0EEC2B7v160006IRSB_vEEOT_, symObjAddr: 0x1535C, symBinAddr: 0x18BF4, symSize: 0x24 }
  - { offsetInCU: 0x5D6F2, offset: 0x64534, size: 0x8, addend: 0x0, symName: __ZNSt3__122__compressed_pair_elemINS_22__hash_node_destructorINS_9allocatorINS_11__hash_nodeINS_4pairIPK7_objectPKcEEPvEEEEEELi1ELb0EEC2B7v160006ISE_vEEOT_, symObjAddr: 0x15380, symBinAddr: 0x18C18, symSize: 0x24 }
  - { offsetInCU: 0x5D734, offset: 0x64576, size: 0x8, addend: 0x0, symName: __ZNSt3__110unique_ptrINS_11__hash_nodeINS_4pairIPK7_objectPKcEEPvEENS_22__hash_node_destructorINS_9allocatorISA_EEEEED2B7v160006Ev, symObjAddr: 0x153A4, symBinAddr: 0x18C3C, symSize: 0x30 }
  - { offsetInCU: 0x5D75D, offset: 0x6459F, size: 0x8, addend: 0x0, symName: __ZNSt3__110unique_ptrINS_11__hash_nodeINS_4pairIPK7_objectPKcEEPvEENS_22__hash_node_destructorINS_9allocatorISA_EEEEE5resetB7v160006EPSA_, symObjAddr: 0x153D4, symBinAddr: 0x18C6C, symSize: 0x78 }
  - { offsetInCU: 0x5D7A0, offset: 0x645E2, size: 0x8, addend: 0x0, symName: __ZNSt3__117__compressed_pairIPNS_11__hash_nodeINS_4pairIPK7_objectPKcEEPvEENS_22__hash_node_destructorINS_9allocatorISA_EEEEE5firstB7v160006Ev, symObjAddr: 0x1544C, symBinAddr: 0x18CE4, symSize: 0x24 }
  - { offsetInCU: 0x5D7C5, offset: 0x64607, size: 0x8, addend: 0x0, symName: __ZNSt3__117__compressed_pairIPNS_11__hash_nodeINS_4pairIPK7_objectPKcEEPvEENS_22__hash_node_destructorINS_9allocatorISA_EEEEE6secondB7v160006Ev, symObjAddr: 0x15470, symBinAddr: 0x18D08, symSize: 0x28 }
  - { offsetInCU: 0x5D7EA, offset: 0x6462C, size: 0x8, addend: 0x0, symName: __ZNSt3__122__hash_node_destructorINS_9allocatorINS_11__hash_nodeINS_4pairIPK7_objectPKcEEPvEEEEEclB7v160006EPSB_, symObjAddr: 0x15498, symBinAddr: 0x18D30, symSize: 0x98 }
  - { offsetInCU: 0x5D81E, offset: 0x64660, size: 0x8, addend: 0x0, symName: __ZNSt3__122__compressed_pair_elemIPNS_11__hash_nodeINS_4pairIPK7_objectPKcEEPvEELi0ELb0EE5__getB7v160006Ev, symObjAddr: 0x15530, symBinAddr: 0x18DC8, symSize: 0x14 }
  - { offsetInCU: 0x5D843, offset: 0x64685, size: 0x8, addend: 0x0, symName: __ZNSt3__122__compressed_pair_elemINS_22__hash_node_destructorINS_9allocatorINS_11__hash_nodeINS_4pairIPK7_objectPKcEEPvEEEEEELi1ELb0EE5__getB7v160006Ev, symObjAddr: 0x15544, symBinAddr: 0x18DDC, symSize: 0x14 }
  - { offsetInCU: 0x5D868, offset: 0x646AA, size: 0x8, addend: 0x0, symName: __ZNSt3__116allocator_traitsINS_9allocatorINS_11__hash_nodeINS_4pairIPK7_objectPKcEEPvEEEEE7destroyB7v160006IS9_vvEEvRSC_PT_, symObjAddr: 0x15558, symBinAddr: 0x18DF0, symSize: 0x14 }
  - { offsetInCU: 0x5D8A5, offset: 0x646E7, size: 0x8, addend: 0x0, symName: __ZNSt3__122__hash_key_value_typesINS_4pairIPK7_objectPKcEEE9__get_ptrB7v160006ERS7_, symObjAddr: 0x1556C, symBinAddr: 0x18E04, symSize: 0x14 }
  - { offsetInCU: 0x5D8C8, offset: 0x6470A, size: 0x8, addend: 0x0, symName: __ZNSt3__116allocator_traitsINS_9allocatorINS_11__hash_nodeINS_4pairIPK7_objectPKcEEPvEEEEE10deallocateB7v160006ERSC_PSB_m, symObjAddr: 0x15580, symBinAddr: 0x18E18, symSize: 0x34 }
  - { offsetInCU: 0x5D90A, offset: 0x6474C, size: 0x8, addend: 0x0, symName: __ZNSt3__19allocatorINS_11__hash_nodeINS_4pairIPK7_objectPKcEEPvEEE10deallocateB7v160006EPSA_m, symObjAddr: 0x155B4, symBinAddr: 0x18E4C, symSize: 0x40 }
  - { offsetInCU: 0x5D94B, offset: 0x6478D, size: 0x8, addend: 0x0, symName: __ZNO8pybind116detail15pyobject_casterINS_6handleEEcvOS2_Ev, symObjAddr: 0x155F4, symBinAddr: 0x18E8C, symSize: 0x14 }
  - { offsetInCU: 0x5D984, offset: 0x647C6, size: 0x8, addend: 0x0, symName: __ZN8pybind1112cpp_function12strdup_guardC1Ev, symObjAddr: 0x15608, symBinAddr: 0x18EA0, symSize: 0x2C }
  - { offsetInCU: 0x5D9AD, offset: 0x647EF, size: 0x8, addend: 0x0, symName: __ZN8pybind1112cpp_function12strdup_guardclEPKc, symObjAddr: 0x15634, symBinAddr: 0x18ECC, symSize: 0x48 }
  - { offsetInCU: 0x5D9F0, offset: 0x64832, size: 0x8, addend: 0x0, symName: __ZNSt3__16vectorIN8pybind116detail15argument_recordENS_9allocatorIS3_EEE5beginB7v160006Ev, symObjAddr: 0x1567C, symBinAddr: 0x18F14, symSize: 0x30 }
  - { offsetInCU: 0x5DA17, offset: 0x64859, size: 0x8, addend: 0x0, symName: __ZNSt3__16vectorIN8pybind116detail15argument_recordENS_9allocatorIS3_EEE3endB7v160006Ev, symObjAddr: 0x156AC, symBinAddr: 0x18F44, symSize: 0x30 }
  - { offsetInCU: 0x5DA3E, offset: 0x64880, size: 0x8, addend: 0x0, symName: __ZNKSt3__111__wrap_iterIPN8pybind116detail15argument_recordEEdeB7v160006Ev, symObjAddr: 0x15710, symBinAddr: 0x18FA8, symSize: 0x18 }
  - { offsetInCU: 0x5DA63, offset: 0x648A5, size: 0x8, addend: 0x0, symName: __ZNO8pybind116object4castINSt3__112basic_stringIcNS2_11char_traitsIcEENS2_9allocatorIcEEEEEET_v, symObjAddr: 0x157E4, symBinAddr: 0x1907C, symSize: 0x2C }
  - { offsetInCU: 0x5DA91, offset: 0x648D3, size: 0x8, addend: 0x0, symName: __ZNSt3__111__wrap_iterIPN8pybind116detail15argument_recordEEppB7v160006Ev, symObjAddr: 0x15810, symBinAddr: 0x190A8, symSize: 0x20 }
  - { offsetInCU: 0x5DAB6, offset: 0x648F8, size: 0x8, addend: 0x0, symName: __ZNKSt3__16vectorIN8pybind116detail15argument_recordENS_9allocatorIS3_EEE4sizeB7v160006Ev, symObjAddr: 0x15830, symBinAddr: 0x190C8, symSize: 0x28 }
  - { offsetInCU: 0x5DADB, offset: 0x6491D, size: 0x8, addend: 0x0, symName: __ZNSt3__16vectorIN8pybind116detail15argument_recordENS_9allocatorIS3_EEEixB7v160006Em, symObjAddr: 0x15858, symBinAddr: 0x190F0, symSize: 0x24 }
  - { offsetInCU: 0x5DB11, offset: 0x64953, size: 0x8, addend: 0x0, symName: __ZNSt3__110type_indexC1B7v160006ERKSt9type_info, symObjAddr: 0x159CC, symBinAddr: 0x19264, symSize: 0x34 }
  - { offsetInCU: 0x5DB48, offset: 0x6498A, size: 0x8, addend: 0x0, symName: __ZNK8pybind116detail8accessorINS0_17accessor_policies8str_attrEE4castINSt3__112basic_stringIcNS6_11char_traitsIcEENS6_9allocatorIcEEEEEET_v, symObjAddr: 0x15A00, symBinAddr: 0x19298, symSize: 0x34 }
  - { offsetInCU: 0x5DB76, offset: 0x649B8, size: 0x8, addend: 0x0, symName: __ZNSt3__16vectorIN8pybind116detail15argument_recordENS_9allocatorIS3_EEE13shrink_to_fitEv, symObjAddr: 0x15A34, symBinAddr: 0x192CC, symSize: 0xF0 }
  - { offsetInCU: 0x5DBC0, offset: 0x64A02, size: 0x8, addend: 0x0, symName: __ZL20PyCFunction_GET_SELFP7_object, symObjAddr: 0x15B24, symBinAddr: 0x193BC, symSize: 0xA0 }
  - { offsetInCU: 0x5DBFC, offset: 0x64A3E, size: 0x8, addend: 0x0, symName: __ZNK8pybind117capsule11get_pointerINS_6detail15function_recordEEEPT_v, symObjAddr: 0x15C44, symBinAddr: 0x194DC, symSize: 0xA8 }
  - { offsetInCU: 0x5DC48, offset: 0x64A8A, size: 0x8, addend: 0x0, symName: __ZNK8pybind116detail10object_apiINS_6handleEE2isERKS3_, symObjAddr: 0x15CEC, symBinAddr: 0x19584, symSize: 0x50 }
  - { offsetInCU: 0x5DC7B, offset: 0x64ABD, size: 0x8, addend: 0x0, symName: __ZN8pybind1112cpp_function10dispatcherEP7_objectS2_S2_, symObjAddr: 0x15D3C, symBinAddr: 0x195D4, symSize: 0x215C }
  - { offsetInCU: 0x5E205, offset: 0x65047, size: 0x8, addend: 0x0, symName: __ZNSt3__110unique_ptrIN8pybind116detail15function_recordENS1_12cpp_function33InitializingFunctionRecordDeleterEE7releaseB7v160006Ev, symObjAddr: 0x17E98, symBinAddr: 0x1B730, symSize: 0x44 }
  - { offsetInCU: 0x5E243, offset: 0x65085, size: 0x8, addend: 0x0, symName: __ZZN8pybind1112cpp_function18initialize_genericEONSt3__110unique_ptrINS_6detail15function_recordENS0_33InitializingFunctionRecordDeleterEEEPKcPKPKSt9type_infomENKUlPvE_cvPFvSF_EEv, symObjAddr: 0x17EDC, symBinAddr: 0x1B774, symSize: 0x18 }
  - { offsetInCU: 0x5E26F, offset: 0x650B1, size: 0x8, addend: 0x0, symName: __ZN8pybind117capsuleC1EPKvPFvPvE, symObjAddr: 0x17EF4, symBinAddr: 0x1B78C, symSize: 0x3C }
  - { offsetInCU: 0x5E2B6, offset: 0x650F8, size: 0x8, addend: 0x0, symName: __ZN8pybind117capsule8set_nameEPKc, symObjAddr: 0x17F30, symBinAddr: 0x1B7C8, symSize: 0x90 }
  - { offsetInCU: 0x5E2EA, offset: 0x6512C, size: 0x8, addend: 0x0, symName: __ZN8pybind1112cpp_function12strdup_guard7releaseEv, symObjAddr: 0x17FC8, symBinAddr: 0x1B860, symSize: 0x24 }
  - { offsetInCU: 0x5E30F, offset: 0x65151, size: 0x8, addend: 0x0, symName: __ZNK8pybind116detail8accessorINS0_17accessor_policies8str_attrEEcvNS_6objectEEv, symObjAddr: 0x18030, symBinAddr: 0x1B8C8, symSize: 0x38 }
  - { offsetInCU: 0x5E334, offset: 0x65176, size: 0x8, addend: 0x0, symName: __ZN8pybind113strC1INS_6detail17accessor_policies8str_attrEEERKNS2_8accessorIT_EE, symObjAddr: 0x18068, symBinAddr: 0x1B900, symSize: 0x74 }
  - { offsetInCU: 0x5E375, offset: 0x651B7, size: 0x8, addend: 0x0, symName: __ZN8pybind117capsule11set_pointerEPKv, symObjAddr: 0x180DC, symBinAddr: 0x1B974, symSize: 0x90 }
  - { offsetInCU: 0x5E3A9, offset: 0x651EB, size: 0x8, addend: 0x0, symName: __ZN8pybind117options24show_function_signaturesEv, symObjAddr: 0x1816C, symBinAddr: 0x1BA04, symSize: 0x1C }
  - { offsetInCU: 0x5E3BD, offset: 0x651FF, size: 0x8, addend: 0x0, symName: __ZN8pybind117options28show_user_defined_docstringsEv, symObjAddr: 0x18188, symBinAddr: 0x1BA20, symSize: 0x1C }
  - { offsetInCU: 0x5E3D1, offset: 0x65213, size: 0x8, addend: 0x0, symName: __ZN8pybind1112cpp_function12strdup_guardD1Ev, symObjAddr: 0x181A4, symBinAddr: 0x1BA3C, symSize: 0x2C }
  - { offsetInCU: 0x5E3FA, offset: 0x6523C, size: 0x8, addend: 0x0, symName: __ZN8pybind1112cpp_function12strdup_guardC2Ev, symObjAddr: 0x181D0, symBinAddr: 0x1BA68, symSize: 0x2C }
  - { offsetInCU: 0x5E423, offset: 0x65265, size: 0x8, addend: 0x0, symName: __ZNSt3__16vectorIPcNS_9allocatorIS1_EEEC1B7v160006Ev, symObjAddr: 0x181FC, symBinAddr: 0x1BA94, symSize: 0x2C }
  - { offsetInCU: 0x5E44C, offset: 0x6528E, size: 0x8, addend: 0x0, symName: __ZNSt3__16vectorIPcNS_9allocatorIS1_EEEC2B7v160006Ev, symObjAddr: 0x18228, symBinAddr: 0x1BAC0, symSize: 0x58 }
  - { offsetInCU: 0x5E475, offset: 0x652B7, size: 0x8, addend: 0x0, symName: __ZNSt3__117__compressed_pairIPPcNS_9allocatorIS1_EEEC1B7v160006IDnNS_18__default_init_tagEEEOT_OT0_, symObjAddr: 0x18280, symBinAddr: 0x1BB18, symSize: 0x3C }
  - { offsetInCU: 0x5E4CC, offset: 0x6530E, size: 0x8, addend: 0x0, symName: __ZNSt3__117__compressed_pairIPPcNS_9allocatorIS1_EEEC2B7v160006IDnNS_18__default_init_tagEEEOT_OT0_, symObjAddr: 0x182CC, symBinAddr: 0x1BB64, symSize: 0x40 }
  - { offsetInCU: 0x5E523, offset: 0x65365, size: 0x8, addend: 0x0, symName: __ZNSt3__122__compressed_pair_elemIPPcLi0ELb0EEC2B7v160006IDnvEEOT_, symObjAddr: 0x1830C, symBinAddr: 0x1BBA4, symSize: 0x1C }
  - { offsetInCU: 0x5E565, offset: 0x653A7, size: 0x8, addend: 0x0, symName: __ZNSt3__122__compressed_pair_elemINS_9allocatorIPcEELi1ELb1EEC2B7v160006ENS_18__default_init_tagE, symObjAddr: 0x18328, symBinAddr: 0x1BBC0, symSize: 0x2C }
  - { offsetInCU: 0x5E599, offset: 0x653DB, size: 0x8, addend: 0x0, symName: __ZNSt3__19allocatorIPcEC2B7v160006Ev, symObjAddr: 0x18354, symBinAddr: 0x1BBEC, symSize: 0x2C }
  - { offsetInCU: 0x5E5C2, offset: 0x65404, size: 0x8, addend: 0x0, symName: __ZNSt3__116__non_trivial_ifILb1ENS_9allocatorIPcEEEC2B7v160006Ev, symObjAddr: 0x18380, symBinAddr: 0x1BC18, symSize: 0x14 }
  - { offsetInCU: 0x5E5EB, offset: 0x6542D, size: 0x8, addend: 0x0, symName: __ZNSt3__16vectorIPcNS_9allocatorIS1_EEE9push_backB7v160006ERKS1_, symObjAddr: 0x18394, symBinAddr: 0x1BC2C, symSize: 0x6C }
  - { offsetInCU: 0x5E621, offset: 0x65463, size: 0x8, addend: 0x0, symName: __ZNSt3__16vectorIPcNS_9allocatorIS1_EEE9__end_capB7v160006Ev, symObjAddr: 0x18400, symBinAddr: 0x1BC98, symSize: 0x28 }
  - { offsetInCU: 0x5E646, offset: 0x65488, size: 0x8, addend: 0x0, symName: __ZNSt3__16vectorIPcNS_9allocatorIS1_EEE22__construct_one_at_endB7v160006IJRKS1_EEEvDpOT_, symObjAddr: 0x18428, symBinAddr: 0x1BCC0, symSize: 0x90 }
  - { offsetInCU: 0x5E694, offset: 0x654D6, size: 0x8, addend: 0x0, symName: __ZNSt3__16vectorIPcNS_9allocatorIS1_EEE21__push_back_slow_pathIRKS1_EEvOT_, symObjAddr: 0x184B8, symBinAddr: 0x1BD50, symSize: 0xD8 }
  - { offsetInCU: 0x5E6F1, offset: 0x65533, size: 0x8, addend: 0x0, symName: __ZNSt3__117__compressed_pairIPPcNS_9allocatorIS1_EEE5firstB7v160006Ev, symObjAddr: 0x18590, symBinAddr: 0x1BE28, symSize: 0x24 }
  - { offsetInCU: 0x5E716, offset: 0x65558, size: 0x8, addend: 0x0, symName: __ZNSt3__122__compressed_pair_elemIPPcLi0ELb0EE5__getB7v160006Ev, symObjAddr: 0x185B4, symBinAddr: 0x1BE4C, symSize: 0x14 }
  - { offsetInCU: 0x5E754, offset: 0x65596, size: 0x8, addend: 0x0, symName: __ZNSt3__16vectorIPcNS_9allocatorIS1_EEE21_ConstructTransactionC1B7v160006ERS4_m, symObjAddr: 0x185C8, symBinAddr: 0x1BE60, symSize: 0x3C }
  - { offsetInCU: 0x5E79B, offset: 0x655DD, size: 0x8, addend: 0x0, symName: __ZNSt3__116allocator_traitsINS_9allocatorIPcEEE9constructB7v160006IS2_JRKS2_EvEEvRS3_PT_DpOT0_, symObjAddr: 0x18604, symBinAddr: 0x1BE9C, symSize: 0x34 }
  - { offsetInCU: 0x5E7F3, offset: 0x65635, size: 0x8, addend: 0x0, symName: __ZNSt3__16vectorIPcNS_9allocatorIS1_EEE7__allocB7v160006Ev, symObjAddr: 0x18638, symBinAddr: 0x1BED0, symSize: 0x28 }
  - { offsetInCU: 0x5E818, offset: 0x6565A, size: 0x8, addend: 0x0, symName: __ZNSt3__16vectorIPcNS_9allocatorIS1_EEE21_ConstructTransactionD1B7v160006Ev, symObjAddr: 0x18674, symBinAddr: 0x1BF0C, symSize: 0x2C }
  - { offsetInCU: 0x5E841, offset: 0x65683, size: 0x8, addend: 0x0, symName: __ZNSt3__16vectorIPcNS_9allocatorIS1_EEE21_ConstructTransactionC2B7v160006ERS4_m, symObjAddr: 0x186A0, symBinAddr: 0x1BF38, symSize: 0x44 }
  - { offsetInCU: 0x5E888, offset: 0x656CA, size: 0x8, addend: 0x0, symName: __ZNSt3__19allocatorIPcE9constructB7v160006IS1_JRKS1_EEEvPT_DpOT0_, symObjAddr: 0x186E4, symBinAddr: 0x1BF7C, symSize: 0x28 }
  - { offsetInCU: 0x5E8DD, offset: 0x6571F, size: 0x8, addend: 0x0, symName: __ZNSt3__117__compressed_pairIPPcNS_9allocatorIS1_EEE6secondB7v160006Ev, symObjAddr: 0x1870C, symBinAddr: 0x1BFA4, symSize: 0x24 }
  - { offsetInCU: 0x5E902, offset: 0x65744, size: 0x8, addend: 0x0, symName: __ZNSt3__122__compressed_pair_elemINS_9allocatorIPcEELi1ELb1EE5__getB7v160006Ev, symObjAddr: 0x18730, symBinAddr: 0x1BFC8, symSize: 0x14 }
  - { offsetInCU: 0x5E927, offset: 0x65769, size: 0x8, addend: 0x0, symName: __ZNSt3__16vectorIPcNS_9allocatorIS1_EEE21_ConstructTransactionD2B7v160006Ev, symObjAddr: 0x18744, symBinAddr: 0x1BFDC, symSize: 0x20 }
  - { offsetInCU: 0x5E950, offset: 0x65792, size: 0x8, addend: 0x0, symName: __ZNKSt3__16vectorIPcNS_9allocatorIS1_EEE11__recommendB7v160006Em, symObjAddr: 0x18764, symBinAddr: 0x1BFFC, symSize: 0xB4 }
  - { offsetInCU: 0x5E9A4, offset: 0x657E6, size: 0x8, addend: 0x0, symName: __ZNKSt3__16vectorIPcNS_9allocatorIS1_EEE4sizeB7v160006Ev, symObjAddr: 0x18818, symBinAddr: 0x1C0B0, symSize: 0x28 }
  - { offsetInCU: 0x5E9C9, offset: 0x6580B, size: 0x8, addend: 0x0, symName: __ZNSt3__114__split_bufferIPcRNS_9allocatorIS1_EEEC1EmmS4_, symObjAddr: 0x18840, symBinAddr: 0x1C0D8, symSize: 0x44 }
  - { offsetInCU: 0x5EA1E, offset: 0x65860, size: 0x8, addend: 0x0, symName: __ZNSt3__114__split_bufferIPcRNS_9allocatorIS1_EEED1Ev, symObjAddr: 0x1899C, symBinAddr: 0x1C234, symSize: 0x2C }
  - { offsetInCU: 0x5EA49, offset: 0x6588B, size: 0x8, addend: 0x0, symName: __ZNKSt3__16vectorIPcNS_9allocatorIS1_EEE8max_sizeEv, symObjAddr: 0x189C8, symBinAddr: 0x1C260, symSize: 0x60 }
  - { offsetInCU: 0x5EA70, offset: 0x658B2, size: 0x8, addend: 0x0, symName: __ZNKSt3__16vectorIPcNS_9allocatorIS1_EEE20__throw_length_errorB7v160006Ev, symObjAddr: 0x18A28, symBinAddr: 0x1C2C0, symSize: 0x1C }
  - { offsetInCU: 0x5EA95, offset: 0x658D7, size: 0x8, addend: 0x0, symName: __ZNKSt3__16vectorIPcNS_9allocatorIS1_EEE8capacityB7v160006Ev, symObjAddr: 0x18A44, symBinAddr: 0x1C2DC, symSize: 0x40 }
  - { offsetInCU: 0x5EAC4, offset: 0x65906, size: 0x8, addend: 0x0, symName: __ZNSt3__116allocator_traitsINS_9allocatorIPcEEE8max_sizeB7v160006IS3_vEEmRKS3_, symObjAddr: 0x18AB0, symBinAddr: 0x1C348, symSize: 0x24 }
  - { offsetInCU: 0x5EAF3, offset: 0x65935, size: 0x8, addend: 0x0, symName: __ZNKSt3__16vectorIPcNS_9allocatorIS1_EEE7__allocB7v160006Ev, symObjAddr: 0x18AD4, symBinAddr: 0x1C36C, symSize: 0x28 }
  - { offsetInCU: 0x5EB18, offset: 0x6595A, size: 0x8, addend: 0x0, symName: __ZNSt3__114numeric_limitsIlE3maxB7v160006Ev, symObjAddr: 0x18AFC, symBinAddr: 0x1C394, symSize: 0x14 }
  - { offsetInCU: 0x5EB2C, offset: 0x6596E, size: 0x8, addend: 0x0, symName: __ZNKSt3__19allocatorIPcE8max_sizeB7v160006Ev, symObjAddr: 0x18B64, symBinAddr: 0x1C3FC, symSize: 0x14 }
  - { offsetInCU: 0x5EB51, offset: 0x65993, size: 0x8, addend: 0x0, symName: __ZNKSt3__117__compressed_pairIPPcNS_9allocatorIS1_EEE6secondB7v160006Ev, symObjAddr: 0x18B78, symBinAddr: 0x1C410, symSize: 0x24 }
  - { offsetInCU: 0x5EB76, offset: 0x659B8, size: 0x8, addend: 0x0, symName: __ZNKSt3__122__compressed_pair_elemINS_9allocatorIPcEELi1ELb1EE5__getB7v160006Ev, symObjAddr: 0x18B9C, symBinAddr: 0x1C434, symSize: 0x14 }
  - { offsetInCU: 0x5EB9B, offset: 0x659DD, size: 0x8, addend: 0x0, symName: __ZNSt3__123__libcpp_numeric_limitsIlLb1EE3maxB7v160006Ev, symObjAddr: 0x18BB0, symBinAddr: 0x1C448, symSize: 0x8 }
  - { offsetInCU: 0x5EBAF, offset: 0x659F1, size: 0x8, addend: 0x0, symName: __ZNSt12length_errorC1B7v160006EPKc, symObjAddr: 0x18C1C, symBinAddr: 0x1C4B4, symSize: 0x34 }
  - { offsetInCU: 0x5EBE6, offset: 0x65A28, size: 0x8, addend: 0x0, symName: __ZNSt12length_errorC2B7v160006EPKc, symObjAddr: 0x18C50, symBinAddr: 0x1C4E8, symSize: 0x4C }
  - { offsetInCU: 0x5EC1D, offset: 0x65A5F, size: 0x8, addend: 0x0, symName: __ZNKSt3__16vectorIPcNS_9allocatorIS1_EEE9__end_capB7v160006Ev, symObjAddr: 0x18C9C, symBinAddr: 0x1C534, symSize: 0x28 }
  - { offsetInCU: 0x5EC42, offset: 0x65A84, size: 0x8, addend: 0x0, symName: __ZNKSt3__117__compressed_pairIPPcNS_9allocatorIS1_EEE5firstB7v160006Ev, symObjAddr: 0x18CC4, symBinAddr: 0x1C55C, symSize: 0x24 }
  - { offsetInCU: 0x5EC67, offset: 0x65AA9, size: 0x8, addend: 0x0, symName: __ZNKSt3__122__compressed_pair_elemIPPcLi0ELb0EE5__getB7v160006Ev, symObjAddr: 0x18CE8, symBinAddr: 0x1C580, symSize: 0x14 }
  - { offsetInCU: 0x5EC8C, offset: 0x65ACE, size: 0x8, addend: 0x0, symName: __ZNSt3__114__split_bufferIPcRNS_9allocatorIS1_EEEC2EmmS4_, symObjAddr: 0x18CFC, symBinAddr: 0x1C594, symSize: 0xD4 }
  - { offsetInCU: 0x5ECFE, offset: 0x65B40, size: 0x8, addend: 0x0, symName: __ZNSt3__117__compressed_pairIPPcRNS_9allocatorIS1_EEEC1B7v160006IDnS5_EEOT_OT0_, symObjAddr: 0x18DD0, symBinAddr: 0x1C668, symSize: 0x3C }
  - { offsetInCU: 0x5ED55, offset: 0x65B97, size: 0x8, addend: 0x0, symName: __ZNSt3__114__split_bufferIPcRNS_9allocatorIS1_EEE7__allocB7v160006Ev, symObjAddr: 0x18E4C, symBinAddr: 0x1C6E4, symSize: 0x28 }
  - { offsetInCU: 0x5ED7A, offset: 0x65BBC, size: 0x8, addend: 0x0, symName: __ZNSt3__114__split_bufferIPcRNS_9allocatorIS1_EEE9__end_capB7v160006Ev, symObjAddr: 0x18E74, symBinAddr: 0x1C70C, symSize: 0x28 }
  - { offsetInCU: 0x5ED9F, offset: 0x65BE1, size: 0x8, addend: 0x0, symName: __ZNSt3__117__compressed_pairIPPcRNS_9allocatorIS1_EEEC2B7v160006IDnS5_EEOT_OT0_, symObjAddr: 0x18E9C, symBinAddr: 0x1C734, symSize: 0x48 }
  - { offsetInCU: 0x5EDF6, offset: 0x65C38, size: 0x8, addend: 0x0, symName: __ZNSt3__122__compressed_pair_elemIRNS_9allocatorIPcEELi1ELb0EEC2B7v160006IS4_vEEOT_, symObjAddr: 0x18EE4, symBinAddr: 0x1C77C, symSize: 0x20 }
  - { offsetInCU: 0x5EE38, offset: 0x65C7A, size: 0x8, addend: 0x0, symName: __ZNSt3__19allocatorIPcE8allocateB7v160006Em, symObjAddr: 0x18F04, symBinAddr: 0x1C79C, symSize: 0x58 }
  - { offsetInCU: 0x5EE6B, offset: 0x65CAD, size: 0x8, addend: 0x0, symName: __ZNSt3__117__compressed_pairIPPcRNS_9allocatorIS1_EEE6secondB7v160006Ev, symObjAddr: 0x18F5C, symBinAddr: 0x1C7F4, symSize: 0x28 }
  - { offsetInCU: 0x5EE90, offset: 0x65CD2, size: 0x8, addend: 0x0, symName: __ZNSt3__122__compressed_pair_elemIRNS_9allocatorIPcEELi1ELb0EE5__getB7v160006Ev, symObjAddr: 0x18F84, symBinAddr: 0x1C81C, symSize: 0x18 }
  - { offsetInCU: 0x5EEB5, offset: 0x65CF7, size: 0x8, addend: 0x0, symName: __ZNSt3__117__compressed_pairIPPcRNS_9allocatorIS1_EEE5firstB7v160006Ev, symObjAddr: 0x18F9C, symBinAddr: 0x1C834, symSize: 0x24 }
  - { offsetInCU: 0x5EEDA, offset: 0x65D1C, size: 0x8, addend: 0x0, symName: __ZNKSt3__16vectorIPcNS_9allocatorIS1_EEE17__annotate_deleteB7v160006Ev, symObjAddr: 0x18FC0, symBinAddr: 0x1C858, symSize: 0xB8 }
  - { offsetInCU: 0x5EEFF, offset: 0x65D41, size: 0x8, addend: 0x0, symName: __ZNSt3__116reverse_iteratorIPPcEC1B7v160006ES2_, symObjAddr: 0x190F0, symBinAddr: 0x1C988, symSize: 0x34 }
  - { offsetInCU: 0x5EF36, offset: 0x65D78, size: 0x8, addend: 0x0, symName: __ZNKSt3__116reverse_iteratorIPPcE4baseB7v160006Ev, symObjAddr: 0x19124, symBinAddr: 0x1C9BC, symSize: 0x18 }
  - { offsetInCU: 0x5EF5B, offset: 0x65D9D, size: 0x8, addend: 0x0, symName: __ZNKSt3__16vectorIPcNS_9allocatorIS1_EEE14__annotate_newB7v160006Em, symObjAddr: 0x19178, symBinAddr: 0x1CA10, symSize: 0xAC }
  - { offsetInCU: 0x5EF8F, offset: 0x65DD1, size: 0x8, addend: 0x0, symName: __ZNKSt3__16vectorIPcNS_9allocatorIS1_EEE31__annotate_contiguous_containerB7v160006EPKvS6_S6_S6_, symObjAddr: 0x19234, symBinAddr: 0x1CACC, symSize: 0x20 }
  - { offsetInCU: 0x5EFE4, offset: 0x65E26, size: 0x8, addend: 0x0, symName: __ZNKSt3__16vectorIPcNS_9allocatorIS1_EEE4dataB7v160006Ev, symObjAddr: 0x19254, symBinAddr: 0x1CAEC, symSize: 0x28 }
  - { offsetInCU: 0x5F02D, offset: 0x65E6F, size: 0x8, addend: 0x0, symName: __ZNKSt3__111__move_loopINS_17_ClassicAlgPolicyEEclB7v160006INS_16reverse_iteratorIPPcEES7_S7_EENS_4pairIT_T1_EES9_T0_SA_, symObjAddr: 0x1956C, symBinAddr: 0x1CE04, symSize: 0xA0 }
  - { offsetInCU: 0x5F09D, offset: 0x65EDF, size: 0x8, addend: 0x0, symName: __ZNSt3__18_IterOpsINS_17_ClassicAlgPolicyEE11__iter_moveB7v160006IRNS_16reverse_iteratorIPPcEEEENS_9enable_ifIXsr12is_referenceIDTdeclsr3stdE7declvalIRT_EEEEE5valueEDTclsr3stdE4movedeclsr3stdE7declvalISB_EEEEE4typeEOSA_, symObjAddr: 0x197A0, symBinAddr: 0x1D038, symSize: 0x28 }
  - { offsetInCU: 0x5F0C9, offset: 0x65F0B, size: 0x8, addend: 0x0, symName: __ZNKSt3__116reverse_iteratorIPPcEdeB7v160006Ev, symObjAddr: 0x197C8, symBinAddr: 0x1D060, symSize: 0x28 }
  - { offsetInCU: 0x5F0FC, offset: 0x65F3E, size: 0x8, addend: 0x0, symName: __ZNSt3__116reverse_iteratorIPPcEppB7v160006Ev, symObjAddr: 0x197F0, symBinAddr: 0x1D088, symSize: 0x20 }
  - { offsetInCU: 0x5F121, offset: 0x65F63, size: 0x8, addend: 0x0, symName: __ZNSt3__18_IterOpsINS_17_ClassicAlgPolicyEE25__validate_iter_referenceB7v160006IRNS_16reverse_iteratorIPPcEEEEvv, symObjAddr: 0x19810, symBinAddr: 0x1D0A8, symSize: 0x4 }
  - { offsetInCU: 0x5F13F, offset: 0x65F81, size: 0x8, addend: 0x0, symName: __ZNSt3__118__unwrap_iter_implINS_16reverse_iteratorIPPcEELb0EE8__unwrapB7v160006ES4_, symObjAddr: 0x19814, symBinAddr: 0x1D0AC, symSize: 0x24 }
  - { offsetInCU: 0x5F168, offset: 0x65FAA, size: 0x8, addend: 0x0, symName: __ZNSt3__14pairINS_16reverse_iteratorIPPcEES4_EC1B7v160006IS4_S4_LPv0EEEOT_OT0_, symObjAddr: 0x19838, symBinAddr: 0x1D0D0, symSize: 0x3C }
  - { offsetInCU: 0x5F1C5, offset: 0x66007, size: 0x8, addend: 0x0, symName: __ZNSt3__14pairINS_16reverse_iteratorIPPcEES4_EC2B7v160006IS4_S4_LPv0EEEOT_OT0_, symObjAddr: 0x19874, symBinAddr: 0x1D10C, symSize: 0x34 }
  - { offsetInCU: 0x5F222, offset: 0x66064, size: 0x8, addend: 0x0, symName: __ZNSt3__118__unwrap_iter_implINS_16reverse_iteratorIPPcEELb0EE8__rewrapB7v160006ES4_S4_, symObjAddr: 0x198A8, symBinAddr: 0x1D140, symSize: 0x2C }
  - { offsetInCU: 0x5F250, offset: 0x66092, size: 0x8, addend: 0x0, symName: __ZNSt3__116reverse_iteratorIPPcEC2B7v160006ES2_, symObjAddr: 0x198D4, symBinAddr: 0x1D16C, symSize: 0x28 }
  - { offsetInCU: 0x5F287, offset: 0x660C9, size: 0x8, addend: 0x0, symName: __ZNSt3__114__split_bufferIPcRNS_9allocatorIS1_EEED2Ev, symObjAddr: 0x198FC, symBinAddr: 0x1D194, symSize: 0x8C }
  - { offsetInCU: 0x5F2B2, offset: 0x660F4, size: 0x8, addend: 0x0, symName: __ZNSt3__114__split_bufferIPcRNS_9allocatorIS1_EEE5clearB7v160006Ev, symObjAddr: 0x19988, symBinAddr: 0x1D220, symSize: 0x28 }
  - { offsetInCU: 0x5F2D7, offset: 0x66119, size: 0x8, addend: 0x0, symName: __ZNSt3__116allocator_traitsINS_9allocatorIPcEEE10deallocateB7v160006ERS3_PS2_m, symObjAddr: 0x199B0, symBinAddr: 0x1D248, symSize: 0x34 }
  - { offsetInCU: 0x5F319, offset: 0x6615B, size: 0x8, addend: 0x0, symName: __ZNKSt3__114__split_bufferIPcRNS_9allocatorIS1_EEE8capacityB7v160006Ev, symObjAddr: 0x199E4, symBinAddr: 0x1D27C, symSize: 0x40 }
  - { offsetInCU: 0x5F33E, offset: 0x66180, size: 0x8, addend: 0x0, symName: __ZNSt3__114__split_bufferIPcRNS_9allocatorIS1_EEE17__destruct_at_endB7v160006EPS1_, symObjAddr: 0x19A24, symBinAddr: 0x1D2BC, symSize: 0x2C }
  - { offsetInCU: 0x5F371, offset: 0x661B3, size: 0x8, addend: 0x0, symName: __ZNSt3__114__split_bufferIPcRNS_9allocatorIS1_EEE17__destruct_at_endB7v160006EPS1_NS_17integral_constantIbLb0EEE, symObjAddr: 0x19A50, symBinAddr: 0x1D2E8, symSize: 0x80 }
  - { offsetInCU: 0x5F3B1, offset: 0x661F3, size: 0x8, addend: 0x0, symName: __ZNSt3__116allocator_traitsINS_9allocatorIPcEEE7destroyB7v160006IS2_vEEvRS3_PT_, symObjAddr: 0x19AD0, symBinAddr: 0x1D368, symSize: 0x2C }
  - { offsetInCU: 0x5F3EF, offset: 0x66231, size: 0x8, addend: 0x0, symName: __ZNSt3__19allocatorIPcE7destroyB7v160006EPS1_, symObjAddr: 0x19AFC, symBinAddr: 0x1D394, symSize: 0x14 }
  - { offsetInCU: 0x5F422, offset: 0x66264, size: 0x8, addend: 0x0, symName: __ZNSt3__19allocatorIPcE10deallocateB7v160006EPS1_m, symObjAddr: 0x19B10, symBinAddr: 0x1D3A8, symSize: 0x40 }
  - { offsetInCU: 0x5F463, offset: 0x662A5, size: 0x8, addend: 0x0, symName: __ZNKSt3__114__split_bufferIPcRNS_9allocatorIS1_EEE9__end_capB7v160006Ev, symObjAddr: 0x19B50, symBinAddr: 0x1D3E8, symSize: 0x28 }
  - { offsetInCU: 0x5F488, offset: 0x662CA, size: 0x8, addend: 0x0, symName: __ZNKSt3__117__compressed_pairIPPcRNS_9allocatorIS1_EEE5firstB7v160006Ev, symObjAddr: 0x19B78, symBinAddr: 0x1D410, symSize: 0x24 }
  - { offsetInCU: 0x5F4AD, offset: 0x662EF, size: 0x8, addend: 0x0, symName: __ZNSt3__16vectorIN8pybind116detail15argument_recordENS_9allocatorIS3_EEE11__make_iterB7v160006EPS3_, symObjAddr: 0x19B9C, symBinAddr: 0x1D434, symSize: 0x34 }
  - { offsetInCU: 0x5F4E1, offset: 0x66323, size: 0x8, addend: 0x0, symName: __ZNSt3__111__wrap_iterIPN8pybind116detail15argument_recordEEC1B7v160006EPKvS4_, symObjAddr: 0x19BD0, symBinAddr: 0x1D468, symSize: 0x3C }
  - { offsetInCU: 0x5F526, offset: 0x66368, size: 0x8, addend: 0x0, symName: __ZNSt3__111__wrap_iterIPN8pybind116detail15argument_recordEEC2B7v160006EPKvS4_, symObjAddr: 0x19C0C, symBinAddr: 0x1D4A4, symSize: 0x24 }
  - { offsetInCU: 0x5F56B, offset: 0x663AD, size: 0x8, addend: 0x0, symName: __ZNKSt3__111__wrap_iterIPN8pybind116detail15argument_recordEE4baseB7v160006Ev, symObjAddr: 0x19C78, symBinAddr: 0x1D510, symSize: 0x18 }
  - { offsetInCU: 0x5F590, offset: 0x663D2, size: 0x8, addend: 0x0, symName: __ZN8pybind113strC1ENS_6handleENS_6object8stolen_tE, symObjAddr: 0x19CD0, symBinAddr: 0x1D568, symSize: 0x34 }
  - { offsetInCU: 0x5F5D4, offset: 0x66416, size: 0x8, addend: 0x0, symName: __ZN8pybind113strC2ENS_6handleENS_6object8stolen_tE, symObjAddr: 0x19D04, symBinAddr: 0x1D59C, symSize: 0x3C }
  - { offsetInCU: 0x5F618, offset: 0x6645A, size: 0x8, addend: 0x0, symName: __ZN8pybind116detail13string_casterINSt3__112basic_stringIcNS2_11char_traitsIcEENS2_9allocatorIcEEEELb0EEcvRS8_Ev, symObjAddr: 0x1A060, symBinAddr: 0x1D8F8, symSize: 0x14 }
  - { offsetInCU: 0x5F63D, offset: 0x6647F, size: 0x8, addend: 0x0, symName: __ZNKSt3__110type_index4nameB7v160006Ev, symObjAddr: 0x1A174, symBinAddr: 0x1DA0C, symSize: 0x28 }
  - { offsetInCU: 0x5F662, offset: 0x664A4, size: 0x8, addend: 0x0, symName: __ZNSt3__113unordered_mapINS_10type_indexEPN8pybind116detail9type_infoENS3_9type_hashENS3_13type_equal_toENS_9allocatorINS_4pairIKS1_S5_EEEEE4findB7v160006ERSA_, symObjAddr: 0x1A2B4, symBinAddr: 0x1DB4C, symSize: 0x40 }
  - { offsetInCU: 0x5F696, offset: 0x664D8, size: 0x8, addend: 0x0, symName: __ZNSt3__113unordered_mapINS_10type_indexEPN8pybind116detail9type_infoENS3_9type_hashENS3_13type_equal_toENS_9allocatorINS_4pairIKS1_S5_EEEEE3endB7v160006Ev, symObjAddr: 0x1A324, symBinAddr: 0x1DBBC, symSize: 0x38 }
  - { offsetInCU: 0x5F6BB, offset: 0x664FD, size: 0x8, addend: 0x0, symName: __ZNKSt3__119__hash_map_iteratorINS_15__hash_iteratorIPNS_11__hash_nodeINS_17__hash_value_typeINS_10type_indexEPN8pybind116detail9type_infoEEEPvEEEEEptB7v160006Ev, symObjAddr: 0x1A35C, symBinAddr: 0x1DBF4, symSize: 0x2C }
  - { offsetInCU: 0x5F6E0, offset: 0x66522, size: 0x8, addend: 0x0, symName: __ZN8pybind116detail15local_internalsC1Ev, symObjAddr: 0x1A388, symBinAddr: 0x1DC20, symSize: 0x2C }
  - { offsetInCU: 0x5F709, offset: 0x6654B, size: 0x8, addend: 0x0, symName: __ZN8pybind116detail15local_internalsC2Ev, symObjAddr: 0x1A3B4, symBinAddr: 0x1DC4C, symSize: 0x15C }
  - { offsetInCU: 0x5F756, offset: 0x66598, size: 0x8, addend: 0x0, symName: __ZNSt3__113unordered_mapINS_12basic_stringIcNS_11char_traitsIcEENS_9allocatorIcEEEEPvNS_4hashIS6_EENS_8equal_toIS6_EENS4_INS_4pairIKS6_S7_EEEEEixEOS6_, symObjAddr: 0x1A510, symBinAddr: 0x1DDA8, symSize: 0x80 }
  - { offsetInCU: 0x5F78C, offset: 0x665CE, size: 0x8, addend: 0x0, symName: __ZN8pybind116detail15local_internals31shared_loader_life_support_dataC1Ev, symObjAddr: 0x1A590, symBinAddr: 0x1DE28, symSize: 0x2C }
  - { offsetInCU: 0x5F7B5, offset: 0x665F7, size: 0x8, addend: 0x0, symName: __ZNSt3__112forward_listIPFvSt13exception_ptrENS_9allocatorIS3_EEED1Ev, symObjAddr: 0x1A5BC, symBinAddr: 0x1DE54, symSize: 0x2C }
  - { offsetInCU: 0x5F7E1, offset: 0x66623, size: 0x8, addend: 0x0, symName: __ZNSt3__113unordered_mapINS_10type_indexEPN8pybind116detail9type_infoENS3_9type_hashENS3_13type_equal_toENS_9allocatorINS_4pairIKS1_S5_EEEEED1B7v160006Ev, symObjAddr: 0x1A5E8, symBinAddr: 0x1DE80, symSize: 0x2C }
  - { offsetInCU: 0x5F80A, offset: 0x6664C, size: 0x8, addend: 0x0, symName: __ZNSt3__112__hash_tableINS_17__hash_value_typeINS_12basic_stringIcNS_11char_traitsIcEENS_9allocatorIcEEEEPvEENS_22__unordered_map_hasherIS7_S9_NS_4hashIS7_EENS_8equal_toIS7_EELb1EEENS_21__unordered_map_equalIS7_S9_SE_SC_Lb1EEENS5_IS9_EEE25__emplace_unique_key_argsIS7_JRKNS_21piecewise_construct_tENS_5tupleIJOS7_EEENSO_IJEEEEEENS_4pairINS_15__hash_iteratorIPNS_11__hash_nodeIS9_S8_EEEEbEERKT_DpOT0_, symObjAddr: 0x1A614, symBinAddr: 0x1DEAC, symSize: 0x4B4 }
  - { offsetInCU: 0x5F913, offset: 0x66755, size: 0x8, addend: 0x0, symName: __ZNKSt3__115__hash_iteratorIPNS_11__hash_nodeINS_17__hash_value_typeINS_12basic_stringIcNS_11char_traitsIcEENS_9allocatorIcEEEEPvEES9_EEEptB7v160006Ev, symObjAddr: 0x1AAF4, symBinAddr: 0x1E38C, symSize: 0x30 }
  - { offsetInCU: 0x5F938, offset: 0x6677A, size: 0x8, addend: 0x0, symName: __ZNSt3__117__hash_value_typeINS_12basic_stringIcNS_11char_traitsIcEENS_9allocatorIcEEEEPvE11__get_valueB7v160006Ev, symObjAddr: 0x1AB24, symBinAddr: 0x1E3BC, symSize: 0x24 }
  - { offsetInCU: 0x5F95D, offset: 0x6679F, size: 0x8, addend: 0x0, symName: __ZNSt3__112__hash_tableINS_17__hash_value_typeINS_12basic_stringIcNS_11char_traitsIcEENS_9allocatorIcEEEEPvEENS_22__unordered_map_hasherIS7_S9_NS_4hashIS7_EENS_8equal_toIS7_EELb1EEENS_21__unordered_map_equalIS7_S9_SE_SC_Lb1EEENS5_IS9_EEE13hash_functionB7v160006Ev, symObjAddr: 0x1AB48, symBinAddr: 0x1E3E0, symSize: 0x28 }
  - { offsetInCU: 0x5F982, offset: 0x667C4, size: 0x8, addend: 0x0, symName: __ZNKSt3__122__unordered_map_hasherINS_12basic_stringIcNS_11char_traitsIcEENS_9allocatorIcEEEENS_17__hash_value_typeIS6_PvEENS_4hashIS6_EENS_8equal_toIS6_EELb1EEclB7v160006ERKS6_, symObjAddr: 0x1AB70, symBinAddr: 0x1E408, symSize: 0x2C }
  - { offsetInCU: 0x5F9B6, offset: 0x667F8, size: 0x8, addend: 0x0, symName: __ZNKSt3__112__hash_tableINS_17__hash_value_typeINS_12basic_stringIcNS_11char_traitsIcEENS_9allocatorIcEEEEPvEENS_22__unordered_map_hasherIS7_S9_NS_4hashIS7_EENS_8equal_toIS7_EELb1EEENS_21__unordered_map_equalIS7_S9_SE_SC_Lb1EEENS5_IS9_EEE12bucket_countB7v160006Ev, symObjAddr: 0x1AB9C, symBinAddr: 0x1E434, symSize: 0x28 }
  - { offsetInCU: 0x5F9DB, offset: 0x6681D, size: 0x8, addend: 0x0, symName: __ZNKSt3__110unique_ptrIA_PNS_16__hash_node_baseIPNS_11__hash_nodeINS_17__hash_value_typeINS_12basic_stringIcNS_11char_traitsIcEENS_9allocatorIcEEEEPvEESA_EEEENS_25__bucket_list_deallocatorINS7_ISF_EEEEEixB7v160006Em, symObjAddr: 0x1ABC4, symBinAddr: 0x1E45C, symSize: 0x34 }
  - { offsetInCU: 0x5FA0F, offset: 0x66851, size: 0x8, addend: 0x0, symName: __ZNKSt3__116__hash_node_baseIPNS_11__hash_nodeINS_17__hash_value_typeINS_12basic_stringIcNS_11char_traitsIcEENS_9allocatorIcEEEEPvEES9_EEE6__hashB7v160006Ev, symObjAddr: 0x1ABF8, symBinAddr: 0x1E490, symSize: 0x18 }
  - { offsetInCU: 0x5FA34, offset: 0x66876, size: 0x8, addend: 0x0, symName: __ZNSt3__112__hash_tableINS_17__hash_value_typeINS_12basic_stringIcNS_11char_traitsIcEENS_9allocatorIcEEEEPvEENS_22__unordered_map_hasherIS7_S9_NS_4hashIS7_EENS_8equal_toIS7_EELb1EEENS_21__unordered_map_equalIS7_S9_SE_SC_Lb1EEENS5_IS9_EEE6key_eqB7v160006Ev, symObjAddr: 0x1AC10, symBinAddr: 0x1E4A8, symSize: 0x28 }
  - { offsetInCU: 0x5FA59, offset: 0x6689B, size: 0x8, addend: 0x0, symName: __ZNKSt3__121__unordered_map_equalINS_12basic_stringIcNS_11char_traitsIcEENS_9allocatorIcEEEENS_17__hash_value_typeIS6_PvEENS_8equal_toIS6_EENS_4hashIS6_EELb1EEclB7v160006ERKS9_RKS6_, symObjAddr: 0x1AC38, symBinAddr: 0x1E4D0, symSize: 0x48 }
  - { offsetInCU: 0x5FA9C, offset: 0x668DE, size: 0x8, addend: 0x0, symName: __ZNSt3__116__hash_node_baseIPNS_11__hash_nodeINS_17__hash_value_typeINS_12basic_stringIcNS_11char_traitsIcEENS_9allocatorIcEEEEPvEES9_EEE8__upcastB7v160006Ev, symObjAddr: 0x1AC80, symBinAddr: 0x1E518, symSize: 0x24 }
  - { offsetInCU: 0x5FAC1, offset: 0x66903, size: 0x8, addend: 0x0, symName: __ZNSt3__112__hash_tableINS_17__hash_value_typeINS_12basic_stringIcNS_11char_traitsIcEENS_9allocatorIcEEEEPvEENS_22__unordered_map_hasherIS7_S9_NS_4hashIS7_EENS_8equal_toIS7_EELb1EEENS_21__unordered_map_equalIS7_S9_SE_SC_Lb1EEENS5_IS9_EEE21__construct_node_hashIRKNS_21piecewise_construct_tEJNS_5tupleIJOS7_EEENSO_IJEEEEEENS_10unique_ptrINS_11__hash_nodeIS9_S8_EENS_22__hash_node_destructorINS5_ISU_EEEEEEmOT_DpOT0_, symObjAddr: 0x1ACA4, symBinAddr: 0x1E53C, symSize: 0x150 }
  - { offsetInCU: 0x5FB5C, offset: 0x6699E, size: 0x8, addend: 0x0, symName: __ZNSt3__112__hash_tableINS_17__hash_value_typeINS_12basic_stringIcNS_11char_traitsIcEENS_9allocatorIcEEEEPvEENS_22__unordered_map_hasherIS7_S9_NS_4hashIS7_EENS_8equal_toIS7_EELb1EEENS_21__unordered_map_equalIS7_S9_SE_SC_Lb1EEENS5_IS9_EEE4sizeB7v160006Ev, symObjAddr: 0x1ADF4, symBinAddr: 0x1E68C, symSize: 0x28 }
  - { offsetInCU: 0x5FB81, offset: 0x669C3, size: 0x8, addend: 0x0, symName: __ZNSt3__112__hash_tableINS_17__hash_value_typeINS_12basic_stringIcNS_11char_traitsIcEENS_9allocatorIcEEEEPvEENS_22__unordered_map_hasherIS7_S9_NS_4hashIS7_EENS_8equal_toIS7_EELb1EEENS_21__unordered_map_equalIS7_S9_SE_SC_Lb1EEENS5_IS9_EEE15max_load_factorB7v160006Ev, symObjAddr: 0x1AE1C, symBinAddr: 0x1E6B4, symSize: 0x28 }
  - { offsetInCU: 0x5FBA6, offset: 0x669E8, size: 0x8, addend: 0x0, symName: __ZNSt3__112__hash_tableINS_17__hash_value_typeINS_12basic_stringIcNS_11char_traitsIcEENS_9allocatorIcEEEEPvEENS_22__unordered_map_hasherIS7_S9_NS_4hashIS7_EENS_8equal_toIS7_EELb1EEENS_21__unordered_map_equalIS7_S9_SE_SC_Lb1EEENS5_IS9_EEE15__rehash_uniqueB7v160006Em, symObjAddr: 0x1AE44, symBinAddr: 0x1E6DC, symSize: 0x2C }
  - { offsetInCU: 0x5FBDA, offset: 0x66A1C, size: 0x8, addend: 0x0, symName: __ZNSt3__117__compressed_pairINS_16__hash_node_baseIPNS_11__hash_nodeINS_17__hash_value_typeINS_12basic_stringIcNS_11char_traitsIcEENS_9allocatorIcEEEEPvEESA_EEEENS7_ISC_EEE5firstB7v160006Ev, symObjAddr: 0x1AE70, symBinAddr: 0x1E708, symSize: 0x24 }
  - { offsetInCU: 0x5FBFF, offset: 0x66A41, size: 0x8, addend: 0x0, symName: __ZNSt3__116__hash_node_baseIPNS_11__hash_nodeINS_17__hash_value_typeINS_12basic_stringIcNS_11char_traitsIcEENS_9allocatorIcEEEEPvEES9_EEE5__ptrB7v160006Ev, symObjAddr: 0x1AE94, symBinAddr: 0x1E72C, symSize: 0x24 }
  - { offsetInCU: 0x5FC24, offset: 0x66A66, size: 0x8, addend: 0x0, symName: __ZNKSt3__110unique_ptrINS_11__hash_nodeINS_17__hash_value_typeINS_12basic_stringIcNS_11char_traitsIcEENS_9allocatorIcEEEEPvEES9_EENS_22__hash_node_destructorINS6_ISB_EEEEEptB7v160006Ev, symObjAddr: 0x1AEB8, symBinAddr: 0x1E750, symSize: 0x28 }
  - { offsetInCU: 0x5FC49, offset: 0x66A8B, size: 0x8, addend: 0x0, symName: __ZNKSt3__110unique_ptrINS_11__hash_nodeINS_17__hash_value_typeINS_12basic_stringIcNS_11char_traitsIcEENS_9allocatorIcEEEEPvEES9_EENS_22__hash_node_destructorINS6_ISB_EEEEE3getB7v160006Ev, symObjAddr: 0x1AEE0, symBinAddr: 0x1E778, symSize: 0x28 }
  - { offsetInCU: 0x5FC6E, offset: 0x66AB0, size: 0x8, addend: 0x0, symName: __ZNSt3__110unique_ptrINS_11__hash_nodeINS_17__hash_value_typeINS_12basic_stringIcNS_11char_traitsIcEENS_9allocatorIcEEEEPvEES9_EENS_22__hash_node_destructorINS6_ISB_EEEEE7releaseB7v160006Ev, symObjAddr: 0x1AF08, symBinAddr: 0x1E7A0, symSize: 0x44 }
  - { offsetInCU: 0x5FCA2, offset: 0x66AE4, size: 0x8, addend: 0x0, symName: __ZNSt3__110unique_ptrINS_11__hash_nodeINS_17__hash_value_typeINS_12basic_stringIcNS_11char_traitsIcEENS_9allocatorIcEEEEPvEES9_EENS_22__hash_node_destructorINS6_ISB_EEEEED1B7v160006Ev, symObjAddr: 0x1AF4C, symBinAddr: 0x1E7E4, symSize: 0x2C }
  - { offsetInCU: 0x5FCCB, offset: 0x66B0D, size: 0x8, addend: 0x0, symName: __ZNSt3__115__hash_iteratorIPNS_11__hash_nodeINS_17__hash_value_typeINS_12basic_stringIcNS_11char_traitsIcEENS_9allocatorIcEEEEPvEES9_EEEC1B7v160006EPNS_16__hash_node_baseISC_EEPKv, symObjAddr: 0x1AF78, symBinAddr: 0x1E810, symSize: 0x3C }
  - { offsetInCU: 0x5FD18, offset: 0x66B5A, size: 0x8, addend: 0x0, symName: __ZNSt3__14pairINS_15__hash_iteratorIPNS_11__hash_nodeINS_17__hash_value_typeINS_12basic_stringIcNS_11char_traitsIcEENS_9allocatorIcEEEEPvEESA_EEEEbEC1B7v160006ISE_RbLSA_0EEEOT_OT0_, symObjAddr: 0x1AFB4, symBinAddr: 0x1E84C, symSize: 0x3C }
  - { offsetInCU: 0x5FD75, offset: 0x66BB7, size: 0x8, addend: 0x0, symName: __ZNSt3__117__compressed_pairImNS_22__unordered_map_hasherINS_12basic_stringIcNS_11char_traitsIcEENS_9allocatorIcEEEENS_17__hash_value_typeIS7_PvEENS_4hashIS7_EENS_8equal_toIS7_EELb1EEEE6secondB7v160006Ev, symObjAddr: 0x1AFF0, symBinAddr: 0x1E888, symSize: 0x24 }
  - { offsetInCU: 0x5FD9A, offset: 0x66BDC, size: 0x8, addend: 0x0, symName: __ZNSt3__122__compressed_pair_elemINS_22__unordered_map_hasherINS_12basic_stringIcNS_11char_traitsIcEENS_9allocatorIcEEEENS_17__hash_value_typeIS7_PvEENS_4hashIS7_EENS_8equal_toIS7_EELb1EEELi1ELb1EE5__getB7v160006Ev, symObjAddr: 0x1B014, symBinAddr: 0x1E8AC, symSize: 0x14 }
  - { offsetInCU: 0x5FDBF, offset: 0x66C01, size: 0x8, addend: 0x0, symName: __ZNKSt3__113__string_hashIcNS_9allocatorIcEEEclERKNS_12basic_stringIcNS_11char_traitsIcEES2_EE, symObjAddr: 0x1B028, symBinAddr: 0x1E8C0, symSize: 0x64 }
  - { offsetInCU: 0x5FDF3, offset: 0x66C35, size: 0x8, addend: 0x0, symName: __ZNKSt3__110unique_ptrIA_PNS_16__hash_node_baseIPNS_11__hash_nodeINS_17__hash_value_typeINS_12basic_stringIcNS_11char_traitsIcEENS_9allocatorIcEEEEPvEESA_EEEENS_25__bucket_list_deallocatorINS7_ISF_EEEEE11get_deleterB7v160006Ev, symObjAddr: 0x1B0C8, symBinAddr: 0x1E960, symSize: 0x24 }
  - { offsetInCU: 0x5FE18, offset: 0x66C5A, size: 0x8, addend: 0x0, symName: __ZNKSt3__125__bucket_list_deallocatorINS_9allocatorIPNS_16__hash_node_baseIPNS_11__hash_nodeINS_17__hash_value_typeINS_12basic_stringIcNS_11char_traitsIcEENS1_IcEEEEPvEESA_EEEEEEE4sizeB7v160006Ev, symObjAddr: 0x1B0EC, symBinAddr: 0x1E984, symSize: 0x28 }
  - { offsetInCU: 0x5FE3D, offset: 0x66C7F, size: 0x8, addend: 0x0, symName: __ZNKSt3__117__compressed_pairIPPNS_16__hash_node_baseIPNS_11__hash_nodeINS_17__hash_value_typeINS_12basic_stringIcNS_11char_traitsIcEENS_9allocatorIcEEEEPvEESA_EEEENS_25__bucket_list_deallocatorINS7_ISF_EEEEE6secondB7v160006Ev, symObjAddr: 0x1B114, symBinAddr: 0x1E9AC, symSize: 0x28 }
  - { offsetInCU: 0x5FE62, offset: 0x66CA4, size: 0x8, addend: 0x0, symName: __ZNKSt3__122__compressed_pair_elemINS_25__bucket_list_deallocatorINS_9allocatorIPNS_16__hash_node_baseIPNS_11__hash_nodeINS_17__hash_value_typeINS_12basic_stringIcNS_11char_traitsIcEENS2_IcEEEEPvEESB_EEEEEEEELi1ELb0EE5__getB7v160006Ev, symObjAddr: 0x1B13C, symBinAddr: 0x1E9D4, symSize: 0x14 }
  - { offsetInCU: 0x5FE87, offset: 0x66CC9, size: 0x8, addend: 0x0, symName: __ZNKSt3__117__compressed_pairImNS_9allocatorIPNS_16__hash_node_baseIPNS_11__hash_nodeINS_17__hash_value_typeINS_12basic_stringIcNS_11char_traitsIcEENS1_IcEEEEPvEESA_EEEEEEE5firstB7v160006Ev, symObjAddr: 0x1B150, symBinAddr: 0x1E9E8, symSize: 0x24 }
  - { offsetInCU: 0x5FEAC, offset: 0x66CEE, size: 0x8, addend: 0x0, symName: __ZNKSt3__117__compressed_pairIPPNS_16__hash_node_baseIPNS_11__hash_nodeINS_17__hash_value_typeINS_12basic_stringIcNS_11char_traitsIcEENS_9allocatorIcEEEEPvEESA_EEEENS_25__bucket_list_deallocatorINS7_ISF_EEEEE5firstB7v160006Ev, symObjAddr: 0x1B174, symBinAddr: 0x1EA0C, symSize: 0x24 }
  - { offsetInCU: 0x5FED1, offset: 0x66D13, size: 0x8, addend: 0x0, symName: __ZNKSt3__122__compressed_pair_elemIPPNS_16__hash_node_baseIPNS_11__hash_nodeINS_17__hash_value_typeINS_12basic_stringIcNS_11char_traitsIcEENS_9allocatorIcEEEEPvEESA_EEEELi0ELb0EE5__getB7v160006Ev, symObjAddr: 0x1B198, symBinAddr: 0x1EA30, symSize: 0x14 }
  - { offsetInCU: 0x5FEF6, offset: 0x66D38, size: 0x8, addend: 0x0, symName: __ZNSt3__117__compressed_pairIfNS_21__unordered_map_equalINS_12basic_stringIcNS_11char_traitsIcEENS_9allocatorIcEEEENS_17__hash_value_typeIS7_PvEENS_8equal_toIS7_EENS_4hashIS7_EELb1EEEE6secondB7v160006Ev, symObjAddr: 0x1B1AC, symBinAddr: 0x1EA44, symSize: 0x24 }
  - { offsetInCU: 0x5FF1B, offset: 0x66D5D, size: 0x8, addend: 0x0, symName: __ZNSt3__122__compressed_pair_elemINS_21__unordered_map_equalINS_12basic_stringIcNS_11char_traitsIcEENS_9allocatorIcEEEENS_17__hash_value_typeIS7_PvEENS_8equal_toIS7_EENS_4hashIS7_EELb1EEELi1ELb1EE5__getB7v160006Ev, symObjAddr: 0x1B1D0, symBinAddr: 0x1EA68, symSize: 0x14 }
  - { offsetInCU: 0x5FF40, offset: 0x66D82, size: 0x8, addend: 0x0, symName: __ZNKSt3__18equal_toINS_12basic_stringIcNS_11char_traitsIcEENS_9allocatorIcEEEEEclB7v160006ERKS6_S9_, symObjAddr: 0x1B1E4, symBinAddr: 0x1EA7C, symSize: 0x34 }
  - { offsetInCU: 0x5FF83, offset: 0x66DC5, size: 0x8, addend: 0x0, symName: __ZNKSt3__117__hash_value_typeINS_12basic_stringIcNS_11char_traitsIcEENS_9allocatorIcEEEEPvE11__get_valueB7v160006Ev, symObjAddr: 0x1B218, symBinAddr: 0x1EAB0, symSize: 0x24 }
  - { offsetInCU: 0x5FFA8, offset: 0x66DEA, size: 0x8, addend: 0x0, symName: __ZNSt3__114pointer_traitsIPNS_16__hash_node_baseIPNS_11__hash_nodeINS_17__hash_value_typeINS_12basic_stringIcNS_11char_traitsIcEENS_9allocatorIcEEEEPvEESA_EEEEE10pointer_toB7v160006ERSE_, symObjAddr: 0x1B3BC, symBinAddr: 0x1EC54, symSize: 0x14 }
  - { offsetInCU: 0x5FFCB, offset: 0x66E0D, size: 0x8, addend: 0x0, symName: __ZNSt3__112__hash_tableINS_17__hash_value_typeINS_12basic_stringIcNS_11char_traitsIcEENS_9allocatorIcEEEEPvEENS_22__unordered_map_hasherIS7_S9_NS_4hashIS7_EENS_8equal_toIS7_EELb1EEENS_21__unordered_map_equalIS7_S9_SE_SC_Lb1EEENS5_IS9_EEE12__node_allocB7v160006Ev, symObjAddr: 0x1B3D0, symBinAddr: 0x1EC68, symSize: 0x28 }
  - { offsetInCU: 0x5FFF0, offset: 0x66E32, size: 0x8, addend: 0x0, symName: __ZNSt3__116allocator_traitsINS_9allocatorINS_11__hash_nodeINS_17__hash_value_typeINS_12basic_stringIcNS_11char_traitsIcEENS1_IcEEEEPvEES9_EEEEE8allocateB7v160006ERSC_m, symObjAddr: 0x1B3F8, symBinAddr: 0x1EC90, symSize: 0x2C }
  - { offsetInCU: 0x60023, offset: 0x66E65, size: 0x8, addend: 0x0, symName: __ZNSt3__122__hash_node_destructorINS_9allocatorINS_11__hash_nodeINS_17__hash_value_typeINS_12basic_stringIcNS_11char_traitsIcEENS1_IcEEEEPvEES9_EEEEEC1B7v160006ERSC_b, symObjAddr: 0x1B424, symBinAddr: 0x1ECBC, symSize: 0x48 }
  - { offsetInCU: 0x60070, offset: 0x66EB2, size: 0x8, addend: 0x0, symName: __ZNSt3__110unique_ptrINS_11__hash_nodeINS_17__hash_value_typeINS_12basic_stringIcNS_11char_traitsIcEENS_9allocatorIcEEEEPvEES9_EENS_22__hash_node_destructorINS6_ISB_EEEEEC1B7v160006ILb1EvEEPSB_NS_16__dependent_typeINS_27__unique_ptr_deleter_sfinaeISE_EEXT_EE20__good_rval_ref_typeE, symObjAddr: 0x1B46C, symBinAddr: 0x1ED04, symSize: 0x3C }
  - { offsetInCU: 0x600C1, offset: 0x66F03, size: 0x8, addend: 0x0, symName: __ZNSt3__116allocator_traitsINS_9allocatorINS_11__hash_nodeINS_17__hash_value_typeINS_12basic_stringIcNS_11char_traitsIcEENS1_IcEEEEPvEES9_EEEEE9constructB7v160006INS_4pairIKS8_S9_EEJRKNS_21piecewise_construct_tENS_5tupleIJOS8_EEENSL_IJEEEEvEEvRSC_PT_DpOT0_, symObjAddr: 0x1B4A8, symBinAddr: 0x1ED40, symSize: 0x44 }
  - { offsetInCU: 0x60141, offset: 0x66F83, size: 0x8, addend: 0x0, symName: __ZNSt3__122__hash_key_value_typesINS_17__hash_value_typeINS_12basic_stringIcNS_11char_traitsIcEENS_9allocatorIcEEEEPvEEE9__get_ptrB7v160006ERS9_, symObjAddr: 0x1B4EC, symBinAddr: 0x1ED84, symSize: 0x24 }
  - { offsetInCU: 0x60164, offset: 0x66FA6, size: 0x8, addend: 0x0, symName: __ZNSt3__110unique_ptrINS_11__hash_nodeINS_17__hash_value_typeINS_12basic_stringIcNS_11char_traitsIcEENS_9allocatorIcEEEEPvEES9_EENS_22__hash_node_destructorINS6_ISB_EEEEE11get_deleterB7v160006Ev, symObjAddr: 0x1B510, symBinAddr: 0x1EDA8, symSize: 0x24 }
  - { offsetInCU: 0x60189, offset: 0x66FCB, size: 0x8, addend: 0x0, symName: __ZNSt3__117__compressed_pairINS_16__hash_node_baseIPNS_11__hash_nodeINS_17__hash_value_typeINS_12basic_stringIcNS_11char_traitsIcEENS_9allocatorIcEEEEPvEESA_EEEENS7_ISC_EEE6secondB7v160006Ev, symObjAddr: 0x1B534, symBinAddr: 0x1EDCC, symSize: 0x24 }
  - { offsetInCU: 0x601AE, offset: 0x66FF0, size: 0x8, addend: 0x0, symName: __ZNSt3__122__compressed_pair_elemINS_9allocatorINS_11__hash_nodeINS_17__hash_value_typeINS_12basic_stringIcNS_11char_traitsIcEENS1_IcEEEEPvEES9_EEEELi1ELb1EE5__getB7v160006Ev, symObjAddr: 0x1B558, symBinAddr: 0x1EDF0, symSize: 0x14 }
  - { offsetInCU: 0x601D3, offset: 0x67015, size: 0x8, addend: 0x0, symName: __ZNSt3__19allocatorINS_11__hash_nodeINS_17__hash_value_typeINS_12basic_stringIcNS_11char_traitsIcEENS0_IcEEEEPvEES8_EEE8allocateB7v160006Em, symObjAddr: 0x1B56C, symBinAddr: 0x1EE04, symSize: 0x5C }
  - { offsetInCU: 0x60210, offset: 0x67052, size: 0x8, addend: 0x0, symName: __ZNSt3__116allocator_traitsINS_9allocatorINS_11__hash_nodeINS_17__hash_value_typeINS_12basic_stringIcNS_11char_traitsIcEENS1_IcEEEEPvEES9_EEEEE8max_sizeB7v160006ISC_vEEmRKSC_, symObjAddr: 0x1B5C8, symBinAddr: 0x1EE60, symSize: 0x24 }
  - { offsetInCU: 0x6023F, offset: 0x67081, size: 0x8, addend: 0x0, symName: __ZNKSt3__19allocatorINS_11__hash_nodeINS_17__hash_value_typeINS_12basic_stringIcNS_11char_traitsIcEENS0_IcEEEEPvEES8_EEE8max_sizeB7v160006Ev, symObjAddr: 0x1B5EC, symBinAddr: 0x1EE84, symSize: 0x18 }
  - { offsetInCU: 0x60264, offset: 0x670A6, size: 0x8, addend: 0x0, symName: __ZNSt3__122__hash_node_destructorINS_9allocatorINS_11__hash_nodeINS_17__hash_value_typeINS_12basic_stringIcNS_11char_traitsIcEENS1_IcEEEEPvEES9_EEEEEC2B7v160006ERSC_b, symObjAddr: 0x1B604, symBinAddr: 0x1EE9C, symSize: 0x38 }
  - { offsetInCU: 0x602AB, offset: 0x670ED, size: 0x8, addend: 0x0, symName: __ZNSt3__110unique_ptrINS_11__hash_nodeINS_17__hash_value_typeINS_12basic_stringIcNS_11char_traitsIcEENS_9allocatorIcEEEEPvEES9_EENS_22__hash_node_destructorINS6_ISB_EEEEEC2B7v160006ILb1EvEEPSB_NS_16__dependent_typeINS_27__unique_ptr_deleter_sfinaeISE_EEXT_EE20__good_rval_ref_typeE, symObjAddr: 0x1B63C, symBinAddr: 0x1EED4, symSize: 0x48 }
  - { offsetInCU: 0x602FC, offset: 0x6713E, size: 0x8, addend: 0x0, symName: __ZNSt3__117__compressed_pairIPNS_11__hash_nodeINS_17__hash_value_typeINS_12basic_stringIcNS_11char_traitsIcEENS_9allocatorIcEEEEPvEES9_EENS_22__hash_node_destructorINS6_ISB_EEEEEC1B7v160006IRSC_SF_EEOT_OT0_, symObjAddr: 0x1B684, symBinAddr: 0x1EF1C, symSize: 0x3C }
  - { offsetInCU: 0x60353, offset: 0x67195, size: 0x8, addend: 0x0, symName: __ZNSt3__117__compressed_pairIPNS_11__hash_nodeINS_17__hash_value_typeINS_12basic_stringIcNS_11char_traitsIcEENS_9allocatorIcEEEEPvEES9_EENS_22__hash_node_destructorINS6_ISB_EEEEEC2B7v160006IRSC_SF_EEOT_OT0_, symObjAddr: 0x1B6C0, symBinAddr: 0x1EF58, symSize: 0x48 }
  - { offsetInCU: 0x603AA, offset: 0x671EC, size: 0x8, addend: 0x0, symName: __ZNSt3__122__compressed_pair_elemIPNS_11__hash_nodeINS_17__hash_value_typeINS_12basic_stringIcNS_11char_traitsIcEENS_9allocatorIcEEEEPvEES9_EELi0ELb0EEC2B7v160006IRSC_vEEOT_, symObjAddr: 0x1B708, symBinAddr: 0x1EFA0, symSize: 0x24 }
  - { offsetInCU: 0x603EC, offset: 0x6722E, size: 0x8, addend: 0x0, symName: __ZNSt3__122__compressed_pair_elemINS_22__hash_node_destructorINS_9allocatorINS_11__hash_nodeINS_17__hash_value_typeINS_12basic_stringIcNS_11char_traitsIcEENS2_IcEEEEPvEESA_EEEEEELi1ELb0EEC2B7v160006ISE_vEEOT_, symObjAddr: 0x1B72C, symBinAddr: 0x1EFC4, symSize: 0x24 }
  - { offsetInCU: 0x6042E, offset: 0x67270, size: 0x8, addend: 0x0, symName: __ZNSt3__19allocatorINS_11__hash_nodeINS_17__hash_value_typeINS_12basic_stringIcNS_11char_traitsIcEENS0_IcEEEEPvEES8_EEE9constructB7v160006INS_4pairIKS7_S8_EEJRKNS_21piecewise_construct_tENS_5tupleIJOS7_EEENSJ_IJEEEEEEvPT_DpOT0_, symObjAddr: 0x1B750, symBinAddr: 0x1EFE8, symSize: 0x44 }
  - { offsetInCU: 0x604A9, offset: 0x672EB, size: 0x8, addend: 0x0, symName: __ZNSt3__14pairIKNS_12basic_stringIcNS_11char_traitsIcEENS_9allocatorIcEEEEPvEC1B7v160006IJOS6_EJEEENS_21piecewise_construct_tENS_5tupleIJDpT_EEENSD_IJDpT0_EEE, symObjAddr: 0x1B794, symBinAddr: 0x1F02C, symSize: 0x44 }
  - { offsetInCU: 0x6050F, offset: 0x67351, size: 0x8, addend: 0x0, symName: __ZNSt3__14pairIKNS_12basic_stringIcNS_11char_traitsIcEENS_9allocatorIcEEEEPvEC1B7v160006IJOS6_EJEJLm0EEJEEENS_21piecewise_construct_tERNS_5tupleIJDpT_EEERNSD_IJDpT0_EEENS_15__tuple_indicesIJXspT1_EEEENSM_IJXspT2_EEEE, symObjAddr: 0x1B7D8, symBinAddr: 0x1F070, symSize: 0x3C }
  - { offsetInCU: 0x6059E, offset: 0x673E0, size: 0x8, addend: 0x0, symName: __ZNSt3__14pairIKNS_12basic_stringIcNS_11char_traitsIcEENS_9allocatorIcEEEEPvEC2B7v160006IJOS6_EJEJLm0EEJEEENS_21piecewise_construct_tERNS_5tupleIJDpT_EEERNSD_IJDpT0_EEENS_15__tuple_indicesIJXspT1_EEEENSM_IJXspT2_EEEE, symObjAddr: 0x1B814, symBinAddr: 0x1F0AC, symSize: 0x48 }
  - { offsetInCU: 0x6062D, offset: 0x6746F, size: 0x8, addend: 0x0, symName: __ZNSt3__112__tuple_leafILm0EONS_12basic_stringIcNS_11char_traitsIcEENS_9allocatorIcEEEELb0EE3getB7v160006Ev, symObjAddr: 0x1B880, symBinAddr: 0x1F118, symSize: 0x18 }
  - { offsetInCU: 0x60652, offset: 0x67494, size: 0x8, addend: 0x0, symName: __ZNSt3__117__compressed_pairIPNS_11__hash_nodeINS_17__hash_value_typeINS_12basic_stringIcNS_11char_traitsIcEENS_9allocatorIcEEEEPvEES9_EENS_22__hash_node_destructorINS6_ISB_EEEEE6secondB7v160006Ev, symObjAddr: 0x1B898, symBinAddr: 0x1F130, symSize: 0x28 }
  - { offsetInCU: 0x60677, offset: 0x674B9, size: 0x8, addend: 0x0, symName: __ZNSt3__122__compressed_pair_elemINS_22__hash_node_destructorINS_9allocatorINS_11__hash_nodeINS_17__hash_value_typeINS_12basic_stringIcNS_11char_traitsIcEENS2_IcEEEEPvEESA_EEEEEELi1ELb0EE5__getB7v160006Ev, symObjAddr: 0x1B8C0, symBinAddr: 0x1F158, symSize: 0x14 }
  - { offsetInCU: 0x6069C, offset: 0x674DE, size: 0x8, addend: 0x0, symName: __ZNSt3__117__compressed_pairImNS_22__unordered_map_hasherINS_12basic_stringIcNS_11char_traitsIcEENS_9allocatorIcEEEENS_17__hash_value_typeIS7_PvEENS_4hashIS7_EENS_8equal_toIS7_EELb1EEEE5firstB7v160006Ev, symObjAddr: 0x1B8D4, symBinAddr: 0x1F16C, symSize: 0x24 }
  - { offsetInCU: 0x606C1, offset: 0x67503, size: 0x8, addend: 0x0, symName: __ZNSt3__117__compressed_pairIfNS_21__unordered_map_equalINS_12basic_stringIcNS_11char_traitsIcEENS_9allocatorIcEEEENS_17__hash_value_typeIS7_PvEENS_8equal_toIS7_EENS_4hashIS7_EELb1EEEE5firstB7v160006Ev, symObjAddr: 0x1B8F8, symBinAddr: 0x1F190, symSize: 0x24 }
  - { offsetInCU: 0x606E6, offset: 0x67528, size: 0x8, addend: 0x0, symName: __ZNSt3__112__hash_tableINS_17__hash_value_typeINS_12basic_stringIcNS_11char_traitsIcEENS_9allocatorIcEEEEPvEENS_22__unordered_map_hasherIS7_S9_NS_4hashIS7_EENS_8equal_toIS7_EELb1EEENS_21__unordered_map_equalIS7_S9_SE_SC_Lb1EEENS5_IS9_EEE8__rehashILb1EEEvm, symObjAddr: 0x1B91C, symBinAddr: 0x1F1B4, symSize: 0x1A8 }
  - { offsetInCU: 0x60735, offset: 0x67577, size: 0x8, addend: 0x0, symName: __ZNSt3__112__hash_tableINS_17__hash_value_typeINS_12basic_stringIcNS_11char_traitsIcEENS_9allocatorIcEEEEPvEENS_22__unordered_map_hasherIS7_S9_NS_4hashIS7_EENS_8equal_toIS7_EELb1EEENS_21__unordered_map_equalIS7_S9_SE_SC_Lb1EEENS5_IS9_EEE11__do_rehashILb1EEEvm, symObjAddr: 0x1BAC4, symBinAddr: 0x1F35C, symSize: 0x290 }
  - { offsetInCU: 0x60817, offset: 0x67659, size: 0x8, addend: 0x0, symName: __ZNSt3__110unique_ptrIA_PNS_16__hash_node_baseIPNS_11__hash_nodeINS_17__hash_value_typeINS_12basic_stringIcNS_11char_traitsIcEENS_9allocatorIcEEEEPvEESA_EEEENS_25__bucket_list_deallocatorINS7_ISF_EEEEE11get_deleterB7v160006Ev, symObjAddr: 0x1BD64, symBinAddr: 0x1F5FC, symSize: 0x24 }
  - { offsetInCU: 0x6083C, offset: 0x6767E, size: 0x8, addend: 0x0, symName: __ZNSt3__125__bucket_list_deallocatorINS_9allocatorIPNS_16__hash_node_baseIPNS_11__hash_nodeINS_17__hash_value_typeINS_12basic_stringIcNS_11char_traitsIcEENS1_IcEEEEPvEESA_EEEEEEE7__allocB7v160006Ev, symObjAddr: 0x1BD88, symBinAddr: 0x1F620, symSize: 0x24 }
  - { offsetInCU: 0x60861, offset: 0x676A3, size: 0x8, addend: 0x0, symName: __ZNSt3__110unique_ptrIA_PNS_16__hash_node_baseIPNS_11__hash_nodeINS_17__hash_value_typeINS_12basic_stringIcNS_11char_traitsIcEENS_9allocatorIcEEEEPvEESA_EEEENS_25__bucket_list_deallocatorINS7_ISF_EEEEE5resetB7v160006IPSF_EENS_9enable_ifIXsr28_CheckArrayPointerConversionIT_EE5valueEvE4typeESO_, symObjAddr: 0x1BDAC, symBinAddr: 0x1F644, symSize: 0x78 }
  - { offsetInCU: 0x608AD, offset: 0x676EF, size: 0x8, addend: 0x0, symName: __ZNSt3__116allocator_traitsINS_9allocatorIPNS_16__hash_node_baseIPNS_11__hash_nodeINS_17__hash_value_typeINS_12basic_stringIcNS_11char_traitsIcEENS1_IcEEEEPvEESA_EEEEEEE8allocateB7v160006ERSG_m, symObjAddr: 0x1BE24, symBinAddr: 0x1F6BC, symSize: 0x2C }
  - { offsetInCU: 0x608E0, offset: 0x67722, size: 0x8, addend: 0x0, symName: __ZNSt3__125__bucket_list_deallocatorINS_9allocatorIPNS_16__hash_node_baseIPNS_11__hash_nodeINS_17__hash_value_typeINS_12basic_stringIcNS_11char_traitsIcEENS1_IcEEEEPvEESA_EEEEEEE4sizeB7v160006Ev, symObjAddr: 0x1BE50, symBinAddr: 0x1F6E8, symSize: 0x24 }
  - { offsetInCU: 0x60905, offset: 0x67747, size: 0x8, addend: 0x0, symName: __ZNSt3__117__compressed_pairIPPNS_16__hash_node_baseIPNS_11__hash_nodeINS_17__hash_value_typeINS_12basic_stringIcNS_11char_traitsIcEENS_9allocatorIcEEEEPvEESA_EEEENS_25__bucket_list_deallocatorINS7_ISF_EEEEE6secondB7v160006Ev, symObjAddr: 0x1BE74, symBinAddr: 0x1F70C, symSize: 0x28 }
  - { offsetInCU: 0x6092A, offset: 0x6776C, size: 0x8, addend: 0x0, symName: __ZNSt3__122__compressed_pair_elemINS_25__bucket_list_deallocatorINS_9allocatorIPNS_16__hash_node_baseIPNS_11__hash_nodeINS_17__hash_value_typeINS_12basic_stringIcNS_11char_traitsIcEENS2_IcEEEEPvEESB_EEEEEEEELi1ELb0EE5__getB7v160006Ev, symObjAddr: 0x1BE9C, symBinAddr: 0x1F734, symSize: 0x14 }
  - { offsetInCU: 0x6094F, offset: 0x67791, size: 0x8, addend: 0x0, symName: __ZNSt3__117__compressed_pairImNS_9allocatorIPNS_16__hash_node_baseIPNS_11__hash_nodeINS_17__hash_value_typeINS_12basic_stringIcNS_11char_traitsIcEENS1_IcEEEEPvEESA_EEEEEEE6secondB7v160006Ev, symObjAddr: 0x1BEB0, symBinAddr: 0x1F748, symSize: 0x24 }
  - { offsetInCU: 0x60974, offset: 0x677B6, size: 0x8, addend: 0x0, symName: __ZNSt3__122__compressed_pair_elemINS_9allocatorIPNS_16__hash_node_baseIPNS_11__hash_nodeINS_17__hash_value_typeINS_12basic_stringIcNS_11char_traitsIcEENS1_IcEEEEPvEESA_EEEEEELi1ELb1EE5__getB7v160006Ev, symObjAddr: 0x1BED4, symBinAddr: 0x1F76C, symSize: 0x14 }
  - { offsetInCU: 0x60999, offset: 0x677DB, size: 0x8, addend: 0x0, symName: __ZNSt3__117__compressed_pairIPPNS_16__hash_node_baseIPNS_11__hash_nodeINS_17__hash_value_typeINS_12basic_stringIcNS_11char_traitsIcEENS_9allocatorIcEEEEPvEESA_EEEENS_25__bucket_list_deallocatorINS7_ISF_EEEEE5firstB7v160006Ev, symObjAddr: 0x1BEE8, symBinAddr: 0x1F780, symSize: 0x24 }
  - { offsetInCU: 0x609BE, offset: 0x67800, size: 0x8, addend: 0x0, symName: __ZNSt3__125__bucket_list_deallocatorINS_9allocatorIPNS_16__hash_node_baseIPNS_11__hash_nodeINS_17__hash_value_typeINS_12basic_stringIcNS_11char_traitsIcEENS1_IcEEEEPvEESA_EEEEEEEclB7v160006EPSF_, symObjAddr: 0x1BF0C, symBinAddr: 0x1F7A4, symSize: 0x58 }
  - { offsetInCU: 0x609F2, offset: 0x67834, size: 0x8, addend: 0x0, symName: __ZNSt3__122__compressed_pair_elemIPPNS_16__hash_node_baseIPNS_11__hash_nodeINS_17__hash_value_typeINS_12basic_stringIcNS_11char_traitsIcEENS_9allocatorIcEEEEPvEESA_EEEELi0ELb0EE5__getB7v160006Ev, symObjAddr: 0x1BF64, symBinAddr: 0x1F7FC, symSize: 0x14 }
  - { offsetInCU: 0x60A17, offset: 0x67859, size: 0x8, addend: 0x0, symName: __ZNSt3__116allocator_traitsINS_9allocatorIPNS_16__hash_node_baseIPNS_11__hash_nodeINS_17__hash_value_typeINS_12basic_stringIcNS_11char_traitsIcEENS1_IcEEEEPvEESA_EEEEEEE10deallocateB7v160006ERSG_PSF_m, symObjAddr: 0x1BF78, symBinAddr: 0x1F810, symSize: 0x34 }
  - { offsetInCU: 0x60A59, offset: 0x6789B, size: 0x8, addend: 0x0, symName: __ZNSt3__19allocatorIPNS_16__hash_node_baseIPNS_11__hash_nodeINS_17__hash_value_typeINS_12basic_stringIcNS_11char_traitsIcEENS0_IcEEEEPvEES9_EEEEE10deallocateB7v160006EPSE_m, symObjAddr: 0x1BFAC, symBinAddr: 0x1F844, symSize: 0x40 }
  - { offsetInCU: 0x60A9A, offset: 0x678DC, size: 0x8, addend: 0x0, symName: __ZNSt3__19allocatorIPNS_16__hash_node_baseIPNS_11__hash_nodeINS_17__hash_value_typeINS_12basic_stringIcNS_11char_traitsIcEENS0_IcEEEEPvEES9_EEEEE8allocateB7v160006Em, symObjAddr: 0x1BFEC, symBinAddr: 0x1F884, symSize: 0x58 }
  - { offsetInCU: 0x60AD7, offset: 0x67919, size: 0x8, addend: 0x0, symName: __ZNSt3__116allocator_traitsINS_9allocatorIPNS_16__hash_node_baseIPNS_11__hash_nodeINS_17__hash_value_typeINS_12basic_stringIcNS_11char_traitsIcEENS1_IcEEEEPvEESA_EEEEEEE8max_sizeB7v160006ISG_vEEmRKSG_, symObjAddr: 0x1C044, symBinAddr: 0x1F8DC, symSize: 0x24 }
  - { offsetInCU: 0x60B06, offset: 0x67948, size: 0x8, addend: 0x0, symName: __ZNKSt3__19allocatorIPNS_16__hash_node_baseIPNS_11__hash_nodeINS_17__hash_value_typeINS_12basic_stringIcNS_11char_traitsIcEENS0_IcEEEEPvEES9_EEEEE8max_sizeB7v160006Ev, symObjAddr: 0x1C068, symBinAddr: 0x1F900, symSize: 0x14 }
  - { offsetInCU: 0x60B2B, offset: 0x6796D, size: 0x8, addend: 0x0, symName: __ZNSt3__117__compressed_pairImNS_9allocatorIPNS_16__hash_node_baseIPNS_11__hash_nodeINS_17__hash_value_typeINS_12basic_stringIcNS_11char_traitsIcEENS1_IcEEEEPvEESA_EEEEEEE5firstB7v160006Ev, symObjAddr: 0x1C07C, symBinAddr: 0x1F914, symSize: 0x24 }
  - { offsetInCU: 0x60B50, offset: 0x67992, size: 0x8, addend: 0x0, symName: __ZNSt3__122__compressed_pair_elemINS_16__hash_node_baseIPNS_11__hash_nodeINS_17__hash_value_typeINS_12basic_stringIcNS_11char_traitsIcEENS_9allocatorIcEEEEPvEESA_EEEELi0ELb0EE5__getB7v160006Ev, symObjAddr: 0x1C0A0, symBinAddr: 0x1F938, symSize: 0x14 }
  - { offsetInCU: 0x60B75, offset: 0x679B7, size: 0x8, addend: 0x0, symName: __ZNKSt3__117__compressed_pairIPNS_11__hash_nodeINS_17__hash_value_typeINS_12basic_stringIcNS_11char_traitsIcEENS_9allocatorIcEEEEPvEES9_EENS_22__hash_node_destructorINS6_ISB_EEEEE5firstB7v160006Ev, symObjAddr: 0x1C0B4, symBinAddr: 0x1F94C, symSize: 0x24 }
  - { offsetInCU: 0x60B9A, offset: 0x679DC, size: 0x8, addend: 0x0, symName: __ZNKSt3__122__compressed_pair_elemIPNS_11__hash_nodeINS_17__hash_value_typeINS_12basic_stringIcNS_11char_traitsIcEENS_9allocatorIcEEEEPvEES9_EELi0ELb0EE5__getB7v160006Ev, symObjAddr: 0x1C0D8, symBinAddr: 0x1F970, symSize: 0x14 }
  - { offsetInCU: 0x60BBF, offset: 0x67A01, size: 0x8, addend: 0x0, symName: __ZNSt3__117__compressed_pairIPNS_11__hash_nodeINS_17__hash_value_typeINS_12basic_stringIcNS_11char_traitsIcEENS_9allocatorIcEEEEPvEES9_EENS_22__hash_node_destructorINS6_ISB_EEEEE5firstB7v160006Ev, symObjAddr: 0x1C0EC, symBinAddr: 0x1F984, symSize: 0x24 }
  - { offsetInCU: 0x60BE4, offset: 0x67A26, size: 0x8, addend: 0x0, symName: __ZNSt3__122__compressed_pair_elemIPNS_11__hash_nodeINS_17__hash_value_typeINS_12basic_stringIcNS_11char_traitsIcEENS_9allocatorIcEEEEPvEES9_EELi0ELb0EE5__getB7v160006Ev, symObjAddr: 0x1C110, symBinAddr: 0x1F9A8, symSize: 0x14 }
  - { offsetInCU: 0x60C09, offset: 0x67A4B, size: 0x8, addend: 0x0, symName: __ZNSt3__110unique_ptrINS_11__hash_nodeINS_17__hash_value_typeINS_12basic_stringIcNS_11char_traitsIcEENS_9allocatorIcEEEEPvEES9_EENS_22__hash_node_destructorINS6_ISB_EEEEED2B7v160006Ev, symObjAddr: 0x1C124, symBinAddr: 0x1F9BC, symSize: 0x30 }
  - { offsetInCU: 0x60C32, offset: 0x67A74, size: 0x8, addend: 0x0, symName: __ZNSt3__110unique_ptrINS_11__hash_nodeINS_17__hash_value_typeINS_12basic_stringIcNS_11char_traitsIcEENS_9allocatorIcEEEEPvEES9_EENS_22__hash_node_destructorINS6_ISB_EEEEE5resetB7v160006EPSB_, symObjAddr: 0x1C154, symBinAddr: 0x1F9EC, symSize: 0x78 }
  - { offsetInCU: 0x60C75, offset: 0x67AB7, size: 0x8, addend: 0x0, symName: __ZNSt3__122__hash_node_destructorINS_9allocatorINS_11__hash_nodeINS_17__hash_value_typeINS_12basic_stringIcNS_11char_traitsIcEENS1_IcEEEEPvEES9_EEEEEclB7v160006EPSB_, symObjAddr: 0x1C1CC, symBinAddr: 0x1FA64, symSize: 0x98 }
  - { offsetInCU: 0x60CA9, offset: 0x67AEB, size: 0x8, addend: 0x0, symName: __ZNSt3__116allocator_traitsINS_9allocatorINS_11__hash_nodeINS_17__hash_value_typeINS_12basic_stringIcNS_11char_traitsIcEENS1_IcEEEEPvEES9_EEEEE7destroyB7v160006INS_4pairIKS8_S9_EEvvEEvRSC_PT_, symObjAddr: 0x1C264, symBinAddr: 0x1FAFC, symSize: 0x28 }
  - { offsetInCU: 0x60CE6, offset: 0x67B28, size: 0x8, addend: 0x0, symName: __ZNSt3__116allocator_traitsINS_9allocatorINS_11__hash_nodeINS_17__hash_value_typeINS_12basic_stringIcNS_11char_traitsIcEENS1_IcEEEEPvEES9_EEEEE10deallocateB7v160006ERSC_PSB_m, symObjAddr: 0x1C28C, symBinAddr: 0x1FB24, symSize: 0x34 }
  - { offsetInCU: 0x60D28, offset: 0x67B6A, size: 0x8, addend: 0x0, symName: __ZNSt3__14pairIKNS_12basic_stringIcNS_11char_traitsIcEENS_9allocatorIcEEEEPvED1Ev, symObjAddr: 0x1C2C0, symBinAddr: 0x1FB58, symSize: 0x2C }
  - { offsetInCU: 0x60D52, offset: 0x67B94, size: 0x8, addend: 0x0, symName: __ZNSt3__14pairIKNS_12basic_stringIcNS_11char_traitsIcEENS_9allocatorIcEEEEPvED2Ev, symObjAddr: 0x1C2EC, symBinAddr: 0x1FB84, symSize: 0x2C }
  - { offsetInCU: 0x60D7C, offset: 0x67BBE, size: 0x8, addend: 0x0, symName: __ZNSt3__19allocatorINS_11__hash_nodeINS_17__hash_value_typeINS_12basic_stringIcNS_11char_traitsIcEENS0_IcEEEEPvEES8_EEE10deallocateB7v160006EPSA_m, symObjAddr: 0x1C318, symBinAddr: 0x1FBB0, symSize: 0x44 }
  - { offsetInCU: 0x60DBD, offset: 0x67BFF, size: 0x8, addend: 0x0, symName: __ZNSt3__115__hash_iteratorIPNS_11__hash_nodeINS_17__hash_value_typeINS_12basic_stringIcNS_11char_traitsIcEENS_9allocatorIcEEEEPvEES9_EEEC2B7v160006EPNS_16__hash_node_baseISC_EEPKv, symObjAddr: 0x1C35C, symBinAddr: 0x1FBF4, symSize: 0x24 }
  - { offsetInCU: 0x60E04, offset: 0x67C46, size: 0x8, addend: 0x0, symName: __ZNSt3__14pairINS_15__hash_iteratorIPNS_11__hash_nodeINS_17__hash_value_typeINS_12basic_stringIcNS_11char_traitsIcEENS_9allocatorIcEEEEPvEESA_EEEEbEC2B7v160006ISE_RbLSA_0EEEOT_OT0_, symObjAddr: 0x1C380, symBinAddr: 0x1FC18, symSize: 0x38 }
  - { offsetInCU: 0x60E61, offset: 0x67CA3, size: 0x8, addend: 0x0, symName: __ZNSt3__15tupleIJONS_12basic_stringIcNS_11char_traitsIcEENS_9allocatorIcEEEEEEC1B7v160006IJS6_ELi0EEEDpOT_, symObjAddr: 0x1C3B8, symBinAddr: 0x1FC50, symSize: 0x34 }
  - { offsetInCU: 0x60EAA, offset: 0x67CEC, size: 0x8, addend: 0x0, symName: __ZNSt3__15tupleIJONS_12basic_stringIcNS_11char_traitsIcEENS_9allocatorIcEEEEEEC2B7v160006IJS6_ELi0EEEDpOT_, symObjAddr: 0x1C3EC, symBinAddr: 0x1FC84, symSize: 0x34 }
  - { offsetInCU: 0x60EF3, offset: 0x67D35, size: 0x8, addend: 0x0, symName: __ZNSt3__112__tuple_implINS_15__tuple_indicesIJLm0EEEEJONS_12basic_stringIcNS_11char_traitsIcEENS_9allocatorIcEEEEEEC1B7v160006IJLm0EEJS9_EJEJEJS8_EEENS1_IJXspT_EEEENS_13__tuple_typesIJDpT0_EEENS1_IJXspT1_EEEENSD_IJDpT2_EEEDpOT3_, symObjAddr: 0x1C420, symBinAddr: 0x1FCB8, symSize: 0x34 }
  - { offsetInCU: 0x60F87, offset: 0x67DC9, size: 0x8, addend: 0x0, symName: __ZNSt3__112__tuple_implINS_15__tuple_indicesIJLm0EEEEJONS_12basic_stringIcNS_11char_traitsIcEENS_9allocatorIcEEEEEEC2B7v160006IJLm0EEJS9_EJEJEJS8_EEENS1_IJXspT_EEEENS_13__tuple_typesIJDpT0_EEENS1_IJXspT1_EEEENSD_IJDpT2_EEEDpOT3_, symObjAddr: 0x1C454, symBinAddr: 0x1FCEC, symSize: 0x34 }
  - { offsetInCU: 0x6101B, offset: 0x67E5D, size: 0x8, addend: 0x0, symName: __ZNSt3__112__tuple_leafILm0EONS_12basic_stringIcNS_11char_traitsIcEENS_9allocatorIcEEEELb0EEC2B7v160006IS6_vEEOT_, symObjAddr: 0x1C488, symBinAddr: 0x1FD20, symSize: 0x20 }
  - { offsetInCU: 0x6105E, offset: 0x67EA0, size: 0x8, addend: 0x0, symName: __ZNSt3__114pointer_traitsIPNS_17__hash_value_typeINS_12basic_stringIcNS_11char_traitsIcEENS_9allocatorIcEEEEPvEEE10pointer_toB7v160006ERS9_, symObjAddr: 0x1C4A8, symBinAddr: 0x1FD40, symSize: 0x14 }
  - { offsetInCU: 0x61081, offset: 0x67EC3, size: 0x8, addend: 0x0, symName: __ZN8pybind116detail15local_internals31shared_loader_life_support_dataC2Ev, symObjAddr: 0x1C4F4, symBinAddr: 0x1FD8C, symSize: 0x74 }
  - { offsetInCU: 0x610AA, offset: 0x67EEC, size: 0x8, addend: 0x0, symName: __ZNSt3__112forward_listIPFvSt13exception_ptrENS_9allocatorIS3_EEED2Ev, symObjAddr: 0x1C568, symBinAddr: 0x1FE00, symSize: 0x2C }
  - { offsetInCU: 0x610D6, offset: 0x67F18, size: 0x8, addend: 0x0, symName: __ZNSt3__119__forward_list_baseIPFvSt13exception_ptrENS_9allocatorIS3_EEED2Ev, symObjAddr: 0x1C594, symBinAddr: 0x1FE2C, symSize: 0x2C }
  - { offsetInCU: 0x61101, offset: 0x67F43, size: 0x8, addend: 0x0, symName: __ZNSt3__119__forward_list_baseIPFvSt13exception_ptrENS_9allocatorIS3_EEE5clearEv, symObjAddr: 0x1C5C0, symBinAddr: 0x1FE58, symSize: 0xA4 }
  - { offsetInCU: 0x61161, offset: 0x67FA3, size: 0x8, addend: 0x0, symName: __ZNSt3__116allocator_traitsINS_9allocatorINS_19__forward_list_nodeIPFvSt13exception_ptrEPvEEEEE7destroyB7v160006IS5_vvEEvRS8_PT_, symObjAddr: 0x1C664, symBinAddr: 0x1FEFC, symSize: 0x14 }
  - { offsetInCU: 0x6119E, offset: 0x67FE0, size: 0x8, addend: 0x0, symName: __ZNSt3__113unordered_mapINS_10type_indexEPN8pybind116detail9type_infoENS3_9type_hashENS3_13type_equal_toENS_9allocatorINS_4pairIKS1_S5_EEEEED2B7v160006Ev, symObjAddr: 0x1C678, symBinAddr: 0x1FF10, symSize: 0x2C }
  - { offsetInCU: 0x611C7, offset: 0x68009, size: 0x8, addend: 0x0, symName: __ZNSt3__112__hash_tableINS_17__hash_value_typeINS_10type_indexEPN8pybind116detail9type_infoEEENS_22__unordered_map_hasherIS2_S7_NS4_9type_hashENS4_13type_equal_toELb1EEENS_21__unordered_map_equalIS2_S7_SA_S9_Lb1EEENS_9allocatorIS7_EEED1Ev, symObjAddr: 0x1C6A4, symBinAddr: 0x1FF3C, symSize: 0x2C }
  - { offsetInCU: 0x611F2, offset: 0x68034, size: 0x8, addend: 0x0, symName: __ZNSt3__112__hash_tableINS_17__hash_value_typeINS_10type_indexEPN8pybind116detail9type_infoEEENS_22__unordered_map_hasherIS2_S7_NS4_9type_hashENS4_13type_equal_toELb1EEENS_21__unordered_map_equalIS2_S7_SA_S9_Lb1EEENS_9allocatorIS7_EEED2Ev, symObjAddr: 0x1C6D0, symBinAddr: 0x1FF68, symSize: 0x58 }
  - { offsetInCU: 0x6121D, offset: 0x6805F, size: 0x8, addend: 0x0, symName: __ZNSt3__112__hash_tableINS_17__hash_value_typeINS_10type_indexEPN8pybind116detail9type_infoEEENS_22__unordered_map_hasherIS2_S7_NS4_9type_hashENS4_13type_equal_toELb1EEENS_21__unordered_map_equalIS2_S7_SA_S9_Lb1EEENS_9allocatorIS7_EEE17__deallocate_nodeEPNS_16__hash_node_baseIPNS_11__hash_nodeIS7_PvEEEE, symObjAddr: 0x1C728, symBinAddr: 0x1FFC0, symSize: 0xA8 }
  - { offsetInCU: 0x61286, offset: 0x680C8, size: 0x8, addend: 0x0, symName: __ZNSt3__117__compressed_pairINS_16__hash_node_baseIPNS_11__hash_nodeINS_17__hash_value_typeINS_10type_indexEPN8pybind116detail9type_infoEEEPvEEEENS_9allocatorISB_EEE5firstB7v160006Ev, symObjAddr: 0x1C7D0, symBinAddr: 0x20068, symSize: 0x24 }
  - { offsetInCU: 0x612AB, offset: 0x680ED, size: 0x8, addend: 0x0, symName: __ZNSt3__110unique_ptrIA_PNS_16__hash_node_baseIPNS_11__hash_nodeINS_17__hash_value_typeINS_10type_indexEPN8pybind116detail9type_infoEEEPvEEEENS_25__bucket_list_deallocatorINS_9allocatorISE_EEEEED1B7v160006Ev, symObjAddr: 0x1C804, symBinAddr: 0x2009C, symSize: 0x2C }
  - { offsetInCU: 0x612D4, offset: 0x68116, size: 0x8, addend: 0x0, symName: __ZNSt3__112__hash_tableINS_17__hash_value_typeINS_10type_indexEPN8pybind116detail9type_infoEEENS_22__unordered_map_hasherIS2_S7_NS4_9type_hashENS4_13type_equal_toELb1EEENS_21__unordered_map_equalIS2_S7_SA_S9_Lb1EEENS_9allocatorIS7_EEE12__node_allocB7v160006Ev, symObjAddr: 0x1C830, symBinAddr: 0x200C8, symSize: 0x28 }
  - { offsetInCU: 0x612F9, offset: 0x6813B, size: 0x8, addend: 0x0, symName: __ZNSt3__116__hash_node_baseIPNS_11__hash_nodeINS_17__hash_value_typeINS_10type_indexEPN8pybind116detail9type_infoEEEPvEEE8__upcastB7v160006Ev, symObjAddr: 0x1C858, symBinAddr: 0x200F0, symSize: 0x24 }
  - { offsetInCU: 0x6131E, offset: 0x68160, size: 0x8, addend: 0x0, symName: __ZNSt3__116allocator_traitsINS_9allocatorINS_11__hash_nodeINS_17__hash_value_typeINS_10type_indexEPN8pybind116detail9type_infoEEEPvEEEEE7destroyB7v160006INS_4pairIKS4_S8_EEvvEEvRSC_PT_, symObjAddr: 0x1C87C, symBinAddr: 0x20114, symSize: 0x14 }
  - { offsetInCU: 0x6135B, offset: 0x6819D, size: 0x8, addend: 0x0, symName: __ZNSt3__122__hash_key_value_typesINS_17__hash_value_typeINS_10type_indexEPN8pybind116detail9type_infoEEEE9__get_ptrB7v160006ERS7_, symObjAddr: 0x1C890, symBinAddr: 0x20128, symSize: 0x24 }
  - { offsetInCU: 0x6137E, offset: 0x681C0, size: 0x8, addend: 0x0, symName: __ZNSt3__116allocator_traitsINS_9allocatorINS_11__hash_nodeINS_17__hash_value_typeINS_10type_indexEPN8pybind116detail9type_infoEEEPvEEEEE10deallocateB7v160006ERSC_PSB_m, symObjAddr: 0x1C8B4, symBinAddr: 0x2014C, symSize: 0x34 }
  - { offsetInCU: 0x613C0, offset: 0x68202, size: 0x8, addend: 0x0, symName: __ZNSt3__117__compressed_pairINS_16__hash_node_baseIPNS_11__hash_nodeINS_17__hash_value_typeINS_10type_indexEPN8pybind116detail9type_infoEEEPvEEEENS_9allocatorISB_EEE6secondB7v160006Ev, symObjAddr: 0x1C8E8, symBinAddr: 0x20180, symSize: 0x24 }
  - { offsetInCU: 0x613E5, offset: 0x68227, size: 0x8, addend: 0x0, symName: __ZNSt3__122__compressed_pair_elemINS_9allocatorINS_11__hash_nodeINS_17__hash_value_typeINS_10type_indexEPN8pybind116detail9type_infoEEEPvEEEELi1ELb1EE5__getB7v160006Ev, symObjAddr: 0x1C90C, symBinAddr: 0x201A4, symSize: 0x14 }
  - { offsetInCU: 0x6140A, offset: 0x6824C, size: 0x8, addend: 0x0, symName: __ZNSt3__114pointer_traitsIPNS_16__hash_node_baseIPNS_11__hash_nodeINS_17__hash_value_typeINS_10type_indexEPN8pybind116detail9type_infoEEEPvEEEEE10pointer_toB7v160006ERSD_, symObjAddr: 0x1C920, symBinAddr: 0x201B8, symSize: 0x14 }
  - { offsetInCU: 0x6142D, offset: 0x6826F, size: 0x8, addend: 0x0, symName: __ZNSt3__117__hash_value_typeINS_10type_indexEPN8pybind116detail9type_infoEE11__get_valueB7v160006Ev, symObjAddr: 0x1C934, symBinAddr: 0x201CC, symSize: 0x24 }
  - { offsetInCU: 0x61452, offset: 0x68294, size: 0x8, addend: 0x0, symName: __ZNSt3__19allocatorINS_11__hash_nodeINS_17__hash_value_typeINS_10type_indexEPN8pybind116detail9type_infoEEEPvEEE10deallocateB7v160006EPSA_m, symObjAddr: 0x1C990, symBinAddr: 0x20228, symSize: 0x40 }
  - { offsetInCU: 0x61493, offset: 0x682D5, size: 0x8, addend: 0x0, symName: __ZNSt3__122__compressed_pair_elemINS_16__hash_node_baseIPNS_11__hash_nodeINS_17__hash_value_typeINS_10type_indexEPN8pybind116detail9type_infoEEEPvEEEELi0ELb0EE5__getB7v160006Ev, symObjAddr: 0x1C9D0, symBinAddr: 0x20268, symSize: 0x14 }
  - { offsetInCU: 0x614B8, offset: 0x682FA, size: 0x8, addend: 0x0, symName: __ZNSt3__110unique_ptrIA_PNS_16__hash_node_baseIPNS_11__hash_nodeINS_17__hash_value_typeINS_10type_indexEPN8pybind116detail9type_infoEEEPvEEEENS_25__bucket_list_deallocatorINS_9allocatorISE_EEEEED2B7v160006Ev, symObjAddr: 0x1C9E4, symBinAddr: 0x2027C, symSize: 0x30 }
  - { offsetInCU: 0x614E1, offset: 0x68323, size: 0x8, addend: 0x0, symName: __ZNSt3__110unique_ptrIA_PNS_16__hash_node_baseIPNS_11__hash_nodeINS_17__hash_value_typeINS_10type_indexEPN8pybind116detail9type_infoEEEPvEEEENS_25__bucket_list_deallocatorINS_9allocatorISE_EEEEE5resetB7v160006EDn, symObjAddr: 0x1CA14, symBinAddr: 0x202AC, symSize: 0x6C }
  - { offsetInCU: 0x61521, offset: 0x68363, size: 0x8, addend: 0x0, symName: __ZNSt3__117__compressed_pairIPPNS_16__hash_node_baseIPNS_11__hash_nodeINS_17__hash_value_typeINS_10type_indexEPN8pybind116detail9type_infoEEEPvEEEENS_25__bucket_list_deallocatorINS_9allocatorISE_EEEEE5firstB7v160006Ev, symObjAddr: 0x1CA80, symBinAddr: 0x20318, symSize: 0x24 }
  - { offsetInCU: 0x61546, offset: 0x68388, size: 0x8, addend: 0x0, symName: __ZNSt3__117__compressed_pairIPPNS_16__hash_node_baseIPNS_11__hash_nodeINS_17__hash_value_typeINS_10type_indexEPN8pybind116detail9type_infoEEEPvEEEENS_25__bucket_list_deallocatorINS_9allocatorISE_EEEEE6secondB7v160006Ev, symObjAddr: 0x1CAA4, symBinAddr: 0x2033C, symSize: 0x28 }
  - { offsetInCU: 0x6156B, offset: 0x683AD, size: 0x8, addend: 0x0, symName: __ZNSt3__125__bucket_list_deallocatorINS_9allocatorIPNS_16__hash_node_baseIPNS_11__hash_nodeINS_17__hash_value_typeINS_10type_indexEPN8pybind116detail9type_infoEEEPvEEEEEEEclB7v160006EPSF_, symObjAddr: 0x1CACC, symBinAddr: 0x20364, symSize: 0x58 }
  - { offsetInCU: 0x6159F, offset: 0x683E1, size: 0x8, addend: 0x0, symName: __ZNSt3__122__compressed_pair_elemIPPNS_16__hash_node_baseIPNS_11__hash_nodeINS_17__hash_value_typeINS_10type_indexEPN8pybind116detail9type_infoEEEPvEEEELi0ELb0EE5__getB7v160006Ev, symObjAddr: 0x1CB24, symBinAddr: 0x203BC, symSize: 0x14 }
  - { offsetInCU: 0x615C4, offset: 0x68406, size: 0x8, addend: 0x0, symName: __ZNSt3__122__compressed_pair_elemINS_25__bucket_list_deallocatorINS_9allocatorIPNS_16__hash_node_baseIPNS_11__hash_nodeINS_17__hash_value_typeINS_10type_indexEPN8pybind116detail9type_infoEEEPvEEEEEEEELi1ELb0EE5__getB7v160006Ev, symObjAddr: 0x1CB38, symBinAddr: 0x203D0, symSize: 0x14 }
  - { offsetInCU: 0x615E9, offset: 0x6842B, size: 0x8, addend: 0x0, symName: __ZNSt3__116allocator_traitsINS_9allocatorIPNS_16__hash_node_baseIPNS_11__hash_nodeINS_17__hash_value_typeINS_10type_indexEPN8pybind116detail9type_infoEEEPvEEEEEEE10deallocateB7v160006ERSG_PSF_m, symObjAddr: 0x1CB4C, symBinAddr: 0x203E4, symSize: 0x34 }
  - { offsetInCU: 0x6162B, offset: 0x6846D, size: 0x8, addend: 0x0, symName: __ZNSt3__125__bucket_list_deallocatorINS_9allocatorIPNS_16__hash_node_baseIPNS_11__hash_nodeINS_17__hash_value_typeINS_10type_indexEPN8pybind116detail9type_infoEEEPvEEEEEEE7__allocB7v160006Ev, symObjAddr: 0x1CB80, symBinAddr: 0x20418, symSize: 0x24 }
  - { offsetInCU: 0x61650, offset: 0x68492, size: 0x8, addend: 0x0, symName: __ZNSt3__125__bucket_list_deallocatorINS_9allocatorIPNS_16__hash_node_baseIPNS_11__hash_nodeINS_17__hash_value_typeINS_10type_indexEPN8pybind116detail9type_infoEEEPvEEEEEEE4sizeB7v160006Ev, symObjAddr: 0x1CBA4, symBinAddr: 0x2043C, symSize: 0x24 }
  - { offsetInCU: 0x61675, offset: 0x684B7, size: 0x8, addend: 0x0, symName: __ZNSt3__19allocatorIPNS_16__hash_node_baseIPNS_11__hash_nodeINS_17__hash_value_typeINS_10type_indexEPN8pybind116detail9type_infoEEEPvEEEEE10deallocateB7v160006EPSE_m, symObjAddr: 0x1CBC8, symBinAddr: 0x20460, symSize: 0x40 }
  - { offsetInCU: 0x616B6, offset: 0x684F8, size: 0x8, addend: 0x0, symName: __ZNSt3__117__compressed_pairImNS_9allocatorIPNS_16__hash_node_baseIPNS_11__hash_nodeINS_17__hash_value_typeINS_10type_indexEPN8pybind116detail9type_infoEEEPvEEEEEEE6secondB7v160006Ev, symObjAddr: 0x1CC08, symBinAddr: 0x204A0, symSize: 0x24 }
  - { offsetInCU: 0x616DB, offset: 0x6851D, size: 0x8, addend: 0x0, symName: __ZNSt3__122__compressed_pair_elemINS_9allocatorIPNS_16__hash_node_baseIPNS_11__hash_nodeINS_17__hash_value_typeINS_10type_indexEPN8pybind116detail9type_infoEEEPvEEEEEELi1ELb1EE5__getB7v160006Ev, symObjAddr: 0x1CC2C, symBinAddr: 0x204C4, symSize: 0x14 }
  - { offsetInCU: 0x61700, offset: 0x68542, size: 0x8, addend: 0x0, symName: __ZNSt3__117__compressed_pairImNS_9allocatorIPNS_16__hash_node_baseIPNS_11__hash_nodeINS_17__hash_value_typeINS_10type_indexEPN8pybind116detail9type_infoEEEPvEEEEEEE5firstB7v160006Ev, symObjAddr: 0x1CC40, symBinAddr: 0x204D8, symSize: 0x24 }
  - { offsetInCU: 0x61725, offset: 0x68567, size: 0x8, addend: 0x0, symName: __ZNSt3__112__hash_tableINS_17__hash_value_typeINS_10type_indexEPN8pybind116detail9type_infoEEENS_22__unordered_map_hasherIS2_S7_NS4_9type_hashENS4_13type_equal_toELb1EEENS_21__unordered_map_equalIS2_S7_SA_S9_Lb1EEENS_9allocatorIS7_EEE4findIS2_EENS_15__hash_iteratorIPNS_11__hash_nodeIS7_PvEEEERKT_, symObjAddr: 0x1CC64, symBinAddr: 0x204FC, symSize: 0x1B4 }
  - { offsetInCU: 0x617AE, offset: 0x685F0, size: 0x8, addend: 0x0, symName: __ZNSt3__119__hash_map_iteratorINS_15__hash_iteratorIPNS_11__hash_nodeINS_17__hash_value_typeINS_10type_indexEPN8pybind116detail9type_infoEEEPvEEEEEC1B7v160006ESD_, symObjAddr: 0x1CE18, symBinAddr: 0x206B0, symSize: 0x34 }
  - { offsetInCU: 0x617E6, offset: 0x68628, size: 0x8, addend: 0x0, symName: __ZNSt3__112__hash_tableINS_17__hash_value_typeINS_10type_indexEPN8pybind116detail9type_infoEEENS_22__unordered_map_hasherIS2_S7_NS4_9type_hashENS4_13type_equal_toELb1EEENS_21__unordered_map_equalIS2_S7_SA_S9_Lb1EEENS_9allocatorIS7_EEE13hash_functionB7v160006Ev, symObjAddr: 0x1CE4C, symBinAddr: 0x206E4, symSize: 0x28 }
  - { offsetInCU: 0x6180B, offset: 0x6864D, size: 0x8, addend: 0x0, symName: __ZNKSt3__122__unordered_map_hasherINS_10type_indexENS_17__hash_value_typeIS1_PN8pybind116detail9type_infoEEENS4_9type_hashENS4_13type_equal_toELb1EEclB7v160006ERKS1_, symObjAddr: 0x1CE74, symBinAddr: 0x2070C, symSize: 0x2C }
  - { offsetInCU: 0x6183F, offset: 0x68681, size: 0x8, addend: 0x0, symName: __ZNKSt3__112__hash_tableINS_17__hash_value_typeINS_10type_indexEPN8pybind116detail9type_infoEEENS_22__unordered_map_hasherIS2_S7_NS4_9type_hashENS4_13type_equal_toELb1EEENS_21__unordered_map_equalIS2_S7_SA_S9_Lb1EEENS_9allocatorIS7_EEE12bucket_countB7v160006Ev, symObjAddr: 0x1CEA0, symBinAddr: 0x20738, symSize: 0x28 }
  - { offsetInCU: 0x61864, offset: 0x686A6, size: 0x8, addend: 0x0, symName: __ZNKSt3__110unique_ptrIA_PNS_16__hash_node_baseIPNS_11__hash_nodeINS_17__hash_value_typeINS_10type_indexEPN8pybind116detail9type_infoEEEPvEEEENS_25__bucket_list_deallocatorINS_9allocatorISE_EEEEEixB7v160006Em, symObjAddr: 0x1CEC8, symBinAddr: 0x20760, symSize: 0x34 }
  - { offsetInCU: 0x61898, offset: 0x686DA, size: 0x8, addend: 0x0, symName: __ZNKSt3__116__hash_node_baseIPNS_11__hash_nodeINS_17__hash_value_typeINS_10type_indexEPN8pybind116detail9type_infoEEEPvEEE6__hashB7v160006Ev, symObjAddr: 0x1CEFC, symBinAddr: 0x20794, symSize: 0x18 }
  - { offsetInCU: 0x618BD, offset: 0x686FF, size: 0x8, addend: 0x0, symName: __ZNSt3__112__hash_tableINS_17__hash_value_typeINS_10type_indexEPN8pybind116detail9type_infoEEENS_22__unordered_map_hasherIS2_S7_NS4_9type_hashENS4_13type_equal_toELb1EEENS_21__unordered_map_equalIS2_S7_SA_S9_Lb1EEENS_9allocatorIS7_EEE6key_eqB7v160006Ev, symObjAddr: 0x1CF14, symBinAddr: 0x207AC, symSize: 0x28 }
  - { offsetInCU: 0x618E2, offset: 0x68724, size: 0x8, addend: 0x0, symName: __ZNKSt3__121__unordered_map_equalINS_10type_indexENS_17__hash_value_typeIS1_PN8pybind116detail9type_infoEEENS4_13type_equal_toENS4_9type_hashELb1EEclB7v160006ERKS7_RKS1_, symObjAddr: 0x1CF3C, symBinAddr: 0x207D4, symSize: 0x48 }
  - { offsetInCU: 0x61925, offset: 0x68767, size: 0x8, addend: 0x0, symName: __ZNSt3__115__hash_iteratorIPNS_11__hash_nodeINS_17__hash_value_typeINS_10type_indexEPN8pybind116detail9type_infoEEEPvEEEC1B7v160006EPNS_16__hash_node_baseISB_EEPKv, symObjAddr: 0x1CF84, symBinAddr: 0x2081C, symSize: 0x3C }
  - { offsetInCU: 0x6196C, offset: 0x687AE, size: 0x8, addend: 0x0, symName: __ZNSt3__112__hash_tableINS_17__hash_value_typeINS_10type_indexEPN8pybind116detail9type_infoEEENS_22__unordered_map_hasherIS2_S7_NS4_9type_hashENS4_13type_equal_toELb1EEENS_21__unordered_map_equalIS2_S7_SA_S9_Lb1EEENS_9allocatorIS7_EEE3endEv, symObjAddr: 0x1CFC0, symBinAddr: 0x20858, symSize: 0x30 }
  - { offsetInCU: 0x61993, offset: 0x687D5, size: 0x8, addend: 0x0, symName: __ZNSt3__117__compressed_pairImNS_22__unordered_map_hasherINS_10type_indexENS_17__hash_value_typeIS2_PN8pybind116detail9type_infoEEENS5_9type_hashENS5_13type_equal_toELb1EEEE6secondB7v160006Ev, symObjAddr: 0x1CFF0, symBinAddr: 0x20888, symSize: 0x24 }
  - { offsetInCU: 0x619B8, offset: 0x687FA, size: 0x8, addend: 0x0, symName: __ZNSt3__122__compressed_pair_elemINS_22__unordered_map_hasherINS_10type_indexENS_17__hash_value_typeIS2_PN8pybind116detail9type_infoEEENS5_9type_hashENS5_13type_equal_toELb1EEELi1ELb1EE5__getB7v160006Ev, symObjAddr: 0x1D014, symBinAddr: 0x208AC, symSize: 0x14 }
  - { offsetInCU: 0x619DD, offset: 0x6881F, size: 0x8, addend: 0x0, symName: __ZNK8pybind116detail9type_hashclERKNSt3__110type_indexE, symObjAddr: 0x1D028, symBinAddr: 0x208C0, symSize: 0x80 }
  - { offsetInCU: 0x61A3A, offset: 0x6887C, size: 0x8, addend: 0x0, symName: __ZNKSt3__110unique_ptrIA_PNS_16__hash_node_baseIPNS_11__hash_nodeINS_17__hash_value_typeINS_10type_indexEPN8pybind116detail9type_infoEEEPvEEEENS_25__bucket_list_deallocatorINS_9allocatorISE_EEEEE11get_deleterB7v160006Ev, symObjAddr: 0x1D0A8, symBinAddr: 0x20940, symSize: 0x24 }
  - { offsetInCU: 0x61A5F, offset: 0x688A1, size: 0x8, addend: 0x0, symName: __ZNKSt3__125__bucket_list_deallocatorINS_9allocatorIPNS_16__hash_node_baseIPNS_11__hash_nodeINS_17__hash_value_typeINS_10type_indexEPN8pybind116detail9type_infoEEEPvEEEEEEE4sizeB7v160006Ev, symObjAddr: 0x1D0CC, symBinAddr: 0x20964, symSize: 0x28 }
  - { offsetInCU: 0x61A84, offset: 0x688C6, size: 0x8, addend: 0x0, symName: __ZNKSt3__117__compressed_pairIPPNS_16__hash_node_baseIPNS_11__hash_nodeINS_17__hash_value_typeINS_10type_indexEPN8pybind116detail9type_infoEEEPvEEEENS_25__bucket_list_deallocatorINS_9allocatorISE_EEEEE6secondB7v160006Ev, symObjAddr: 0x1D0F4, symBinAddr: 0x2098C, symSize: 0x28 }
  - { offsetInCU: 0x61AA9, offset: 0x688EB, size: 0x8, addend: 0x0, symName: __ZNKSt3__122__compressed_pair_elemINS_25__bucket_list_deallocatorINS_9allocatorIPNS_16__hash_node_baseIPNS_11__hash_nodeINS_17__hash_value_typeINS_10type_indexEPN8pybind116detail9type_infoEEEPvEEEEEEEELi1ELb0EE5__getB7v160006Ev, symObjAddr: 0x1D11C, symBinAddr: 0x209B4, symSize: 0x14 }
  - { offsetInCU: 0x61ACE, offset: 0x68910, size: 0x8, addend: 0x0, symName: __ZNKSt3__117__compressed_pairImNS_9allocatorIPNS_16__hash_node_baseIPNS_11__hash_nodeINS_17__hash_value_typeINS_10type_indexEPN8pybind116detail9type_infoEEEPvEEEEEEE5firstB7v160006Ev, symObjAddr: 0x1D130, symBinAddr: 0x209C8, symSize: 0x24 }
  - { offsetInCU: 0x61AF3, offset: 0x68935, size: 0x8, addend: 0x0, symName: __ZNKSt3__117__compressed_pairIPPNS_16__hash_node_baseIPNS_11__hash_nodeINS_17__hash_value_typeINS_10type_indexEPN8pybind116detail9type_infoEEEPvEEEENS_25__bucket_list_deallocatorINS_9allocatorISE_EEEEE5firstB7v160006Ev, symObjAddr: 0x1D154, symBinAddr: 0x209EC, symSize: 0x24 }
  - { offsetInCU: 0x61B18, offset: 0x6895A, size: 0x8, addend: 0x0, symName: __ZNKSt3__122__compressed_pair_elemIPPNS_16__hash_node_baseIPNS_11__hash_nodeINS_17__hash_value_typeINS_10type_indexEPN8pybind116detail9type_infoEEEPvEEEELi0ELb0EE5__getB7v160006Ev, symObjAddr: 0x1D178, symBinAddr: 0x20A10, symSize: 0x14 }
  - { offsetInCU: 0x61B3D, offset: 0x6897F, size: 0x8, addend: 0x0, symName: __ZNSt3__117__compressed_pairIfNS_21__unordered_map_equalINS_10type_indexENS_17__hash_value_typeIS2_PN8pybind116detail9type_infoEEENS5_13type_equal_toENS5_9type_hashELb1EEEE6secondB7v160006Ev, symObjAddr: 0x1D18C, symBinAddr: 0x20A24, symSize: 0x24 }
  - { offsetInCU: 0x61B62, offset: 0x689A4, size: 0x8, addend: 0x0, symName: __ZNSt3__122__compressed_pair_elemINS_21__unordered_map_equalINS_10type_indexENS_17__hash_value_typeIS2_PN8pybind116detail9type_infoEEENS5_13type_equal_toENS5_9type_hashELb1EEELi1ELb1EE5__getB7v160006Ev, symObjAddr: 0x1D1B0, symBinAddr: 0x20A48, symSize: 0x14 }
  - { offsetInCU: 0x61B87, offset: 0x689C9, size: 0x8, addend: 0x0, symName: __ZNK8pybind116detail13type_equal_toclERKNSt3__110type_indexES5_, symObjAddr: 0x1D1C4, symBinAddr: 0x20A5C, symSize: 0x90 }
  - { offsetInCU: 0x61BC8, offset: 0x68A0A, size: 0x8, addend: 0x0, symName: __ZNKSt3__117__hash_value_typeINS_10type_indexEPN8pybind116detail9type_infoEE11__get_valueB7v160006Ev, symObjAddr: 0x1D254, symBinAddr: 0x20AEC, symSize: 0x24 }
  - { offsetInCU: 0x61BED, offset: 0x68A2F, size: 0x8, addend: 0x0, symName: __ZNSt3__115__hash_iteratorIPNS_11__hash_nodeINS_17__hash_value_typeINS_10type_indexEPN8pybind116detail9type_infoEEEPvEEEC2B7v160006EPNS_16__hash_node_baseISB_EEPKv, symObjAddr: 0x1D2B0, symBinAddr: 0x20B48, symSize: 0x24 }
  - { offsetInCU: 0x61C34, offset: 0x68A76, size: 0x8, addend: 0x0, symName: __ZNSt3__119__hash_map_iteratorINS_15__hash_iteratorIPNS_11__hash_nodeINS_17__hash_value_typeINS_10type_indexEPN8pybind116detail9type_infoEEEPvEEEEEC2B7v160006ESD_, symObjAddr: 0x1D2D4, symBinAddr: 0x20B6C, symSize: 0x20 }
  - { offsetInCU: 0x61C6C, offset: 0x68AAE, size: 0x8, addend: 0x0, symName: __ZNSt3__114pointer_traitsIPNS_4pairIKNS_10type_indexEPN8pybind116detail9type_infoEEEE10pointer_toB7v160006ERS8_, symObjAddr: 0x1D358, symBinAddr: 0x20BF0, symSize: 0x14 }
  - { offsetInCU: 0x61C8F, offset: 0x68AD1, size: 0x8, addend: 0x0, symName: __ZNKSt3__115__hash_iteratorIPNS_11__hash_nodeINS_17__hash_value_typeINS_10type_indexEPN8pybind116detail9type_infoEEEPvEEEptB7v160006Ev, symObjAddr: 0x1D36C, symBinAddr: 0x20C04, symSize: 0x30 }
  - { offsetInCU: 0x61CB4, offset: 0x68AF6, size: 0x8, addend: 0x0, symName: __ZNSt3__114pointer_traitsIPNS_17__hash_value_typeINS_10type_indexEPN8pybind116detail9type_infoEEEE10pointer_toB7v160006ERS7_, symObjAddr: 0x1D39C, symBinAddr: 0x20C34, symSize: 0x14 }
  - { offsetInCU: 0x61CD7, offset: 0x68B19, size: 0x8, addend: 0x0, symName: __ZNSt3__110type_indexC2B7v160006ERKSt9type_info, symObjAddr: 0x1D3B0, symBinAddr: 0x20C48, symSize: 0x20 }
  - { offsetInCU: 0x61D13, offset: 0x68B55, size: 0x8, addend: 0x0, symName: __ZNKR8pybind116object4castINSt3__112basic_stringIcNS2_11char_traitsIcEENS2_9allocatorIcEEEEEET_v, symObjAddr: 0x1D3D0, symBinAddr: 0x20C68, symSize: 0x2C }
  - { offsetInCU: 0x61D41, offset: 0x68B83, size: 0x8, addend: 0x0, symName: __ZNKSt3__16vectorIN8pybind116detail15argument_recordENS_9allocatorIS3_EEE8capacityB7v160006Ev, symObjAddr: 0x1D3FC, symBinAddr: 0x20C94, symSize: 0x40 }
  - { offsetInCU: 0x61D66, offset: 0x68BA8, size: 0x8, addend: 0x0, symName: __ZNSt3__16vectorIN8pybind116detail15argument_recordENS_9allocatorIS3_EEE7__allocB7v160006Ev, symObjAddr: 0x1D43C, symBinAddr: 0x20CD4, symSize: 0x28 }
  - { offsetInCU: 0x61D8B, offset: 0x68BCD, size: 0x8, addend: 0x0, symName: __ZNSt3__114__split_bufferIN8pybind116detail15argument_recordERNS_9allocatorIS3_EEEC1EmmS6_, symObjAddr: 0x1D464, symBinAddr: 0x20CFC, symSize: 0x44 }
  - { offsetInCU: 0x61DE0, offset: 0x68C22, size: 0x8, addend: 0x0, symName: __ZNSt3__114__split_bufferIN8pybind116detail15argument_recordERNS_9allocatorIS3_EEED1Ev, symObjAddr: 0x1D5C0, symBinAddr: 0x20E58, symSize: 0x2C }
  - { offsetInCU: 0x61E0B, offset: 0x68C4D, size: 0x8, addend: 0x0, symName: __ZNKSt3__16vectorIN8pybind116detail15argument_recordENS_9allocatorIS3_EEE9__end_capB7v160006Ev, symObjAddr: 0x1D5EC, symBinAddr: 0x20E84, symSize: 0x28 }
  - { offsetInCU: 0x61E30, offset: 0x68C72, size: 0x8, addend: 0x0, symName: __ZNKSt3__117__compressed_pairIPN8pybind116detail15argument_recordENS_9allocatorIS3_EEE5firstB7v160006Ev, symObjAddr: 0x1D614, symBinAddr: 0x20EAC, symSize: 0x24 }
  - { offsetInCU: 0x61E55, offset: 0x68C97, size: 0x8, addend: 0x0, symName: __ZNKSt3__122__compressed_pair_elemIPN8pybind116detail15argument_recordELi0ELb0EE5__getB7v160006Ev, symObjAddr: 0x1D638, symBinAddr: 0x20ED0, symSize: 0x14 }
  - { offsetInCU: 0x61E7A, offset: 0x68CBC, size: 0x8, addend: 0x0, symName: __ZNSt3__117__compressed_pairIPN8pybind116detail15argument_recordENS_9allocatorIS3_EEE6secondB7v160006Ev, symObjAddr: 0x1D64C, symBinAddr: 0x20EE4, symSize: 0x24 }
  - { offsetInCU: 0x61E9F, offset: 0x68CE1, size: 0x8, addend: 0x0, symName: __ZNSt3__122__compressed_pair_elemINS_9allocatorIN8pybind116detail15argument_recordEEELi1ELb1EE5__getB7v160006Ev, symObjAddr: 0x1D670, symBinAddr: 0x20F08, symSize: 0x14 }
  - { offsetInCU: 0x61EC4, offset: 0x68D06, size: 0x8, addend: 0x0, symName: __ZNSt3__114__split_bufferIN8pybind116detail15argument_recordERNS_9allocatorIS3_EEEC2EmmS6_, symObjAddr: 0x1D684, symBinAddr: 0x20F1C, symSize: 0xD4 }
  - { offsetInCU: 0x61F36, offset: 0x68D78, size: 0x8, addend: 0x0, symName: __ZNSt3__117__compressed_pairIPN8pybind116detail15argument_recordERNS_9allocatorIS3_EEEC1B7v160006IDnS7_EEOT_OT0_, symObjAddr: 0x1D758, symBinAddr: 0x20FF0, symSize: 0x3C }
  - { offsetInCU: 0x61F8D, offset: 0x68DCF, size: 0x8, addend: 0x0, symName: __ZNSt3__114__split_bufferIN8pybind116detail15argument_recordERNS_9allocatorIS3_EEE7__allocB7v160006Ev, symObjAddr: 0x1D7D4, symBinAddr: 0x2106C, symSize: 0x28 }
  - { offsetInCU: 0x61FB2, offset: 0x68DF4, size: 0x8, addend: 0x0, symName: __ZNSt3__114__split_bufferIN8pybind116detail15argument_recordERNS_9allocatorIS3_EEE9__end_capB7v160006Ev, symObjAddr: 0x1D7FC, symBinAddr: 0x21094, symSize: 0x28 }
  - { offsetInCU: 0x61FD7, offset: 0x68E19, size: 0x8, addend: 0x0, symName: __ZNSt3__117__compressed_pairIPN8pybind116detail15argument_recordERNS_9allocatorIS3_EEEC2B7v160006IDnS7_EEOT_OT0_, symObjAddr: 0x1D824, symBinAddr: 0x210BC, symSize: 0x48 }
  - { offsetInCU: 0x6202E, offset: 0x68E70, size: 0x8, addend: 0x0, symName: __ZNSt3__122__compressed_pair_elemIRNS_9allocatorIN8pybind116detail15argument_recordEEELi1ELb0EEC2B7v160006IS6_vEEOT_, symObjAddr: 0x1D86C, symBinAddr: 0x21104, symSize: 0x20 }
  - { offsetInCU: 0x62070, offset: 0x68EB2, size: 0x8, addend: 0x0, symName: __ZNSt3__19allocatorIN8pybind116detail15argument_recordEE8allocateB7v160006Em, symObjAddr: 0x1D88C, symBinAddr: 0x21124, symSize: 0x58 }
  - { offsetInCU: 0x620AD, offset: 0x68EEF, size: 0x8, addend: 0x0, symName: __ZNSt3__116allocator_traitsINS_9allocatorIN8pybind116detail15argument_recordEEEE8max_sizeB7v160006IS5_vEEmRKS5_, symObjAddr: 0x1D8E4, symBinAddr: 0x2117C, symSize: 0x24 }
  - { offsetInCU: 0x620DC, offset: 0x68F1E, size: 0x8, addend: 0x0, symName: __ZNKSt3__19allocatorIN8pybind116detail15argument_recordEE8max_sizeB7v160006Ev, symObjAddr: 0x1D908, symBinAddr: 0x211A0, symSize: 0x14 }
  - { offsetInCU: 0x62101, offset: 0x68F43, size: 0x8, addend: 0x0, symName: __ZNSt3__117__compressed_pairIPN8pybind116detail15argument_recordERNS_9allocatorIS3_EEE6secondB7v160006Ev, symObjAddr: 0x1D91C, symBinAddr: 0x211B4, symSize: 0x28 }
  - { offsetInCU: 0x62126, offset: 0x68F68, size: 0x8, addend: 0x0, symName: __ZNSt3__122__compressed_pair_elemIRNS_9allocatorIN8pybind116detail15argument_recordEEELi1ELb0EE5__getB7v160006Ev, symObjAddr: 0x1D944, symBinAddr: 0x211DC, symSize: 0x18 }
  - { offsetInCU: 0x6214B, offset: 0x68F8D, size: 0x8, addend: 0x0, symName: __ZNSt3__117__compressed_pairIPN8pybind116detail15argument_recordERNS_9allocatorIS3_EEE5firstB7v160006Ev, symObjAddr: 0x1D95C, symBinAddr: 0x211F4, symSize: 0x24 }
  - { offsetInCU: 0x62170, offset: 0x68FB2, size: 0x8, addend: 0x0, symName: __ZNSt3__122__compressed_pair_elemIPN8pybind116detail15argument_recordELi0ELb0EE5__getB7v160006Ev, symObjAddr: 0x1D980, symBinAddr: 0x21218, symSize: 0x14 }
  - { offsetInCU: 0x62195, offset: 0x68FD7, size: 0x8, addend: 0x0, symName: __ZNKSt3__16vectorIN8pybind116detail15argument_recordENS_9allocatorIS3_EEE17__annotate_deleteB7v160006Ev, symObjAddr: 0x1D994, symBinAddr: 0x2122C, symSize: 0xB8 }
  - { offsetInCU: 0x621BA, offset: 0x68FFC, size: 0x8, addend: 0x0, symName: __ZNSt3__116reverse_iteratorIPN8pybind116detail15argument_recordEEC1B7v160006ES4_, symObjAddr: 0x1DAC4, symBinAddr: 0x2135C, symSize: 0x34 }
  - { offsetInCU: 0x621F1, offset: 0x69033, size: 0x8, addend: 0x0, symName: __ZNKSt3__116reverse_iteratorIPN8pybind116detail15argument_recordEE4baseB7v160006Ev, symObjAddr: 0x1DAF8, symBinAddr: 0x21390, symSize: 0x18 }
  - { offsetInCU: 0x62216, offset: 0x69058, size: 0x8, addend: 0x0, symName: __ZNSt3__16vectorIN8pybind116detail15argument_recordENS_9allocatorIS3_EEE9__end_capB7v160006Ev, symObjAddr: 0x1DB4C, symBinAddr: 0x213E4, symSize: 0x28 }
  - { offsetInCU: 0x6223B, offset: 0x6907D, size: 0x8, addend: 0x0, symName: __ZNKSt3__16vectorIN8pybind116detail15argument_recordENS_9allocatorIS3_EEE14__annotate_newB7v160006Em, symObjAddr: 0x1DB74, symBinAddr: 0x2140C, symSize: 0xAC }
  - { offsetInCU: 0x6226F, offset: 0x690B1, size: 0x8, addend: 0x0, symName: __ZNKSt3__16vectorIN8pybind116detail15argument_recordENS_9allocatorIS3_EEE31__annotate_contiguous_containerB7v160006EPKvS8_S8_S8_, symObjAddr: 0x1DC30, symBinAddr: 0x214C8, symSize: 0x20 }
  - { offsetInCU: 0x622C4, offset: 0x69106, size: 0x8, addend: 0x0, symName: __ZNKSt3__16vectorIN8pybind116detail15argument_recordENS_9allocatorIS3_EEE4dataB7v160006Ev, symObjAddr: 0x1DC50, symBinAddr: 0x214E8, symSize: 0x28 }
  - { offsetInCU: 0x62303, offset: 0x69145, size: 0x8, addend: 0x0, symName: __ZNKSt3__111__move_loopINS_17_ClassicAlgPolicyEEclB7v160006INS_16reverse_iteratorIPN8pybind116detail15argument_recordEEES9_S9_EENS_4pairIT_T1_EESB_T0_SC_, symObjAddr: 0x1DF7C, symBinAddr: 0x21814, symSize: 0xA8 }
  - { offsetInCU: 0x62373, offset: 0x691B5, size: 0x8, addend: 0x0, symName: __ZNSt3__18_IterOpsINS_17_ClassicAlgPolicyEE11__iter_moveB7v160006IRNS_16reverse_iteratorIPN8pybind116detail15argument_recordEEEEENS_9enable_ifIXsr12is_referenceIDTdeclsr3stdE7declvalIRT_EEEEE5valueEDTclsr3stdE4movedeclsr3stdE7declvalISD_EEEEE4typeEOSC_, symObjAddr: 0x1E1B8, symBinAddr: 0x21A50, symSize: 0x28 }
  - { offsetInCU: 0x6239F, offset: 0x691E1, size: 0x8, addend: 0x0, symName: __ZNKSt3__116reverse_iteratorIPN8pybind116detail15argument_recordEEdeB7v160006Ev, symObjAddr: 0x1E1E0, symBinAddr: 0x21A78, symSize: 0x28 }
  - { offsetInCU: 0x623D2, offset: 0x69214, size: 0x8, addend: 0x0, symName: __ZNSt3__116reverse_iteratorIPN8pybind116detail15argument_recordEEppB7v160006Ev, symObjAddr: 0x1E208, symBinAddr: 0x21AA0, symSize: 0x20 }
  - { offsetInCU: 0x623F7, offset: 0x69239, size: 0x8, addend: 0x0, symName: __ZNSt3__18_IterOpsINS_17_ClassicAlgPolicyEE25__validate_iter_referenceB7v160006IRNS_16reverse_iteratorIPN8pybind116detail15argument_recordEEEEEvv, symObjAddr: 0x1E228, symBinAddr: 0x21AC0, symSize: 0x4 }
  - { offsetInCU: 0x62415, offset: 0x69257, size: 0x8, addend: 0x0, symName: __ZNSt3__118__unwrap_iter_implINS_16reverse_iteratorIPN8pybind116detail15argument_recordEEELb0EE8__unwrapB7v160006ES6_, symObjAddr: 0x1E22C, symBinAddr: 0x21AC4, symSize: 0x24 }
  - { offsetInCU: 0x6243E, offset: 0x69280, size: 0x8, addend: 0x0, symName: __ZNSt3__14pairINS_16reverse_iteratorIPN8pybind116detail15argument_recordEEES6_EC1B7v160006IS6_S6_LPv0EEEOT_OT0_, symObjAddr: 0x1E250, symBinAddr: 0x21AE8, symSize: 0x3C }
  - { offsetInCU: 0x6249B, offset: 0x692DD, size: 0x8, addend: 0x0, symName: __ZNSt3__14pairINS_16reverse_iteratorIPN8pybind116detail15argument_recordEEES6_EC2B7v160006IS6_S6_LPv0EEEOT_OT0_, symObjAddr: 0x1E28C, symBinAddr: 0x21B24, symSize: 0x34 }
  - { offsetInCU: 0x624F8, offset: 0x6933A, size: 0x8, addend: 0x0, symName: __ZNSt3__118__unwrap_iter_implINS_16reverse_iteratorIPN8pybind116detail15argument_recordEEELb0EE8__rewrapB7v160006ES6_S6_, symObjAddr: 0x1E2C0, symBinAddr: 0x21B58, symSize: 0x2C }
  - { offsetInCU: 0x62526, offset: 0x69368, size: 0x8, addend: 0x0, symName: __ZNSt3__116reverse_iteratorIPN8pybind116detail15argument_recordEEC2B7v160006ES4_, symObjAddr: 0x1E2EC, symBinAddr: 0x21B84, symSize: 0x28 }
  - { offsetInCU: 0x6255D, offset: 0x6939F, size: 0x8, addend: 0x0, symName: __ZNSt3__117__compressed_pairIPN8pybind116detail15argument_recordENS_9allocatorIS3_EEE5firstB7v160006Ev, symObjAddr: 0x1E314, symBinAddr: 0x21BAC, symSize: 0x24 }
  - { offsetInCU: 0x62582, offset: 0x693C4, size: 0x8, addend: 0x0, symName: __ZNSt3__114__split_bufferIN8pybind116detail15argument_recordERNS_9allocatorIS3_EEED2Ev, symObjAddr: 0x1E338, symBinAddr: 0x21BD0, symSize: 0x8C }
  - { offsetInCU: 0x625AD, offset: 0x693EF, size: 0x8, addend: 0x0, symName: __ZNSt3__114__split_bufferIN8pybind116detail15argument_recordERNS_9allocatorIS3_EEE5clearB7v160006Ev, symObjAddr: 0x1E3C4, symBinAddr: 0x21C5C, symSize: 0x28 }
  - { offsetInCU: 0x625D2, offset: 0x69414, size: 0x8, addend: 0x0, symName: __ZNSt3__116allocator_traitsINS_9allocatorIN8pybind116detail15argument_recordEEEE10deallocateB7v160006ERS5_PS4_m, symObjAddr: 0x1E3EC, symBinAddr: 0x21C84, symSize: 0x34 }
  - { offsetInCU: 0x62614, offset: 0x69456, size: 0x8, addend: 0x0, symName: __ZNKSt3__114__split_bufferIN8pybind116detail15argument_recordERNS_9allocatorIS3_EEE8capacityB7v160006Ev, symObjAddr: 0x1E420, symBinAddr: 0x21CB8, symSize: 0x40 }
  - { offsetInCU: 0x62639, offset: 0x6947B, size: 0x8, addend: 0x0, symName: __ZNSt3__114__split_bufferIN8pybind116detail15argument_recordERNS_9allocatorIS3_EEE17__destruct_at_endB7v160006EPS3_, symObjAddr: 0x1E460, symBinAddr: 0x21CF8, symSize: 0x2C }
  - { offsetInCU: 0x6266C, offset: 0x694AE, size: 0x8, addend: 0x0, symName: __ZNSt3__114__split_bufferIN8pybind116detail15argument_recordERNS_9allocatorIS3_EEE17__destruct_at_endB7v160006EPS3_NS_17integral_constantIbLb0EEE, symObjAddr: 0x1E48C, symBinAddr: 0x21D24, symSize: 0x80 }
  - { offsetInCU: 0x626AC, offset: 0x694EE, size: 0x8, addend: 0x0, symName: __ZNSt3__116allocator_traitsINS_9allocatorIN8pybind116detail15argument_recordEEEE7destroyB7v160006IS4_vEEvRS5_PT_, symObjAddr: 0x1E50C, symBinAddr: 0x21DA4, symSize: 0x2C }
  - { offsetInCU: 0x626EA, offset: 0x6952C, size: 0x8, addend: 0x0, symName: __ZNSt3__19allocatorIN8pybind116detail15argument_recordEE7destroyB7v160006EPS3_, symObjAddr: 0x1E538, symBinAddr: 0x21DD0, symSize: 0x14 }
  - { offsetInCU: 0x6271D, offset: 0x6955F, size: 0x8, addend: 0x0, symName: __ZNSt3__19allocatorIN8pybind116detail15argument_recordEE10deallocateB7v160006EPS3_m, symObjAddr: 0x1E54C, symBinAddr: 0x21DE4, symSize: 0x40 }
  - { offsetInCU: 0x6275E, offset: 0x695A0, size: 0x8, addend: 0x0, symName: __ZNKSt3__114__split_bufferIN8pybind116detail15argument_recordERNS_9allocatorIS3_EEE9__end_capB7v160006Ev, symObjAddr: 0x1E58C, symBinAddr: 0x21E24, symSize: 0x28 }
  - { offsetInCU: 0x62783, offset: 0x695C5, size: 0x8, addend: 0x0, symName: __ZNKSt3__117__compressed_pairIPN8pybind116detail15argument_recordERNS_9allocatorIS3_EEE5firstB7v160006Ev, symObjAddr: 0x1E5B4, symBinAddr: 0x21E4C, symSize: 0x24 }
  - { offsetInCU: 0x627A8, offset: 0x695EA, size: 0x8, addend: 0x0, symName: __ZN8pybind117capsuleC1ENS_6handleENS_6object10borrowed_tE, symObjAddr: 0x1E5D8, symBinAddr: 0x21E70, symSize: 0x34 }
  - { offsetInCU: 0x627EC, offset: 0x6962E, size: 0x8, addend: 0x0, symName: __ZN8pybind117capsuleC2ENS_6handleENS_6object10borrowed_tE, symObjAddr: 0x1E60C, symBinAddr: 0x21EA4, symSize: 0x3C }
  - { offsetInCU: 0x6282F, offset: 0x69671, size: 0x8, addend: 0x0, symName: __ZL16PyTuple_GET_SIZEP7_object, symObjAddr: 0x1E648, symBinAddr: 0x21EE0, symSize: 0x70 }
  - { offsetInCU: 0x6286B, offset: 0x696AD, size: 0x8, addend: 0x0, symName: __ZN8pybind116detail16value_and_holderC1Ev, symObjAddr: 0x1E6B8, symBinAddr: 0x21F50, symSize: 0x2C }
  - { offsetInCU: 0x62894, offset: 0x696D6, size: 0x8, addend: 0x0, symName: __ZN8pybind116detail8instance20get_value_and_holderEPKNS0_9type_infoEb, symObjAddr: 0x1E760, symBinAddr: 0x21FF8, symSize: 0x25C }
  - { offsetInCU: 0x628F9, offset: 0x6973B, size: 0x8, addend: 0x0, symName: __ZNK8pybind116detail16value_and_holder19instance_registeredEv, symObjAddr: 0x1E9BC, symBinAddr: 0x22254, symSize: 0x70 }
  - { offsetInCU: 0x6291E, offset: 0x69760, size: 0x8, addend: 0x0, symName: __ZNSt3__16vectorIN8pybind116detail13function_callENS_9allocatorIS3_EEEC1B7v160006Ev, symObjAddr: 0x1EA2C, symBinAddr: 0x222C4, symSize: 0x2C }
  - { offsetInCU: 0x62947, offset: 0x69789, size: 0x8, addend: 0x0, symName: __ZN8pybind116detail13function_callC1ERKNS0_15function_recordENS_6handleE, symObjAddr: 0x1EA58, symBinAddr: 0x222F0, symSize: 0x3C }
  - { offsetInCU: 0x62991, offset: 0x697D3, size: 0x8, addend: 0x0, symName: __ZNK8pybind116detail16value_and_holdercvbEv, symObjAddr: 0x1EA94, symBinAddr: 0x2232C, symSize: 0x34 }
  - { offsetInCU: 0x629BC, offset: 0x697FE, size: 0x8, addend: 0x0, symName: __ZNSt3__16vectorIN8pybind116handleENS_9allocatorIS2_EEE12emplace_backIJP7_objectEEERS2_DpOT_, symObjAddr: 0x1EAC8, symBinAddr: 0x22360, symSize: 0x74 }
  - { offsetInCU: 0x629FD, offset: 0x6983F, size: 0x8, addend: 0x0, symName: __ZNSt3__16vectorIbNS_9allocatorIbEEE9push_backERKb, symObjAddr: 0x1EB3C, symBinAddr: 0x223D4, symSize: 0xA4 }
  - { offsetInCU: 0x62A33, offset: 0x69875, size: 0x8, addend: 0x0, symName: __ZNKSt3__16vectorIN8pybind116detail15argument_recordENS_9allocatorIS3_EEEixB7v160006Em, symObjAddr: 0x1EBE0, symBinAddr: 0x22478, symSize: 0x24 }
  - { offsetInCU: 0x62A69, offset: 0x698AB, size: 0x8, addend: 0x0, symName: __ZNSt3__16vectorIN8pybind116handleENS_9allocatorIS2_EEE9push_backB7v160006ERKS2_, symObjAddr: 0x1ED28, symBinAddr: 0x225C0, symSize: 0x6C }
  - { offsetInCU: 0x62AAA, offset: 0x698EC, size: 0x8, addend: 0x0, symName: __ZN8pybind114dictaSEOS0_, symObjAddr: 0x1EE14, symBinAddr: 0x226AC, symSize: 0x34 }
  - { offsetInCU: 0x62ADB, offset: 0x6991D, size: 0x8, addend: 0x0, symName: __ZN8pybind114dictD1Ev, symObjAddr: 0x1EE48, symBinAddr: 0x226E0, symSize: 0x2C }
  - { offsetInCU: 0x62B07, offset: 0x69949, size: 0x8, addend: 0x0, symName: __ZNKSt3__16vectorIN8pybind116handleENS_9allocatorIS2_EEE4sizeB7v160006Ev, symObjAddr: 0x1EE74, symBinAddr: 0x2270C, symSize: 0x28 }
  - { offsetInCU: 0x62B2C, offset: 0x6996E, size: 0x8, addend: 0x0, symName: __ZNSt3__16vectorIN8pybind116handleENS_9allocatorIS2_EEE9push_backB7v160006EOS2_, symObjAddr: 0x1EE9C, symBinAddr: 0x22734, symSize: 0x6C }
  - { offsetInCU: 0x62B62, offset: 0x699A4, size: 0x8, addend: 0x0, symName: __ZNK8pybind114dict5emptyEv, symObjAddr: 0x1EF08, symBinAddr: 0x227A0, symSize: 0x30 }
  - { offsetInCU: 0x62B87, offset: 0x699C9, size: 0x8, addend: 0x0, symName: __ZN8pybind115tupleC1IlLi0EEET_, symObjAddr: 0x1EF38, symBinAddr: 0x227D0, symSize: 0x34 }
  - { offsetInCU: 0x62BD9, offset: 0x69A1B, size: 0x8, addend: 0x0, symName: __ZN8pybind115tupleaSEOS0_, symObjAddr: 0x1EFAC, symBinAddr: 0x22844, symSize: 0x34 }
  - { offsetInCU: 0x62C0A, offset: 0x69A4C, size: 0x8, addend: 0x0, symName: __ZN8pybind115tupleC1IiLi0EEET_, symObjAddr: 0x1EFE0, symBinAddr: 0x22878, symSize: 0x34 }
  - { offsetInCU: 0x62C51, offset: 0x69A93, size: 0x8, addend: 0x0, symName: __ZNK8pybind115tupleixEm, symObjAddr: 0x1F014, symBinAddr: 0x228AC, symSize: 0x4C }
  - { offsetInCU: 0x62C85, offset: 0x69AC7, size: 0x8, addend: 0x0, symName: __ZNO8pybind116detail8accessorINS0_17accessor_policies10tuple_itemEEaSIRP7_objectEEvOT_, symObjAddr: 0x1F060, symBinAddr: 0x228F8, symSize: 0x54 }
  - { offsetInCU: 0x62CC2, offset: 0x69B04, size: 0x8, addend: 0x0, symName: __ZN8pybind116detail8accessorINS0_17accessor_policies10tuple_itemEED1Ev, symObjAddr: 0x1F0B4, symBinAddr: 0x2294C, symSize: 0x2C }
  - { offsetInCU: 0x62CEC, offset: 0x69B2E, size: 0x8, addend: 0x0, symName: __ZN8pybind114dictC1Ev, symObjAddr: 0x1F0E0, symBinAddr: 0x22978, symSize: 0x2C }
  - { offsetInCU: 0x62D15, offset: 0x69B57, size: 0x8, addend: 0x0, symName: __ZNKSt3__16vectorIbNS_9allocatorIbEEE4sizeB7v160006Ev, symObjAddr: 0x1F10C, symBinAddr: 0x229A4, symSize: 0x18 }
  - { offsetInCU: 0x62D3A, offset: 0x69B7C, size: 0x8, addend: 0x0, symName: __ZNSt3__16vectorIbNS_9allocatorIbEEEC1B7v160006Ev, symObjAddr: 0x1F124, symBinAddr: 0x229BC, symSize: 0x2C }
  - { offsetInCU: 0x62D65, offset: 0x69BA7, size: 0x8, addend: 0x0, symName: __ZNSt3__16vectorIbNS_9allocatorIbEEE6resizeEmb, symObjAddr: 0x1F150, symBinAddr: 0x229E8, symSize: 0x220 }
  - { offsetInCU: 0x62E04, offset: 0x69C46, size: 0x8, addend: 0x0, symName: __ZNSt3__16vectorIbNS_9allocatorIbEEE4swapERS3_, symObjAddr: 0x1F370, symBinAddr: 0x22C08, symSize: 0x84 }
  - { offsetInCU: 0x62E3A, offset: 0x69C7C, size: 0x8, addend: 0x0, symName: __ZN8pybind116detail19loader_life_supportC1Ev, symObjAddr: 0x1F3F4, symBinAddr: 0x22C8C, symSize: 0x2C }
  - { offsetInCU: 0x62E63, offset: 0x69CA5, size: 0x8, addend: 0x0, symName: __ZN8pybind116detail19loader_life_supportD1Ev, symObjAddr: 0x1F420, symBinAddr: 0x22CB8, symSize: 0x2C }
  - { offsetInCU: 0x62E8C, offset: 0x69CCE, size: 0x8, addend: 0x0, symName: __ZNSt3__16vectorIN8pybind116detail13function_callENS_9allocatorIS3_EEE9push_backB7v160006EOS3_, symObjAddr: 0x1F44C, symBinAddr: 0x22CE4, symSize: 0x6C }
  - { offsetInCU: 0x62EC2, offset: 0x69D04, size: 0x8, addend: 0x0, symName: __ZNSt3__16vectorIbNS_9allocatorIbEEED1B7v160006Ev, symObjAddr: 0x1F4B8, symBinAddr: 0x22D50, symSize: 0x2C }
  - { offsetInCU: 0x62EEB, offset: 0x69D2D, size: 0x8, addend: 0x0, symName: __ZN8pybind116detail13function_callD1Ev, symObjAddr: 0x1F4E4, symBinAddr: 0x22D7C, symSize: 0x2C }
  - { offsetInCU: 0x62F17, offset: 0x69D59, size: 0x8, addend: 0x0, symName: __ZNKSt3__16vectorIN8pybind116detail13function_callENS_9allocatorIS3_EEE5emptyB7v160006Ev, symObjAddr: 0x1F510, symBinAddr: 0x22DA8, symSize: 0x28 }
  - { offsetInCU: 0x62F3C, offset: 0x69D7E, size: 0x8, addend: 0x0, symName: __ZNSt3__16vectorIN8pybind116detail13function_callENS_9allocatorIS3_EEE5beginB7v160006Ev, symObjAddr: 0x1F538, symBinAddr: 0x22DD0, symSize: 0x30 }
  - { offsetInCU: 0x62F63, offset: 0x69DA5, size: 0x8, addend: 0x0, symName: __ZNSt3__16vectorIN8pybind116detail13function_callENS_9allocatorIS3_EEE3endB7v160006Ev, symObjAddr: 0x1F568, symBinAddr: 0x22E00, symSize: 0x30 }
  - { offsetInCU: 0x62F8A, offset: 0x69DCC, size: 0x8, addend: 0x0, symName: __ZNKSt3__111__wrap_iterIPN8pybind116detail13function_callEEdeB7v160006Ev, symObjAddr: 0x1F5CC, symBinAddr: 0x22E64, symSize: 0x18 }
  - { offsetInCU: 0x62FAF, offset: 0x69DF1, size: 0x8, addend: 0x0, symName: __ZNSt3__111__wrap_iterIPN8pybind116detail13function_callEEppB7v160006Ev, symObjAddr: 0x1F5E4, symBinAddr: 0x22E7C, symSize: 0x20 }
  - { offsetInCU: 0x62FD4, offset: 0x69E16, size: 0x8, addend: 0x0, symName: __ZNSt3__16vectorIN8pybind116detail13function_callENS_9allocatorIS3_EEED1B7v160006Ev, symObjAddr: 0x1F604, symBinAddr: 0x22E9C, symSize: 0x2C }
  - { offsetInCU: 0x62FFD, offset: 0x69E3F, size: 0x8, addend: 0x0, symName: __ZNKSt3__112basic_stringIcNS_11char_traitsIcEENS_9allocatorIcEEE4findB7v160006EPKcm, symObjAddr: 0x1F7AC, symBinAddr: 0x23044, symSize: 0x74 }
  - { offsetInCU: 0x63042, offset: 0x69E84, size: 0x8, addend: 0x0, symName: __ZNKSt3__112basic_stringIcNS_11char_traitsIcEENS_9allocatorIcEEE5rfindB7v160006EPKcm, symObjAddr: 0x1F820, symBinAddr: 0x230B8, symSize: 0x74 }
  - { offsetInCU: 0x63087, offset: 0x69EC9, size: 0x8, addend: 0x0, symName: __ZNK8pybind115tuple4sizeEv, symObjAddr: 0x1F894, symBinAddr: 0x2312C, symSize: 0x28 }
  - { offsetInCU: 0x630AC, offset: 0x69EEE, size: 0x8, addend: 0x0, symName: __ZNK8pybind116detail8accessorINS0_17accessor_policies10tuple_itemEEcvNS_6objectEEv, symObjAddr: 0x1F8BC, symBinAddr: 0x23154, symSize: 0x38 }
  - { offsetInCU: 0x630D1, offset: 0x69F13, size: 0x8, addend: 0x0, symName: __ZNK8pybind114dict5beginEv, symObjAddr: 0x1F8F4, symBinAddr: 0x2318C, symSize: 0x40 }
  - { offsetInCU: 0x630F6, offset: 0x69F38, size: 0x8, addend: 0x0, symName: __ZNK8pybind114dict3endEv, symObjAddr: 0x1F934, symBinAddr: 0x231CC, symSize: 0x38 }
  - { offsetInCU: 0x6311B, offset: 0x69F5D, size: 0x8, addend: 0x0, symName: __ZNK8pybind116detail16generic_iteratorINS0_17iterator_policies13dict_readonlyEEdeEv, symObjAddr: 0x1F9A0, symBinAddr: 0x23238, symSize: 0x34 }
  - { offsetInCU: 0x63140, offset: 0x69F82, size: 0x8, addend: 0x0, symName: __ZNK8pybind113str6formatIJRNS_6handleEEEES0_DpOT_, symObjAddr: 0x1F9D4, symBinAddr: 0x2326C, symSize: 0xE4 }
  - { offsetInCU: 0x6317F, offset: 0x69FC1, size: 0x8, addend: 0x0, symName: __ZN8pybind116detail16generic_iteratorINS0_17iterator_policies13dict_readonlyEEppEv, symObjAddr: 0x1FAB8, symBinAddr: 0x23350, symSize: 0x2C }
  - { offsetInCU: 0x631B3, offset: 0x69FF5, size: 0x8, addend: 0x0, symName: __ZZN8pybind1112cpp_function10dispatcherEP7_objectS2_S2_ENKUlRNSt3__112basic_stringIcNS3_11char_traitsIcEENS3_9allocatorIcEEEEE_clESA_, symObjAddr: 0x1FAE4, symBinAddr: 0x2337C, symSize: 0x58 }
  - { offsetInCU: 0x631EB, offset: 0x6A02D, size: 0x8, addend: 0x0, symName: __ZL7Py_SIZEP7_object, symObjAddr: 0x1FB3C, symBinAddr: 0x233D4, symSize: 0x20 }
  - { offsetInCU: 0x63226, offset: 0x6A068, size: 0x8, addend: 0x0, symName: __ZN8pybind116detail16value_and_holderC2Ev, symObjAddr: 0x1FB5C, symBinAddr: 0x233F4, symSize: 0x24 }
  - { offsetInCU: 0x6324F, offset: 0x6A091, size: 0x8, addend: 0x0, symName: __ZNKSt3__16vectorIPN8pybind116detail9type_infoENS_9allocatorIS4_EEE5emptyB7v160006Ev, symObjAddr: 0x1FB80, symBinAddr: 0x23418, symSize: 0x28 }
  - { offsetInCU: 0x63274, offset: 0x6A0B6, size: 0x8, addend: 0x0, symName: __ZNKSt3__16vectorIPN8pybind116detail9type_infoENS_9allocatorIS4_EEE5frontB7v160006Ev, symObjAddr: 0x1FBA8, symBinAddr: 0x23440, symSize: 0x18 }
  - { offsetInCU: 0x63299, offset: 0x6A0DB, size: 0x8, addend: 0x0, symName: __ZN8pybind116detail16value_and_holderC1EPNS0_8instanceEPKNS0_9type_infoEmm, symObjAddr: 0x1FBC0, symBinAddr: 0x23458, symSize: 0x4C }
  - { offsetInCU: 0x632FE, offset: 0x6A140, size: 0x8, addend: 0x0, symName: __ZN8pybind116detail18values_and_holders4findEPKNS0_9type_infoE, symObjAddr: 0x1FC0C, symBinAddr: 0x234A4, symSize: 0x94 }
  - { offsetInCU: 0x63352, offset: 0x6A194, size: 0x8, addend: 0x0, symName: __ZN8pybind116detail16value_and_holderC2EPNS0_8instanceEPKNS0_9type_infoEmm, symObjAddr: 0x1FCA0, symBinAddr: 0x23538, symSize: 0x98 }
  - { offsetInCU: 0x633B7, offset: 0x6A1F9, size: 0x8, addend: 0x0, symName: __ZN8pybind116detail18values_and_holders8iteratorptEv, symObjAddr: 0x1FD38, symBinAddr: 0x235D0, symSize: 0x18 }
  - { offsetInCU: 0x633DC, offset: 0x6A21E, size: 0x8, addend: 0x0, symName: __ZNSt3__16vectorIN8pybind116detail13function_callENS_9allocatorIS3_EEEC2B7v160006Ev, symObjAddr: 0x1FD50, symBinAddr: 0x235E8, symSize: 0x58 }
  - { offsetInCU: 0x63405, offset: 0x6A247, size: 0x8, addend: 0x0, symName: __ZNSt3__117__compressed_pairIPN8pybind116detail13function_callENS_9allocatorIS3_EEEC1B7v160006IDnNS_18__default_init_tagEEEOT_OT0_, symObjAddr: 0x1FDA8, symBinAddr: 0x23640, symSize: 0x3C }
  - { offsetInCU: 0x6345C, offset: 0x6A29E, size: 0x8, addend: 0x0, symName: __ZNSt3__117__compressed_pairIPN8pybind116detail13function_callENS_9allocatorIS3_EEEC2B7v160006IDnNS_18__default_init_tagEEEOT_OT0_, symObjAddr: 0x1FDF4, symBinAddr: 0x2368C, symSize: 0x40 }
  - { offsetInCU: 0x634B3, offset: 0x6A2F5, size: 0x8, addend: 0x0, symName: __ZNSt3__122__compressed_pair_elemIPN8pybind116detail13function_callELi0ELb0EEC2B7v160006IDnvEEOT_, symObjAddr: 0x1FE34, symBinAddr: 0x236CC, symSize: 0x1C }
  - { offsetInCU: 0x634F5, offset: 0x6A337, size: 0x8, addend: 0x0, symName: __ZNSt3__122__compressed_pair_elemINS_9allocatorIN8pybind116detail13function_callEEELi1ELb1EEC2B7v160006ENS_18__default_init_tagE, symObjAddr: 0x1FE50, symBinAddr: 0x236E8, symSize: 0x2C }
  - { offsetInCU: 0x63529, offset: 0x6A36B, size: 0x8, addend: 0x0, symName: __ZNSt3__19allocatorIN8pybind116detail13function_callEEC2B7v160006Ev, symObjAddr: 0x1FE7C, symBinAddr: 0x23714, symSize: 0x2C }
  - { offsetInCU: 0x63552, offset: 0x6A394, size: 0x8, addend: 0x0, symName: __ZNSt3__116__non_trivial_ifILb1ENS_9allocatorIN8pybind116detail13function_callEEEEC2B7v160006Ev, symObjAddr: 0x1FEA8, symBinAddr: 0x23740, symSize: 0x14 }
  - { offsetInCU: 0x6357B, offset: 0x6A3BD, size: 0x8, addend: 0x0, symName: __ZN8pybind116detail13function_callC2ERKNS0_15function_recordENS_6handleE, symObjAddr: 0x1FEBC, symBinAddr: 0x23754, symSize: 0xFC }
  - { offsetInCU: 0x635C5, offset: 0x6A407, size: 0x8, addend: 0x0, symName: __ZNSt3__16vectorIN8pybind116handleENS_9allocatorIS2_EEEC1B7v160006Ev, symObjAddr: 0x1FFB8, symBinAddr: 0x23850, symSize: 0x2C }
  - { offsetInCU: 0x635EE, offset: 0x6A430, size: 0x8, addend: 0x0, symName: __ZNSt3__16vectorIN8pybind116handleENS_9allocatorIS2_EEE7reserveEm, symObjAddr: 0x1FFE4, symBinAddr: 0x2387C, symSize: 0xE8 }
  - { offsetInCU: 0x63649, offset: 0x6A48B, size: 0x8, addend: 0x0, symName: __ZNSt3__16vectorIbNS_9allocatorIbEEE7reserveEm, symObjAddr: 0x200CC, symBinAddr: 0x23964, symSize: 0x114 }
  - { offsetInCU: 0x63694, offset: 0x6A4D6, size: 0x8, addend: 0x0, symName: __ZNSt3__16vectorIN8pybind116handleENS_9allocatorIS2_EEED1B7v160006Ev, symObjAddr: 0x201E0, symBinAddr: 0x23A78, symSize: 0x2C }
  - { offsetInCU: 0x636BD, offset: 0x6A4FF, size: 0x8, addend: 0x0, symName: __ZNSt3__16vectorIN8pybind116handleENS_9allocatorIS2_EEEC2B7v160006Ev, symObjAddr: 0x2020C, symBinAddr: 0x23AA4, symSize: 0x58 }
  - { offsetInCU: 0x636E6, offset: 0x6A528, size: 0x8, addend: 0x0, symName: __ZNSt3__117__compressed_pairIPN8pybind116handleENS_9allocatorIS2_EEEC1B7v160006IDnNS_18__default_init_tagEEEOT_OT0_, symObjAddr: 0x20264, symBinAddr: 0x23AFC, symSize: 0x3C }
  - { offsetInCU: 0x6373D, offset: 0x6A57F, size: 0x8, addend: 0x0, symName: __ZNSt3__117__compressed_pairIPN8pybind116handleENS_9allocatorIS2_EEEC2B7v160006IDnNS_18__default_init_tagEEEOT_OT0_, symObjAddr: 0x202B0, symBinAddr: 0x23B48, symSize: 0x40 }
  - { offsetInCU: 0x63794, offset: 0x6A5D6, size: 0x8, addend: 0x0, symName: __ZNSt3__122__compressed_pair_elemIPN8pybind116handleELi0ELb0EEC2B7v160006IDnvEEOT_, symObjAddr: 0x202F0, symBinAddr: 0x23B88, symSize: 0x1C }
  - { offsetInCU: 0x637D6, offset: 0x6A618, size: 0x8, addend: 0x0, symName: __ZNSt3__122__compressed_pair_elemINS_9allocatorIN8pybind116handleEEELi1ELb1EEC2B7v160006ENS_18__default_init_tagE, symObjAddr: 0x2030C, symBinAddr: 0x23BA4, symSize: 0x2C }
  - { offsetInCU: 0x6380A, offset: 0x6A64C, size: 0x8, addend: 0x0, symName: __ZNSt3__19allocatorIN8pybind116handleEEC2B7v160006Ev, symObjAddr: 0x20338, symBinAddr: 0x23BD0, symSize: 0x2C }
  - { offsetInCU: 0x63833, offset: 0x6A675, size: 0x8, addend: 0x0, symName: __ZNSt3__116__non_trivial_ifILb1ENS_9allocatorIN8pybind116handleEEEEC2B7v160006Ev, symObjAddr: 0x20364, symBinAddr: 0x23BFC, symSize: 0x14 }
  - { offsetInCU: 0x6385C, offset: 0x6A69E, size: 0x8, addend: 0x0, symName: __ZNKSt3__16vectorIN8pybind116handleENS_9allocatorIS2_EEE8capacityB7v160006Ev, symObjAddr: 0x20378, symBinAddr: 0x23C10, symSize: 0x40 }
  - { offsetInCU: 0x63881, offset: 0x6A6C3, size: 0x8, addend: 0x0, symName: __ZNKSt3__16vectorIN8pybind116handleENS_9allocatorIS2_EEE8max_sizeEv, symObjAddr: 0x203B8, symBinAddr: 0x23C50, symSize: 0x60 }
  - { offsetInCU: 0x638A8, offset: 0x6A6EA, size: 0x8, addend: 0x0, symName: __ZNKSt3__16vectorIN8pybind116handleENS_9allocatorIS2_EEE20__throw_length_errorB7v160006Ev, symObjAddr: 0x20418, symBinAddr: 0x23CB0, symSize: 0x1C }
  - { offsetInCU: 0x638CD, offset: 0x6A70F, size: 0x8, addend: 0x0, symName: __ZNSt3__16vectorIN8pybind116handleENS_9allocatorIS2_EEE7__allocB7v160006Ev, symObjAddr: 0x20434, symBinAddr: 0x23CCC, symSize: 0x28 }
  - { offsetInCU: 0x638F2, offset: 0x6A734, size: 0x8, addend: 0x0, symName: __ZNSt3__114__split_bufferIN8pybind116handleERNS_9allocatorIS2_EEEC1EmmS5_, symObjAddr: 0x2045C, symBinAddr: 0x23CF4, symSize: 0x44 }
  - { offsetInCU: 0x63947, offset: 0x6A789, size: 0x8, addend: 0x0, symName: __ZNSt3__114__split_bufferIN8pybind116handleERNS_9allocatorIS2_EEED1Ev, symObjAddr: 0x205B8, symBinAddr: 0x23E50, symSize: 0x2C }
  - { offsetInCU: 0x63972, offset: 0x6A7B4, size: 0x8, addend: 0x0, symName: __ZNKSt3__16vectorIN8pybind116handleENS_9allocatorIS2_EEE9__end_capB7v160006Ev, symObjAddr: 0x205E4, symBinAddr: 0x23E7C, symSize: 0x28 }
  - { offsetInCU: 0x63997, offset: 0x6A7D9, size: 0x8, addend: 0x0, symName: __ZNKSt3__117__compressed_pairIPN8pybind116handleENS_9allocatorIS2_EEE5firstB7v160006Ev, symObjAddr: 0x2060C, symBinAddr: 0x23EA4, symSize: 0x24 }
  - { offsetInCU: 0x639BC, offset: 0x6A7FE, size: 0x8, addend: 0x0, symName: __ZNKSt3__122__compressed_pair_elemIPN8pybind116handleELi0ELb0EE5__getB7v160006Ev, symObjAddr: 0x20630, symBinAddr: 0x23EC8, symSize: 0x14 }
  - { offsetInCU: 0x639EB, offset: 0x6A82D, size: 0x8, addend: 0x0, symName: __ZNSt3__116allocator_traitsINS_9allocatorIN8pybind116handleEEEE8max_sizeB7v160006IS4_vEEmRKS4_, symObjAddr: 0x20644, symBinAddr: 0x23EDC, symSize: 0x24 }
  - { offsetInCU: 0x63A1A, offset: 0x6A85C, size: 0x8, addend: 0x0, symName: __ZNKSt3__16vectorIN8pybind116handleENS_9allocatorIS2_EEE7__allocB7v160006Ev, symObjAddr: 0x20668, symBinAddr: 0x23F00, symSize: 0x28 }
  - { offsetInCU: 0x63A3F, offset: 0x6A881, size: 0x8, addend: 0x0, symName: __ZNKSt3__19allocatorIN8pybind116handleEE8max_sizeB7v160006Ev, symObjAddr: 0x20690, symBinAddr: 0x23F28, symSize: 0x14 }
  - { offsetInCU: 0x63A64, offset: 0x6A8A6, size: 0x8, addend: 0x0, symName: __ZNKSt3__117__compressed_pairIPN8pybind116handleENS_9allocatorIS2_EEE6secondB7v160006Ev, symObjAddr: 0x206A4, symBinAddr: 0x23F3C, symSize: 0x24 }
  - { offsetInCU: 0x63A89, offset: 0x6A8CB, size: 0x8, addend: 0x0, symName: __ZNKSt3__122__compressed_pair_elemINS_9allocatorIN8pybind116handleEEELi1ELb1EE5__getB7v160006Ev, symObjAddr: 0x206C8, symBinAddr: 0x23F60, symSize: 0x14 }
  - { offsetInCU: 0x63AAE, offset: 0x6A8F0, size: 0x8, addend: 0x0, symName: __ZNSt3__117__compressed_pairIPN8pybind116handleENS_9allocatorIS2_EEE6secondB7v160006Ev, symObjAddr: 0x206DC, symBinAddr: 0x23F74, symSize: 0x24 }
  - { offsetInCU: 0x63AD3, offset: 0x6A915, size: 0x8, addend: 0x0, symName: __ZNSt3__122__compressed_pair_elemINS_9allocatorIN8pybind116handleEEELi1ELb1EE5__getB7v160006Ev, symObjAddr: 0x20700, symBinAddr: 0x23F98, symSize: 0x14 }
  - { offsetInCU: 0x63AF8, offset: 0x6A93A, size: 0x8, addend: 0x0, symName: __ZNSt3__114__split_bufferIN8pybind116handleERNS_9allocatorIS2_EEEC2EmmS5_, symObjAddr: 0x20714, symBinAddr: 0x23FAC, symSize: 0xD4 }
  - { offsetInCU: 0x63B6A, offset: 0x6A9AC, size: 0x8, addend: 0x0, symName: __ZNSt3__117__compressed_pairIPN8pybind116handleERNS_9allocatorIS2_EEEC1B7v160006IDnS6_EEOT_OT0_, symObjAddr: 0x207E8, symBinAddr: 0x24080, symSize: 0x3C }
  - { offsetInCU: 0x63BC1, offset: 0x6AA03, size: 0x8, addend: 0x0, symName: __ZNSt3__114__split_bufferIN8pybind116handleERNS_9allocatorIS2_EEE7__allocB7v160006Ev, symObjAddr: 0x20864, symBinAddr: 0x240FC, symSize: 0x28 }
  - { offsetInCU: 0x63BE6, offset: 0x6AA28, size: 0x8, addend: 0x0, symName: __ZNSt3__114__split_bufferIN8pybind116handleERNS_9allocatorIS2_EEE9__end_capB7v160006Ev, symObjAddr: 0x2088C, symBinAddr: 0x24124, symSize: 0x28 }
  - { offsetInCU: 0x63C0B, offset: 0x6AA4D, size: 0x8, addend: 0x0, symName: __ZNSt3__117__compressed_pairIPN8pybind116handleERNS_9allocatorIS2_EEEC2B7v160006IDnS6_EEOT_OT0_, symObjAddr: 0x208B4, symBinAddr: 0x2414C, symSize: 0x48 }
  - { offsetInCU: 0x63C62, offset: 0x6AAA4, size: 0x8, addend: 0x0, symName: __ZNSt3__122__compressed_pair_elemIRNS_9allocatorIN8pybind116handleEEELi1ELb0EEC2B7v160006IS5_vEEOT_, symObjAddr: 0x208FC, symBinAddr: 0x24194, symSize: 0x20 }
  - { offsetInCU: 0x63CA4, offset: 0x6AAE6, size: 0x8, addend: 0x0, symName: __ZNSt3__19allocatorIN8pybind116handleEE8allocateB7v160006Em, symObjAddr: 0x2091C, symBinAddr: 0x241B4, symSize: 0x58 }
  - { offsetInCU: 0x63CD7, offset: 0x6AB19, size: 0x8, addend: 0x0, symName: __ZNSt3__117__compressed_pairIPN8pybind116handleERNS_9allocatorIS2_EEE6secondB7v160006Ev, symObjAddr: 0x20974, symBinAddr: 0x2420C, symSize: 0x28 }
  - { offsetInCU: 0x63CFC, offset: 0x6AB3E, size: 0x8, addend: 0x0, symName: __ZNSt3__122__compressed_pair_elemIRNS_9allocatorIN8pybind116handleEEELi1ELb0EE5__getB7v160006Ev, symObjAddr: 0x2099C, symBinAddr: 0x24234, symSize: 0x18 }
  - { offsetInCU: 0x63D21, offset: 0x6AB63, size: 0x8, addend: 0x0, symName: __ZNSt3__117__compressed_pairIPN8pybind116handleERNS_9allocatorIS2_EEE5firstB7v160006Ev, symObjAddr: 0x209B4, symBinAddr: 0x2424C, symSize: 0x24 }
  - { offsetInCU: 0x63D46, offset: 0x6AB88, size: 0x8, addend: 0x0, symName: __ZNSt3__122__compressed_pair_elemIPN8pybind116handleELi0ELb0EE5__getB7v160006Ev, symObjAddr: 0x209D8, symBinAddr: 0x24270, symSize: 0x14 }
  - { offsetInCU: 0x63D6B, offset: 0x6ABAD, size: 0x8, addend: 0x0, symName: __ZNKSt3__16vectorIN8pybind116handleENS_9allocatorIS2_EEE17__annotate_deleteB7v160006Ev, symObjAddr: 0x209EC, symBinAddr: 0x24284, symSize: 0xB8 }
  - { offsetInCU: 0x63D90, offset: 0x6ABD2, size: 0x8, addend: 0x0, symName: __ZNSt3__116reverse_iteratorIPN8pybind116handleEEC1B7v160006ES3_, symObjAddr: 0x20B1C, symBinAddr: 0x243B4, symSize: 0x34 }
  - { offsetInCU: 0x63DC7, offset: 0x6AC09, size: 0x8, addend: 0x0, symName: __ZNKSt3__116reverse_iteratorIPN8pybind116handleEE4baseB7v160006Ev, symObjAddr: 0x20B50, symBinAddr: 0x243E8, symSize: 0x18 }
  - { offsetInCU: 0x63DEC, offset: 0x6AC2E, size: 0x8, addend: 0x0, symName: __ZNSt3__16vectorIN8pybind116handleENS_9allocatorIS2_EEE9__end_capB7v160006Ev, symObjAddr: 0x20BA4, symBinAddr: 0x2443C, symSize: 0x28 }
  - { offsetInCU: 0x63E11, offset: 0x6AC53, size: 0x8, addend: 0x0, symName: __ZNKSt3__16vectorIN8pybind116handleENS_9allocatorIS2_EEE14__annotate_newB7v160006Em, symObjAddr: 0x20BCC, symBinAddr: 0x24464, symSize: 0xAC }
  - { offsetInCU: 0x63E45, offset: 0x6AC87, size: 0x8, addend: 0x0, symName: __ZNKSt3__16vectorIN8pybind116handleENS_9allocatorIS2_EEE31__annotate_contiguous_containerB7v160006EPKvS7_S7_S7_, symObjAddr: 0x20C88, symBinAddr: 0x24520, symSize: 0x20 }
  - { offsetInCU: 0x63E9A, offset: 0x6ACDC, size: 0x8, addend: 0x0, symName: __ZNKSt3__16vectorIN8pybind116handleENS_9allocatorIS2_EEE4dataB7v160006Ev, symObjAddr: 0x20CA8, symBinAddr: 0x24540, symSize: 0x28 }
  - { offsetInCU: 0x63ED9, offset: 0x6AD1B, size: 0x8, addend: 0x0, symName: __ZNKSt3__111__move_loopINS_17_ClassicAlgPolicyEEclB7v160006INS_16reverse_iteratorIPN8pybind116handleEEES8_S8_EENS_4pairIT_T1_EESA_T0_SB_, symObjAddr: 0x20FD4, symBinAddr: 0x2486C, symSize: 0xA0 }
  - { offsetInCU: 0x63F43, offset: 0x6AD85, size: 0x8, addend: 0x0, symName: __ZNSt3__18_IterOpsINS_17_ClassicAlgPolicyEE11__iter_moveB7v160006IRNS_16reverse_iteratorIPN8pybind116handleEEEEENS_9enable_ifIXsr12is_referenceIDTdeclsr3stdE7declvalIRT_EEEEE5valueEDTclsr3stdE4movedeclsr3stdE7declvalISC_EEEEE4typeEOSB_, symObjAddr: 0x21208, symBinAddr: 0x24AA0, symSize: 0x28 }
  - { offsetInCU: 0x63F6F, offset: 0x6ADB1, size: 0x8, addend: 0x0, symName: __ZNKSt3__116reverse_iteratorIPN8pybind116handleEEdeB7v160006Ev, symObjAddr: 0x21230, symBinAddr: 0x24AC8, symSize: 0x28 }
  - { offsetInCU: 0x63FA2, offset: 0x6ADE4, size: 0x8, addend: 0x0, symName: __ZNSt3__116reverse_iteratorIPN8pybind116handleEEppB7v160006Ev, symObjAddr: 0x21258, symBinAddr: 0x24AF0, symSize: 0x20 }
  - { offsetInCU: 0x63FC7, offset: 0x6AE09, size: 0x8, addend: 0x0, symName: __ZNSt3__18_IterOpsINS_17_ClassicAlgPolicyEE25__validate_iter_referenceB7v160006IRNS_16reverse_iteratorIPN8pybind116handleEEEEEvv, symObjAddr: 0x21278, symBinAddr: 0x24B10, symSize: 0x4 }
  - { offsetInCU: 0x63FE5, offset: 0x6AE27, size: 0x8, addend: 0x0, symName: __ZNSt3__118__unwrap_iter_implINS_16reverse_iteratorIPN8pybind116handleEEELb0EE8__unwrapB7v160006ES5_, symObjAddr: 0x2127C, symBinAddr: 0x24B14, symSize: 0x24 }
  - { offsetInCU: 0x6400E, offset: 0x6AE50, size: 0x8, addend: 0x0, symName: __ZNSt3__14pairINS_16reverse_iteratorIPN8pybind116handleEEES5_EC1B7v160006IS5_S5_LPv0EEEOT_OT0_, symObjAddr: 0x212A0, symBinAddr: 0x24B38, symSize: 0x3C }
  - { offsetInCU: 0x6406B, offset: 0x6AEAD, size: 0x8, addend: 0x0, symName: __ZNSt3__14pairINS_16reverse_iteratorIPN8pybind116handleEEES5_EC2B7v160006IS5_S5_LPv0EEEOT_OT0_, symObjAddr: 0x212DC, symBinAddr: 0x24B74, symSize: 0x34 }
  - { offsetInCU: 0x640C8, offset: 0x6AF0A, size: 0x8, addend: 0x0, symName: __ZNSt3__118__unwrap_iter_implINS_16reverse_iteratorIPN8pybind116handleEEELb0EE8__rewrapB7v160006ES5_S5_, symObjAddr: 0x21310, symBinAddr: 0x24BA8, symSize: 0x2C }
  - { offsetInCU: 0x640F6, offset: 0x6AF38, size: 0x8, addend: 0x0, symName: __ZNSt3__116reverse_iteratorIPN8pybind116handleEEC2B7v160006ES3_, symObjAddr: 0x2133C, symBinAddr: 0x24BD4, symSize: 0x28 }
  - { offsetInCU: 0x6412D, offset: 0x6AF6F, size: 0x8, addend: 0x0, symName: __ZNSt3__117__compressed_pairIPN8pybind116handleENS_9allocatorIS2_EEE5firstB7v160006Ev, symObjAddr: 0x21364, symBinAddr: 0x24BFC, symSize: 0x24 }
  - { offsetInCU: 0x64152, offset: 0x6AF94, size: 0x8, addend: 0x0, symName: __ZNSt3__114__split_bufferIN8pybind116handleERNS_9allocatorIS2_EEED2Ev, symObjAddr: 0x21388, symBinAddr: 0x24C20, symSize: 0x8C }
  - { offsetInCU: 0x6417D, offset: 0x6AFBF, size: 0x8, addend: 0x0, symName: __ZNSt3__114__split_bufferIN8pybind116handleERNS_9allocatorIS2_EEE5clearB7v160006Ev, symObjAddr: 0x21414, symBinAddr: 0x24CAC, symSize: 0x28 }
  - { offsetInCU: 0x641A2, offset: 0x6AFE4, size: 0x8, addend: 0x0, symName: __ZNSt3__116allocator_traitsINS_9allocatorIN8pybind116handleEEEE10deallocateB7v160006ERS4_PS3_m, symObjAddr: 0x2143C, symBinAddr: 0x24CD4, symSize: 0x34 }
  - { offsetInCU: 0x641E4, offset: 0x6B026, size: 0x8, addend: 0x0, symName: __ZNKSt3__114__split_bufferIN8pybind116handleERNS_9allocatorIS2_EEE8capacityB7v160006Ev, symObjAddr: 0x21470, symBinAddr: 0x24D08, symSize: 0x40 }
  - { offsetInCU: 0x64209, offset: 0x6B04B, size: 0x8, addend: 0x0, symName: __ZNSt3__114__split_bufferIN8pybind116handleERNS_9allocatorIS2_EEE17__destruct_at_endB7v160006EPS2_, symObjAddr: 0x214B0, symBinAddr: 0x24D48, symSize: 0x2C }
  - { offsetInCU: 0x6423C, offset: 0x6B07E, size: 0x8, addend: 0x0, symName: __ZNSt3__114__split_bufferIN8pybind116handleERNS_9allocatorIS2_EEE17__destruct_at_endB7v160006EPS2_NS_17integral_constantIbLb0EEE, symObjAddr: 0x214DC, symBinAddr: 0x24D74, symSize: 0x80 }
  - { offsetInCU: 0x6427C, offset: 0x6B0BE, size: 0x8, addend: 0x0, symName: __ZNSt3__116allocator_traitsINS_9allocatorIN8pybind116handleEEEE7destroyB7v160006IS3_vEEvRS4_PT_, symObjAddr: 0x2155C, symBinAddr: 0x24DF4, symSize: 0x2C }
  - { offsetInCU: 0x642BA, offset: 0x6B0FC, size: 0x8, addend: 0x0, symName: __ZNSt3__19allocatorIN8pybind116handleEE7destroyB7v160006EPS2_, symObjAddr: 0x21588, symBinAddr: 0x24E20, symSize: 0x14 }
  - { offsetInCU: 0x642ED, offset: 0x6B12F, size: 0x8, addend: 0x0, symName: __ZNSt3__19allocatorIN8pybind116handleEE10deallocateB7v160006EPS2_m, symObjAddr: 0x2159C, symBinAddr: 0x24E34, symSize: 0x40 }
  - { offsetInCU: 0x6432E, offset: 0x6B170, size: 0x8, addend: 0x0, symName: __ZNKSt3__114__split_bufferIN8pybind116handleERNS_9allocatorIS2_EEE9__end_capB7v160006Ev, symObjAddr: 0x215DC, symBinAddr: 0x24E74, symSize: 0x28 }
  - { offsetInCU: 0x64353, offset: 0x6B195, size: 0x8, addend: 0x0, symName: __ZNKSt3__117__compressed_pairIPN8pybind116handleERNS_9allocatorIS2_EEE5firstB7v160006Ev, symObjAddr: 0x21604, symBinAddr: 0x24E9C, symSize: 0x24 }
  - { offsetInCU: 0x64378, offset: 0x6B1BA, size: 0x8, addend: 0x0, symName: __ZNKSt3__16vectorIbNS_9allocatorIbEEE8capacityB7v160006Ev, symObjAddr: 0x21628, symBinAddr: 0x24EC0, symSize: 0x2C }
  - { offsetInCU: 0x6439D, offset: 0x6B1DF, size: 0x8, addend: 0x0, symName: __ZNKSt3__16vectorIbNS_9allocatorIbEEE8max_sizeEv, symObjAddr: 0x21654, symBinAddr: 0x24EEC, symSize: 0x7C }
  - { offsetInCU: 0x643E2, offset: 0x6B224, size: 0x8, addend: 0x0, symName: __ZNKSt3__16vectorIbNS_9allocatorIbEEE20__throw_length_errorB7v160006Ev, symObjAddr: 0x216D0, symBinAddr: 0x24F68, symSize: 0x1C }
  - { offsetInCU: 0x64407, offset: 0x6B249, size: 0x8, addend: 0x0, symName: __ZNKSt3__16vectorIbNS_9allocatorIbEEE13get_allocatorB7v160006Ev, symObjAddr: 0x216EC, symBinAddr: 0x24F84, symSize: 0x30 }
  - { offsetInCU: 0x6442C, offset: 0x6B26E, size: 0x8, addend: 0x0, symName: __ZNSt3__16vectorIbNS_9allocatorIbEEEC1B7v160006ERKS2_, symObjAddr: 0x2171C, symBinAddr: 0x24FB4, symSize: 0x34 }
  - { offsetInCU: 0x64466, offset: 0x6B2A8, size: 0x8, addend: 0x0, symName: __ZNSt3__16vectorIbNS_9allocatorIbEEE11__vallocateB7v160006Em, symObjAddr: 0x21750, symBinAddr: 0x24FE8, symSize: 0xA0 }
  - { offsetInCU: 0x644A9, offset: 0x6B2EB, size: 0x8, addend: 0x0, symName: __ZNSt3__16vectorIbNS_9allocatorIbEEE18__construct_at_endINS_14__bit_iteratorIS3_Lb0ELm0EEEEENS_9enable_ifIXsr27__is_cpp17_forward_iteratorIT_EE5valueEvE4typeES8_S8_, symObjAddr: 0x217F0, symBinAddr: 0x25088, symSize: 0x154 }
  - { offsetInCU: 0x64508, offset: 0x6B34A, size: 0x8, addend: 0x0, symName: __ZNSt3__16vectorIbNS_9allocatorIbEEE5beginB7v160006Ev, symObjAddr: 0x21944, symBinAddr: 0x251DC, symSize: 0x30 }
  - { offsetInCU: 0x6452D, offset: 0x6B36F, size: 0x8, addend: 0x0, symName: __ZNSt3__16vectorIbNS_9allocatorIbEEE3endB7v160006Ev, symObjAddr: 0x21974, symBinAddr: 0x2520C, symSize: 0x30 }
  - { offsetInCU: 0x64552, offset: 0x6B394, size: 0x8, addend: 0x0, symName: __ZNSt3__16vectorIbNS_9allocatorIbEEE26__internal_cap_to_externalB7v160006Em, symObjAddr: 0x219B4, symBinAddr: 0x2524C, symSize: 0x18 }
  - { offsetInCU: 0x64576, offset: 0x6B3B8, size: 0x8, addend: 0x0, symName: __ZNKSt3__16vectorIbNS_9allocatorIbEEE5__capB7v160006Ev, symObjAddr: 0x219CC, symBinAddr: 0x25264, symSize: 0x28 }
  - { offsetInCU: 0x6459B, offset: 0x6B3DD, size: 0x8, addend: 0x0, symName: __ZNKSt3__117__compressed_pairImNS_9allocatorImEEE5firstB7v160006Ev, symObjAddr: 0x219F4, symBinAddr: 0x2528C, symSize: 0x24 }
  - { offsetInCU: 0x645CA, offset: 0x6B40C, size: 0x8, addend: 0x0, symName: __ZNSt3__116allocator_traitsINS_9allocatorImEEE8max_sizeB7v160006IS2_vEEmRKS2_, symObjAddr: 0x21A18, symBinAddr: 0x252B0, symSize: 0x24 }
  - { offsetInCU: 0x645F9, offset: 0x6B43B, size: 0x8, addend: 0x0, symName: __ZNKSt3__16vectorIbNS_9allocatorIbEEE7__allocB7v160006Ev, symObjAddr: 0x21A3C, symBinAddr: 0x252D4, symSize: 0x28 }
  - { offsetInCU: 0x6461E, offset: 0x6B460, size: 0x8, addend: 0x0, symName: __ZNSt3__114numeric_limitsImE3maxB7v160006Ev, symObjAddr: 0x21A64, symBinAddr: 0x252FC, symSize: 0x14 }
  - { offsetInCU: 0x64632, offset: 0x6B474, size: 0x8, addend: 0x0, symName: __ZNKSt3__19allocatorImE8max_sizeB7v160006Ev, symObjAddr: 0x21A78, symBinAddr: 0x25310, symSize: 0x14 }
  - { offsetInCU: 0x64657, offset: 0x6B499, size: 0x8, addend: 0x0, symName: __ZNKSt3__117__compressed_pairImNS_9allocatorImEEE6secondB7v160006Ev, symObjAddr: 0x21A8C, symBinAddr: 0x25324, symSize: 0x24 }
  - { offsetInCU: 0x6467C, offset: 0x6B4BE, size: 0x8, addend: 0x0, symName: __ZNKSt3__122__compressed_pair_elemINS_9allocatorImEELi1ELb1EE5__getB7v160006Ev, symObjAddr: 0x21AB0, symBinAddr: 0x25348, symSize: 0x14 }
  - { offsetInCU: 0x646A1, offset: 0x6B4E3, size: 0x8, addend: 0x0, symName: __ZNSt3__123__libcpp_numeric_limitsImLb1EE3maxB7v160006Ev, symObjAddr: 0x21AC4, symBinAddr: 0x2535C, symSize: 0x8 }
  - { offsetInCU: 0x646B5, offset: 0x6B4F7, size: 0x8, addend: 0x0, symName: __ZNSt3__19allocatorIbEC1B7v160006ImEERKNS0_IT_EE, symObjAddr: 0x21ACC, symBinAddr: 0x25364, symSize: 0x34 }
  - { offsetInCU: 0x646F2, offset: 0x6B534, size: 0x8, addend: 0x0, symName: __ZNSt3__19allocatorIbEC2B7v160006ImEERKNS0_IT_EE, symObjAddr: 0x21B00, symBinAddr: 0x25398, symSize: 0x30 }
  - { offsetInCU: 0x6472F, offset: 0x6B571, size: 0x8, addend: 0x0, symName: __ZNSt3__116__non_trivial_ifILb1ENS_9allocatorIbEEEC2B7v160006Ev, symObjAddr: 0x21B30, symBinAddr: 0x253C8, symSize: 0x14 }
  - { offsetInCU: 0x64758, offset: 0x6B59A, size: 0x8, addend: 0x0, symName: __ZNSt3__16vectorIbNS_9allocatorIbEEEC2B7v160006ERKS2_, symObjAddr: 0x21B44, symBinAddr: 0x253DC, symSize: 0x6C }
  - { offsetInCU: 0x64797, offset: 0x6B5D9, size: 0x8, addend: 0x0, symName: __ZNSt3__19allocatorImEC1B7v160006IbEERKNS0_IT_EE, symObjAddr: 0x21BB0, symBinAddr: 0x25448, symSize: 0x34 }
  - { offsetInCU: 0x647DA, offset: 0x6B61C, size: 0x8, addend: 0x0, symName: __ZNSt3__117__compressed_pairImNS_9allocatorImEEEC1B7v160006IiS2_EEOT_OT0_, symObjAddr: 0x21BE4, symBinAddr: 0x2547C, symSize: 0x3C }
  - { offsetInCU: 0x64831, offset: 0x6B673, size: 0x8, addend: 0x0, symName: __ZNSt3__19allocatorImEC2B7v160006IbEERKNS0_IT_EE, symObjAddr: 0x21C20, symBinAddr: 0x254B8, symSize: 0x30 }
  - { offsetInCU: 0x6486E, offset: 0x6B6B0, size: 0x8, addend: 0x0, symName: __ZNSt3__116__non_trivial_ifILb1ENS_9allocatorImEEEC2B7v160006Ev, symObjAddr: 0x21C50, symBinAddr: 0x254E8, symSize: 0x14 }
  - { offsetInCU: 0x64897, offset: 0x6B6D9, size: 0x8, addend: 0x0, symName: __ZNSt3__117__compressed_pairImNS_9allocatorImEEEC2B7v160006IiS2_EEOT_OT0_, symObjAddr: 0x21C64, symBinAddr: 0x254FC, symSize: 0x44 }
  - { offsetInCU: 0x648EE, offset: 0x6B730, size: 0x8, addend: 0x0, symName: __ZNSt3__122__compressed_pair_elemINS_9allocatorImEELi1ELb1EEC2B7v160006IS2_vEEOT_, symObjAddr: 0x21CA8, symBinAddr: 0x25540, symSize: 0x18 }
  - { offsetInCU: 0x64930, offset: 0x6B772, size: 0x8, addend: 0x0, symName: __ZNSt3__16vectorIbNS_9allocatorIbEEE7__allocB7v160006Ev, symObjAddr: 0x21D00, symBinAddr: 0x25598, symSize: 0x28 }
  - { offsetInCU: 0x64955, offset: 0x6B797, size: 0x8, addend: 0x0, symName: __ZNSt3__16vectorIbNS_9allocatorIbEEE26__external_cap_to_internalB7v160006Em, symObjAddr: 0x21D28, symBinAddr: 0x255C0, symSize: 0x24 }
  - { offsetInCU: 0x64979, offset: 0x6B7BB, size: 0x8, addend: 0x0, symName: __ZNSt3__16vectorIbNS_9allocatorIbEEE5__capB7v160006Ev, symObjAddr: 0x21D4C, symBinAddr: 0x255E4, symSize: 0x28 }
  - { offsetInCU: 0x6499E, offset: 0x6B7E0, size: 0x8, addend: 0x0, symName: __ZNSt3__19allocatorImE8allocateB7v160006Em, symObjAddr: 0x21D74, symBinAddr: 0x2560C, symSize: 0x58 }
  - { offsetInCU: 0x649D1, offset: 0x6B813, size: 0x8, addend: 0x0, symName: __ZNSt3__117__compressed_pairImNS_9allocatorImEEE6secondB7v160006Ev, symObjAddr: 0x21DCC, symBinAddr: 0x25664, symSize: 0x24 }
  - { offsetInCU: 0x649F6, offset: 0x6B838, size: 0x8, addend: 0x0, symName: __ZNSt3__122__compressed_pair_elemINS_9allocatorImEELi1ELb1EE5__getB7v160006Ev, symObjAddr: 0x21DF0, symBinAddr: 0x25688, symSize: 0x14 }
  - { offsetInCU: 0x64A1B, offset: 0x6B85D, size: 0x8, addend: 0x0, symName: __ZNSt3__117__compressed_pairImNS_9allocatorImEEE5firstB7v160006Ev, symObjAddr: 0x21E04, symBinAddr: 0x2569C, symSize: 0x24 }
  - { offsetInCU: 0x64A40, offset: 0x6B882, size: 0x8, addend: 0x0, symName: __ZNSt3__114__bit_iteratorINS_6vectorIbNS_9allocatorIbEEEELb0ELm0EEC1B7v160006ERKS5_, symObjAddr: 0x21E84, symBinAddr: 0x2571C, symSize: 0x34 }
  - { offsetInCU: 0x64A78, offset: 0x6B8BA, size: 0x8, addend: 0x0, symName: __ZNSt3__16vectorIbNS_9allocatorIbEEE11__make_iterB7v160006Em, symObjAddr: 0x21FA0, symBinAddr: 0x25838, symSize: 0x64 }
  - { offsetInCU: 0x64AAC, offset: 0x6B8EE, size: 0x8, addend: 0x0, symName: __ZNSt3__114__bit_iteratorINS_6vectorIbNS_9allocatorIbEEEELb0ELm0EEC2B7v160006ERKS5_, symObjAddr: 0x22084, symBinAddr: 0x2591C, symSize: 0x30 }
  - { offsetInCU: 0x64AEE, offset: 0x6B930, size: 0x8, addend: 0x0, symName: __ZNKSt3__16__lessIllEclB7v160006ERKlS3_, symObjAddr: 0x22944, symBinAddr: 0x261DC, symSize: 0x34 }
  - { offsetInCU: 0x64B53, offset: 0x6B995, size: 0x8, addend: 0x0, symName: __ZNKSt3__114__copy_trivialclB7v160006ImmLi0EEENS_4pairIPT_PT0_EES4_S4_S6_, symObjAddr: 0x22B54, symBinAddr: 0x263EC, symSize: 0x48 }
  - { offsetInCU: 0x64BC5, offset: 0x6BA07, size: 0x8, addend: 0x0, symName: __ZNSt3__14pairIPmS1_EC1B7v160006IRS1_S1_LPv0EEEOT_OT0_, symObjAddr: 0x22D1C, symBinAddr: 0x265B4, symSize: 0x3C }
  - { offsetInCU: 0x64C22, offset: 0x6BA64, size: 0x8, addend: 0x0, symName: __ZNSt3__14pairIPmS1_EC2B7v160006IRS1_S1_LPv0EEEOT_OT0_, symObjAddr: 0x22D58, symBinAddr: 0x265F0, symSize: 0x34 }
  - { offsetInCU: 0x64C7F, offset: 0x6BAC1, size: 0x8, addend: 0x0, symName: __ZNSt3__118__unwrap_iter_implIPmLb1EE8__unwrapB7v160006ES1_, symObjAddr: 0x22D8C, symBinAddr: 0x26624, symSize: 0x24 }
  - { offsetInCU: 0x64CA2, offset: 0x6BAE4, size: 0x8, addend: 0x0, symName: __ZNSt3__14pairIPmS1_EC1B7v160006IS1_S1_LPv0EEEOT_OT0_, symObjAddr: 0x22DB0, symBinAddr: 0x26648, symSize: 0x3C }
  - { offsetInCU: 0x64CFF, offset: 0x6BB41, size: 0x8, addend: 0x0, symName: __ZNSt3__14pairIPmS1_EC2B7v160006IS1_S1_LPv0EEEOT_OT0_, symObjAddr: 0x22DEC, symBinAddr: 0x26684, symSize: 0x34 }
  - { offsetInCU: 0x64D5C, offset: 0x6BB9E, size: 0x8, addend: 0x0, symName: __ZNSt3__118__unwrap_iter_implIPmLb1EE8__rewrapB7v160006ES1_S1_, symObjAddr: 0x22E20, symBinAddr: 0x266B8, symSize: 0x50 }
  - { offsetInCU: 0x64D8D, offset: 0x6BBCF, size: 0x8, addend: 0x0, symName: __ZNSt3__114__bit_iteratorINS_6vectorIbNS_9allocatorIbEEEELb0ELm0EEC1B7v160006EPmj, symObjAddr: 0x22E70, symBinAddr: 0x26708, symSize: 0x3C }
  - { offsetInCU: 0x64DD4, offset: 0x6BC16, size: 0x8, addend: 0x0, symName: __ZNSt3__114__bit_iteratorINS_6vectorIbNS_9allocatorIbEEEELb0ELm0EEC2B7v160006EPmj, symObjAddr: 0x22EAC, symBinAddr: 0x26744, symSize: 0x2C }
  - { offsetInCU: 0x64E1B, offset: 0x6BC5D, size: 0x8, addend: 0x0, symName: __ZNSt3__16vectorIN8pybind116handleENS_9allocatorIS2_EEED2B7v160006Ev, symObjAddr: 0x22ED8, symBinAddr: 0x26770, symSize: 0x44 }
  - { offsetInCU: 0x64E44, offset: 0x6BC86, size: 0x8, addend: 0x0, symName: __ZNSt3__16vectorIN8pybind116handleENS_9allocatorIS2_EEE16__destroy_vectorC1ERS5_, symObjAddr: 0x22F1C, symBinAddr: 0x267B4, symSize: 0x34 }
  - { offsetInCU: 0x64E7C, offset: 0x6BCBE, size: 0x8, addend: 0x0, symName: __ZNSt3__16vectorIN8pybind116handleENS_9allocatorIS2_EEE16__destroy_vectorclB7v160006Ev, symObjAddr: 0x22F50, symBinAddr: 0x267E8, symSize: 0x9C }
  - { offsetInCU: 0x64EA1, offset: 0x6BCE3, size: 0x8, addend: 0x0, symName: __ZNSt3__16vectorIN8pybind116handleENS_9allocatorIS2_EEE16__destroy_vectorC2ERS5_, symObjAddr: 0x22FEC, symBinAddr: 0x26884, symSize: 0x20 }
  - { offsetInCU: 0x64ED9, offset: 0x6BD1B, size: 0x8, addend: 0x0, symName: __ZNSt3__16vectorIN8pybind116handleENS_9allocatorIS2_EEE7__clearB7v160006Ev, symObjAddr: 0x2301C, symBinAddr: 0x268B4, symSize: 0x28 }
  - { offsetInCU: 0x64EFE, offset: 0x6BD40, size: 0x8, addend: 0x0, symName: __ZNSt3__16vectorIN8pybind116handleENS_9allocatorIS2_EEE22__base_destruct_at_endB7v160006EPS2_, symObjAddr: 0x23044, symBinAddr: 0x268DC, symSize: 0x8C }
  - { offsetInCU: 0x64F41, offset: 0x6BD83, size: 0x8, addend: 0x0, symName: __ZNK8pybind116detail16value_and_holder9value_ptrIvEERPT_v, symObjAddr: 0x230D0, symBinAddr: 0x26968, symSize: 0x18 }
  - { offsetInCU: 0x64F6B, offset: 0x6BDAD, size: 0x8, addend: 0x0, symName: __ZNSt3__16vectorIN8pybind116handleENS_9allocatorIS2_EEE22__construct_one_at_endB7v160006IJP7_objectEEEvDpOT_, symObjAddr: 0x230E8, symBinAddr: 0x26980, symSize: 0x90 }
  - { offsetInCU: 0x64FB9, offset: 0x6BDFB, size: 0x8, addend: 0x0, symName: __ZNSt3__16vectorIN8pybind116handleENS_9allocatorIS2_EEE24__emplace_back_slow_pathIJP7_objectEEEvDpOT_, symObjAddr: 0x23178, symBinAddr: 0x26A10, symSize: 0xD8 }
  - { offsetInCU: 0x65018, offset: 0x6BE5A, size: 0x8, addend: 0x0, symName: __ZNSt3__16vectorIN8pybind116handleENS_9allocatorIS2_EEE4backB7v160006Ev, symObjAddr: 0x23250, symBinAddr: 0x26AE8, symSize: 0x1C }
  - { offsetInCU: 0x65056, offset: 0x6BE98, size: 0x8, addend: 0x0, symName: __ZNSt3__16vectorIN8pybind116handleENS_9allocatorIS2_EEE21_ConstructTransactionC1B7v160006ERS5_m, symObjAddr: 0x2326C, symBinAddr: 0x26B04, symSize: 0x3C }
  - { offsetInCU: 0x6509D, offset: 0x6BEDF, size: 0x8, addend: 0x0, symName: __ZNSt3__116allocator_traitsINS_9allocatorIN8pybind116handleEEEE9constructB7v160006IS3_JP7_objectEvEEvRS4_PT_DpOT0_, symObjAddr: 0x232A8, symBinAddr: 0x26B40, symSize: 0x34 }
  - { offsetInCU: 0x650F5, offset: 0x6BF37, size: 0x8, addend: 0x0, symName: __ZNSt3__16vectorIN8pybind116handleENS_9allocatorIS2_EEE21_ConstructTransactionD1B7v160006Ev, symObjAddr: 0x232DC, symBinAddr: 0x26B74, symSize: 0x2C }
  - { offsetInCU: 0x6511E, offset: 0x6BF60, size: 0x8, addend: 0x0, symName: __ZNSt3__16vectorIN8pybind116handleENS_9allocatorIS2_EEE21_ConstructTransactionC2B7v160006ERS5_m, symObjAddr: 0x23308, symBinAddr: 0x26BA0, symSize: 0x44 }
  - { offsetInCU: 0x65165, offset: 0x6BFA7, size: 0x8, addend: 0x0, symName: __ZNSt3__19allocatorIN8pybind116handleEE9constructB7v160006IS2_JP7_objectEEEvPT_DpOT0_, symObjAddr: 0x2334C, symBinAddr: 0x26BE4, symSize: 0x34 }
  - { offsetInCU: 0x651BA, offset: 0x6BFFC, size: 0x8, addend: 0x0, symName: __ZNSt3__16vectorIN8pybind116handleENS_9allocatorIS2_EEE21_ConstructTransactionD2B7v160006Ev, symObjAddr: 0x23380, symBinAddr: 0x26C18, symSize: 0x20 }
  - { offsetInCU: 0x651E3, offset: 0x6C025, size: 0x8, addend: 0x0, symName: __ZNKSt3__16vectorIN8pybind116handleENS_9allocatorIS2_EEE11__recommendB7v160006Em, symObjAddr: 0x233A0, symBinAddr: 0x26C38, symSize: 0xB4 }
  - { offsetInCU: 0x65237, offset: 0x6C079, size: 0x8, addend: 0x0, symName: __ZNKSt3__16vectorIbNS_9allocatorIbEEE11__recommendB7v160006Em, symObjAddr: 0x23454, symBinAddr: 0x26CEC, symSize: 0xCC }
  - { offsetInCU: 0x6528B, offset: 0x6C0CD, size: 0x8, addend: 0x0, symName: __ZNSt3__16vectorIbNS_9allocatorIbEEE4backB7v160006Ev, symObjAddr: 0x23520, symBinAddr: 0x26DB8, symSize: 0x3C }
  - { offsetInCU: 0x652B0, offset: 0x6C0F2, size: 0x8, addend: 0x0, symName: __ZNSt3__115__bit_referenceINS_6vectorIbNS_9allocatorIbEEEELb1EEaSB7v160006Eb, symObjAddr: 0x2355C, symBinAddr: 0x26DF4, symSize: 0x6C }
  - { offsetInCU: 0x652E3, offset: 0x6C125, size: 0x8, addend: 0x0, symName: __ZNSt3__16vectorIbNS_9allocatorIbEEE10__align_itB7v160006Em, symObjAddr: 0x235C8, symBinAddr: 0x26E60, symSize: 0x1C }
  - { offsetInCU: 0x65307, offset: 0x6C149, size: 0x8, addend: 0x0, symName: __ZNSt3__16vectorIN8pybind116handleENS_9allocatorIS2_EEE22__construct_one_at_endB7v160006IJRKS2_EEEvDpOT_, symObjAddr: 0x235E4, symBinAddr: 0x26E7C, symSize: 0x90 }
  - { offsetInCU: 0x65355, offset: 0x6C197, size: 0x8, addend: 0x0, symName: __ZNSt3__16vectorIN8pybind116handleENS_9allocatorIS2_EEE21__push_back_slow_pathIRKS2_EEvOT_, symObjAddr: 0x23674, symBinAddr: 0x26F0C, symSize: 0xD8 }
  - { offsetInCU: 0x653B2, offset: 0x6C1F4, size: 0x8, addend: 0x0, symName: __ZNSt3__116allocator_traitsINS_9allocatorIN8pybind116handleEEEE9constructB7v160006IS3_JRKS3_EvEEvRS4_PT_DpOT0_, symObjAddr: 0x2374C, symBinAddr: 0x26FE4, symSize: 0x34 }
  - { offsetInCU: 0x6540A, offset: 0x6C24C, size: 0x8, addend: 0x0, symName: __ZNSt3__19allocatorIN8pybind116handleEE9constructB7v160006IS2_JRKS2_EEEvPT_DpOT0_, symObjAddr: 0x23780, symBinAddr: 0x27018, symSize: 0x28 }
  - { offsetInCU: 0x6545F, offset: 0x6C2A1, size: 0x8, addend: 0x0, symName: __ZN8pybind114dictC1ENS_6handleENS_6object10borrowed_tE, symObjAddr: 0x237A8, symBinAddr: 0x27040, symSize: 0x34 }
  - { offsetInCU: 0x654A3, offset: 0x6C2E5, size: 0x8, addend: 0x0, symName: __ZN8pybind114dictC2ENS_6handleENS_6object10borrowed_tE, symObjAddr: 0x237DC, symBinAddr: 0x27074, symSize: 0x3C }
  - { offsetInCU: 0x654E7, offset: 0x6C329, size: 0x8, addend: 0x0, symName: __ZN8pybind114dictC1ENS_6handleENS_6object8stolen_tE, symObjAddr: 0x23818, symBinAddr: 0x270B0, symSize: 0x34 }
  - { offsetInCU: 0x6552B, offset: 0x6C36D, size: 0x8, addend: 0x0, symName: __ZN8pybind114dictC2ENS_6handleENS_6object8stolen_tE, symObjAddr: 0x2384C, symBinAddr: 0x270E4, symSize: 0x3C }
  - { offsetInCU: 0x6556F, offset: 0x6C3B1, size: 0x8, addend: 0x0, symName: __ZN8pybind114dictD2Ev, symObjAddr: 0x23888, symBinAddr: 0x27120, symSize: 0x2C }
  - { offsetInCU: 0x6559B, offset: 0x6C3DD, size: 0x8, addend: 0x0, symName: __ZNSt3__16vectorIN8pybind116handleENS_9allocatorIS2_EEE22__construct_one_at_endB7v160006IJS2_EEEvDpOT_, symObjAddr: 0x238B4, symBinAddr: 0x2714C, symSize: 0x90 }
  - { offsetInCU: 0x655E9, offset: 0x6C42B, size: 0x8, addend: 0x0, symName: __ZNSt3__16vectorIN8pybind116handleENS_9allocatorIS2_EEE21__push_back_slow_pathIS2_EEvOT_, symObjAddr: 0x23944, symBinAddr: 0x271DC, symSize: 0xD8 }
  - { offsetInCU: 0x65646, offset: 0x6C488, size: 0x8, addend: 0x0, symName: __ZNSt3__116allocator_traitsINS_9allocatorIN8pybind116handleEEEE9constructB7v160006IS3_JS3_EvEEvRS4_PT_DpOT0_, symObjAddr: 0x23A1C, symBinAddr: 0x272B4, symSize: 0x34 }
  - { offsetInCU: 0x6569E, offset: 0x6C4E0, size: 0x8, addend: 0x0, symName: __ZNSt3__19allocatorIN8pybind116handleEE9constructB7v160006IS2_JS2_EEEvPT_DpOT0_, symObjAddr: 0x23A50, symBinAddr: 0x272E8, symSize: 0x28 }
  - { offsetInCU: 0x656F3, offset: 0x6C535, size: 0x8, addend: 0x0, symName: __ZNK8pybind114dict4sizeEv, symObjAddr: 0x23A78, symBinAddr: 0x27310, symSize: 0x28 }
  - { offsetInCU: 0x65718, offset: 0x6C55A, size: 0x8, addend: 0x0, symName: __ZN8pybind115tupleC2IlLi0EEET_, symObjAddr: 0x23AA0, symBinAddr: 0x27338, symSize: 0xA0 }
  - { offsetInCU: 0x6575F, offset: 0x6C5A1, size: 0x8, addend: 0x0, symName: __ZN8pybind115tupleC1ENS_6handleENS_6object10borrowed_tE, symObjAddr: 0x23B58, symBinAddr: 0x273F0, symSize: 0x34 }
  - { offsetInCU: 0x657A3, offset: 0x6C5E5, size: 0x8, addend: 0x0, symName: __ZN8pybind115tupleC2ENS_6handleENS_6object10borrowed_tE, symObjAddr: 0x23B8C, symBinAddr: 0x27424, symSize: 0x3C }
  - { offsetInCU: 0x657E7, offset: 0x6C629, size: 0x8, addend: 0x0, symName: __ZN8pybind115tupleC2IiLi0EEET_, symObjAddr: 0x23BC8, symBinAddr: 0x27460, symSize: 0xA0 }
  - { offsetInCU: 0x6582E, offset: 0x6C670, size: 0x8, addend: 0x0, symName: __ZN8pybind116detail8accessorINS0_17accessor_policies10tuple_itemEEC1ENS_6handleEm, symObjAddr: 0x23C80, symBinAddr: 0x27518, symSize: 0x3C }
  - { offsetInCU: 0x65875, offset: 0x6C6B7, size: 0x8, addend: 0x0, symName: __ZN8pybind116detail8accessorINS0_17accessor_policies10tuple_itemEEC2ENS_6handleEm, symObjAddr: 0x23CBC, symBinAddr: 0x27554, symSize: 0x48 }
  - { offsetInCU: 0x658BC, offset: 0x6C6FE, size: 0x8, addend: 0x0, symName: __ZN8pybind116detail17accessor_policies10tuple_item3setImLi0EEEvNS_6handleERKT_S4_, symObjAddr: 0x23D04, symBinAddr: 0x2759C, symSize: 0xCC }
  - { offsetInCU: 0x6590D, offset: 0x6C74F, size: 0x8, addend: 0x0, symName: __ZN8pybind116detail8accessorINS0_17accessor_policies10tuple_itemEED2Ev, symObjAddr: 0x23DFC, symBinAddr: 0x27694, symSize: 0x30 }
  - { offsetInCU: 0x65937, offset: 0x6C779, size: 0x8, addend: 0x0, symName: __ZN8pybind114dictC2Ev, symObjAddr: 0x23E2C, symBinAddr: 0x276C4, symSize: 0x94 }
  - { offsetInCU: 0x65960, offset: 0x6C7A2, size: 0x8, addend: 0x0, symName: __ZNSt3__16vectorIbNS_9allocatorIbEEEC2B7v160006Ev, symObjAddr: 0x23EC0, symBinAddr: 0x27758, symSize: 0x4C }
  - { offsetInCU: 0x6598B, offset: 0x6C7CD, size: 0x8, addend: 0x0, symName: __ZNSt3__117__compressed_pairImNS_9allocatorImEEEC1B7v160006IiNS_18__default_init_tagEEEOT_OT0_, symObjAddr: 0x23F0C, symBinAddr: 0x277A4, symSize: 0x3C }
  - { offsetInCU: 0x659E2, offset: 0x6C824, size: 0x8, addend: 0x0, symName: __ZNSt3__117__compressed_pairImNS_9allocatorImEEEC2B7v160006IiNS_18__default_init_tagEEEOT_OT0_, symObjAddr: 0x23F48, symBinAddr: 0x277E0, symSize: 0x40 }
  - { offsetInCU: 0x65A39, offset: 0x6C87B, size: 0x8, addend: 0x0, symName: __ZNSt3__122__compressed_pair_elemINS_9allocatorImEELi1ELb1EEC2B7v160006ENS_18__default_init_tagE, symObjAddr: 0x23F88, symBinAddr: 0x27820, symSize: 0x2C }
