---
triple:          'arm64-apple-darwin'
binary-path:     mujoco_renderer.cpython-39-darwin.so
relocations:
  - { offsetInCU: 0x44, offset: 0x44, size: 0x8, addend: 0x0, symName: __ZN5EigenL4lastE, symObjAddr: 0x19724B, symBinAddr: 0x74830, symSize: 0x0 }
  - { offsetInCU: 0x54E8, offset: 0x54E8, size: 0x8, addend: 0x0, symName: __ZN5Eigen8internal31conditional_aligned_delete_autoIdLb1EEEvPT_m, symObjAddr: 0x3598, symBinAddr: 0x70A0, symSize: 0x28 }
  - { offsetInCU: 0x5534, offset: 0x5534, size: 0x8, addend: 0x0, symName: __ZN5Eigen8internal24conditional_aligned_freeILb1EEEvPv, symObjAddr: 0x35C0, symBinAddr: 0x70C8, symSize: 0x24 }
  - { offsetInCU: 0x5568, offset: 0x5568, size: 0x8, addend: 0x0, symName: __ZN5Eigen8internal12aligned_freeEPv, symObjAddr: 0x35E4, symBinAddr: 0x70EC, symSize: 0x24 }
  - { offsetInCU: 0x55F4, offset: 0x55F4, size: 0x8, addend: 0x0, symName: __ZN5Eigen8internal19throw_std_bad_allocEv, symObjAddr: 0x56A0, symBinAddr: 0x91A8, symSize: 0x34 }
  - { offsetInCU: 0x5630, offset: 0x5630, size: 0x8, addend: 0x0, symName: __ZN5Eigen8internal28conditional_aligned_new_autoIdLb1EEEPT_m, symObjAddr: 0x56D4, symBinAddr: 0x91DC, symSize: 0x84 }
  - { offsetInCU: 0x569E, offset: 0x569E, size: 0x8, addend: 0x0, symName: __ZN5Eigen8internal26conditional_aligned_mallocILb1EEEPvm, symObjAddr: 0x5758, symBinAddr: 0x9260, symSize: 0x24 }
  - { offsetInCU: 0x56D4, offset: 0x56D4, size: 0x8, addend: 0x0, symName: __ZN5Eigen8internal14aligned_mallocEm, symObjAddr: 0x577C, symBinAddr: 0x9284, symSize: 0xDC }
  - { offsetInCU: 0x5715, offset: 0x5715, size: 0x8, addend: 0x0, symName: __ZN5Eigen8internal28check_that_malloc_is_allowedEv, symObjAddr: 0x5858, symBinAddr: 0x9360, symSize: 0x4 }
  - { offsetInCU: 0x5758, offset: 0x5758, size: 0x8, addend: 0x0, symName: __ZN5Eigen8internal28check_static_allocation_sizeIdLi3EEEvv, symObjAddr: 0x65A8, symBinAddr: 0xA0B0, symSize: 0x4 }
  - { offsetInCU: 0x5785, offset: 0x5785, size: 0x8, addend: 0x0, symName: __ZN5Eigen8internal15call_assignmentINS_5BlockINS_6MatrixIdLin1ELin1ELi0ELin1ELin1EEELi1ELin1ELb0EEENS3_IdLi3ELi1ELi0ELi3ELi1EEEEEvRT_RKT0_, symObjAddr: 0x668C, symBinAddr: 0xA194, symSize: 0x50 }
  - { offsetInCU: 0x57D0, offset: 0x57D0, size: 0x8, addend: 0x0, symName: __ZN5Eigen8internal15call_assignmentINS_5BlockINS_6MatrixIdLin1ELin1ELi0ELin1ELin1EEELi1ELin1ELb0EEENS3_IdLi3ELi1ELi0ELi3ELi1EEENS0_9assign_opIddEEEEvRT_RKT0_RKT1_NS0_9enable_ifIXntsr25evaluator_assume_aliasingISB_EE5valueEPvE4typeE, symObjAddr: 0x66F0, symBinAddr: 0xA1F8, symSize: 0x38 }
  - { offsetInCU: 0x583E, offset: 0x583E, size: 0x8, addend: 0x0, symName: __ZN5Eigen8internal24call_assignment_no_aliasINS_5BlockINS_6MatrixIdLin1ELin1ELi0ELin1ELin1EEELi1ELin1ELb0EEENS3_IdLi3ELi1ELi0ELi3ELi1EEENS0_9assign_opIddEEEEvRT_RKT0_RKT1_, symObjAddr: 0x6754, symBinAddr: 0xA25C, symSize: 0x44 }
  - { offsetInCU: 0x5916, offset: 0x5916, size: 0x8, addend: 0x0, symName: __ZN5Eigen8internal18check_for_aliasingINS_9TransposeINS_5BlockINS_6MatrixIdLin1ELin1ELi0ELin1ELin1EEELi1ELin1ELb0EEEEENS4_IdLi3ELi1ELi0ELi3ELi1EEEEEvRKT_RKT0_, symObjAddr: 0x68B8, symBinAddr: 0xA3C0, symSize: 0x14 }
  - { offsetInCU: 0x5961, offset: 0x5961, size: 0x8, addend: 0x0, symName: __ZN5Eigen8internal26call_dense_assignment_loopINS_9TransposeINS_5BlockINS_6MatrixIdLin1ELin1ELi0ELin1ELin1EEELi1ELin1ELb0EEEEENS4_IdLi3ELi1ELi0ELi3ELi1EEENS0_9assign_opIddEEEEvRT_RKT0_RKT1_, symObjAddr: 0x68CC, symBinAddr: 0xA3D4, symSize: 0xE0 }
  - { offsetInCU: 0x5A15, offset: 0x5A15, size: 0x8, addend: 0x0, symName: __ZN5Eigen8internal17resize_if_allowedINS_9TransposeINS_5BlockINS_6MatrixIdLin1ELin1ELi0ELin1ELin1EEELi1ELin1ELb0EEEEENS4_IdLi3ELi1ELi0ELi3ELi1EEEddEEvRT_RKT0_RKNS0_9assign_opIT1_T2_EE, symObjAddr: 0x69E0, symBinAddr: 0xA4E8, symSize: 0xF8 }
  - { offsetInCU: 0x5F20, offset: 0x5F20, size: 0x8, addend: 0x0, symName: __ZN5Eigen8internal22ignore_unused_variableIlEEvRKT_, symObjAddr: 0x6DB4, symBinAddr: 0xA8BC, symSize: 0x10 }
  - { offsetInCU: 0x5F4F, offset: 0x5F4F, size: 0x8, addend: 0x0, symName: __ZN5Eigen8internal24call_assignment_no_aliasINS_6MatrixIdLin1ELi1ELi0ELin1ELi1EEENS_14CwiseNullaryOpINS0_18scalar_constant_opIdEES3_EENS0_9assign_opIddEEEEvRT_RKT0_RKT1_, symObjAddr: 0x9C80, symBinAddr: 0xD788, symSize: 0x3C }
  - { offsetInCU: 0x601D, offset: 0x601D, size: 0x8, addend: 0x0, symName: __ZN5Eigen8internal18check_for_aliasingINS_6MatrixIdLin1ELi1ELi0ELin1ELi1EEENS_14CwiseNullaryOpINS0_18scalar_constant_opIdEES3_EEEEvRKT_RKT0_, symObjAddr: 0x9D10, symBinAddr: 0xD818, symSize: 0x14 }
  - { offsetInCU: 0x6068, offset: 0x6068, size: 0x8, addend: 0x0, symName: __ZN5Eigen8internal26call_dense_assignment_loopINS_6MatrixIdLin1ELi1ELi0ELin1ELi1EEEEEvRT_RKNS_14CwiseNullaryOpINS0_18scalar_constant_opINS4_6ScalarEEES4_EERKNS0_9assign_opIS8_S8_EE, symObjAddr: 0x9D24, symBinAddr: 0xD82C, symSize: 0x6C }
  - { offsetInCU: 0x60B9, offset: 0x60B9, size: 0x8, addend: 0x0, symName: __ZN5Eigen8internal17resize_if_allowedINS_6MatrixIdLin1ELi1ELi0ELin1ELi1EEENS_14CwiseNullaryOpINS0_18scalar_constant_opIdEES3_EEddEEvRT_RKT0_RKNS0_9assign_opIT1_T2_EE, symObjAddr: 0x9D90, symBinAddr: 0xD898, symSize: 0xF8 }
  - { offsetInCU: 0x613F, offset: 0x613F, size: 0x8, addend: 0x0, symName: __ZN5Eigen8internal24call_assignment_no_aliasINS_6MatrixIdLi3ELi1ELi0ELi3ELi1EEENS_5BlockINS2_IdLin1ELin1ELi0ELin1ELin1EEELi1ELin1ELb0EEENS0_9assign_opIddEEEEvRT_RKT0_RKT1_, symObjAddr: 0xA3E0, symBinAddr: 0xDEE8, symSize: 0x44 }
  - { offsetInCU: 0x620D, offset: 0x620D, size: 0x8, addend: 0x0, symName: __ZN5Eigen8internal18check_for_aliasingINS_9TransposeINS_6MatrixIdLi3ELi1ELi0ELi3ELi1EEEEENS_5BlockINS3_IdLin1ELin1ELi0ELin1ELin1EEELi1ELin1ELb0EEEEEvRKT_RKT0_, symObjAddr: 0xA550, symBinAddr: 0xE058, symSize: 0x14 }
  - { offsetInCU: 0x6258, offset: 0x6258, size: 0x8, addend: 0x0, symName: __ZN5Eigen8internal26call_dense_assignment_loopINS_9TransposeINS_6MatrixIdLi3ELi1ELi0ELi3ELi1EEEEENS_5BlockINS3_IdLin1ELin1ELi0ELin1ELin1EEELi1ELin1ELb0EEENS0_9assign_opIddEEEEvRT_RKT0_RKT1_, symObjAddr: 0xA564, symBinAddr: 0xE06C, symSize: 0xE0 }
  - { offsetInCU: 0x630C, offset: 0x630C, size: 0x8, addend: 0x0, symName: __ZN5Eigen8internal17resize_if_allowedINS_9TransposeINS_6MatrixIdLi3ELi1ELi0ELi3ELi1EEEEENS_5BlockINS3_IdLin1ELin1ELi0ELin1ELin1EEELi1ELin1ELb0EEEddEEvRT_RKT0_RKNS0_9assign_opIT1_T2_EE, symObjAddr: 0xA644, symBinAddr: 0xE14C, symSize: 0xF8 }
  - { offsetInCU: 0x68EA, offset: 0x68EA, size: 0x8, addend: 0x0, symName: __ZN5Eigen8internal6preduxI19__simd128_float64_tEENS0_15unpacket_traitsIT_E4typeERKS4_, symObjAddr: 0xBA64, symBinAddr: 0xF56C, symSize: 0x50 }
  - { offsetInCU: 0x6921, offset: 0x6921, size: 0x8, addend: 0x0, symName: __ZN5Eigen8internal4pmulI19__simd128_float64_tEET_RKS3_S5_, symObjAddr: 0xBBFC, symBinAddr: 0xF704, symSize: 0x40 }
  - { offsetInCU: 0x69B8, offset: 0x69B8, size: 0x8, addend: 0x0, symName: __ZN5Eigen8internal4psubI19__simd128_float64_tEET_RKS3_S5_, symObjAddr: 0xBCE0, symBinAddr: 0xF7E8, symSize: 0x40 }
  - { offsetInCU: 0x69FE, offset: 0x69FE, size: 0x8, addend: 0x0, symName: __ZN5Eigen8internal6ploaduI19__simd128_float64_tEET_PKNS0_15unpacket_traitsIS3_E4typeE, symObjAddr: 0xBD34, symBinAddr: 0xF83C, symSize: 0x28 }
  - { offsetInCU: 0x6AC8, offset: 0x6AC8, size: 0x8, addend: 0x0, symName: __ZN5Eigen8internal24call_assignment_no_aliasINS_6MatrixIdLin1ELin1ELi0ELin1ELin1EEENS_14CwiseNullaryOpINS0_18scalar_constant_opIdEES3_EENS0_9assign_opIddEEEEvRT_RKT0_RKT1_, symObjAddr: 0xD2A8, symBinAddr: 0x10DB0, symSize: 0x3C }
  - { offsetInCU: 0x6B96, offset: 0x6B96, size: 0x8, addend: 0x0, symName: __ZN5Eigen8internal18check_for_aliasingINS_6MatrixIdLin1ELin1ELi0ELin1ELin1EEENS_14CwiseNullaryOpINS0_18scalar_constant_opIdEES3_EEEEvRKT_RKT0_, symObjAddr: 0xD324, symBinAddr: 0x10E2C, symSize: 0x60 }
  - { offsetInCU: 0x6BE1, offset: 0x6BE1, size: 0x8, addend: 0x0, symName: __ZN5Eigen8internal26call_dense_assignment_loopINS_6MatrixIdLin1ELin1ELi0ELin1ELin1EEEEEvRT_RKNS_14CwiseNullaryOpINS0_18scalar_constant_opINS4_6ScalarEEES4_EERKNS0_9assign_opIS8_S8_EE, symObjAddr: 0xD384, symBinAddr: 0x10E8C, symSize: 0x6C }
  - { offsetInCU: 0x6C70, offset: 0x6C70, size: 0x8, addend: 0x0, symName: __ZN5Eigen8internal17resize_if_allowedINS_6MatrixIdLin1ELin1ELi0ELin1ELin1EEENS_14CwiseNullaryOpINS0_18scalar_constant_opIdEES3_EEddEEvRT_RKT0_RKNS0_9assign_opIT1_T2_EE, symObjAddr: 0xD404, symBinAddr: 0x10F0C, symSize: 0xF8 }
  - { offsetInCU: 0x6CF6, offset: 0x6CF6, size: 0x8, addend: 0x0, symName: __ZN5Eigen8internal24call_assignment_no_aliasINS_6MatrixIdLi3ELi1ELi0ELi3ELi1EEENS_5BlockIKNS2_IdLin1ELin1ELi0ELin1ELin1EEELi1ELin1ELb0EEENS0_9assign_opIddEEEEvRT_RKT0_RKT1_, symObjAddr: 0xE270, symBinAddr: 0x11D78, symSize: 0x44 }
  - { offsetInCU: 0x6DC4, offset: 0x6DC4, size: 0x8, addend: 0x0, symName: __ZN5Eigen8internal18check_for_aliasingINS_9TransposeINS_6MatrixIdLi3ELi1ELi0ELi3ELi1EEEEENS_5BlockIKNS3_IdLin1ELin1ELi0ELin1ELin1EEELi1ELin1ELb0EEEEEvRKT_RKT0_, symObjAddr: 0xE2F4, symBinAddr: 0x11DFC, symSize: 0x14 }
  - { offsetInCU: 0x6E0F, offset: 0x6E0F, size: 0x8, addend: 0x0, symName: __ZN5Eigen8internal26call_dense_assignment_loopINS_9TransposeINS_6MatrixIdLi3ELi1ELi0ELi3ELi1EEEEENS_5BlockIKNS3_IdLin1ELin1ELi0ELin1ELin1EEELi1ELin1ELb0EEENS0_9assign_opIddEEEEvRT_RKT0_RKT1_, symObjAddr: 0xE308, symBinAddr: 0x11E10, symSize: 0xD8 }
  - { offsetInCU: 0x6F73, offset: 0x6F73, size: 0x8, addend: 0x0, symName: __ZN5Eigen8internal17resize_if_allowedINS_9TransposeINS_6MatrixIdLi3ELi1ELi0ELi3ELi1EEEEENS_5BlockIKNS3_IdLin1ELin1ELi0ELin1ELin1EEELi1ELin1ELb0EEEddEEvRT_RKT0_RKNS0_9assign_opIT1_T2_EE, symObjAddr: 0xE414, symBinAddr: 0x11F1C, symSize: 0xF8 }
  - { offsetInCU: 0x732B, offset: 0x732B, size: 0x8, addend: 0x0, symName: __ZN5Eigen8internal24call_assignment_no_aliasINS_6MatrixIdLi3ELi1ELi0ELi3ELi1EEENS_13CwiseBinaryOpINS0_20scalar_difference_opIddEEKS3_S7_EENS0_9assign_opIddEEEEvRT_RKT0_RKT1_, symObjAddr: 0xEBF4, symBinAddr: 0x126FC, symSize: 0x3C }
  - { offsetInCU: 0x73F9, offset: 0x73F9, size: 0x8, addend: 0x0, symName: __ZN5Eigen8internal18check_for_aliasingINS_6MatrixIdLi3ELi1ELi0ELi3ELi1EEENS_13CwiseBinaryOpINS0_20scalar_difference_opIddEEKS3_S7_EEEEvRKT_RKT0_, symObjAddr: 0xEC70, symBinAddr: 0x12778, symSize: 0x14 }
  - { offsetInCU: 0x7444, offset: 0x7444, size: 0x8, addend: 0x0, symName: __ZN5Eigen8internal26call_dense_assignment_loopINS_6MatrixIdLi3ELi1ELi0ELi3ELi1EEENS_13CwiseBinaryOpINS0_20scalar_difference_opIddEEKS3_S7_EENS0_9assign_opIddEEEEvRT_RKT0_RKT1_, symObjAddr: 0xEC84, symBinAddr: 0x1278C, symSize: 0xE0 }
  - { offsetInCU: 0x74F8, offset: 0x74F8, size: 0x8, addend: 0x0, symName: __ZN5Eigen8internal17resize_if_allowedINS_6MatrixIdLi3ELi1ELi0ELi3ELi1EEENS_13CwiseBinaryOpINS0_20scalar_difference_opIddEEKS3_S7_EEddEEvRT_RKT0_RKNS0_9assign_opIT1_T2_EE, symObjAddr: 0xED98, symBinAddr: 0x128A0, symSize: 0xF8 }
  - { offsetInCU: 0x7634, offset: 0x7634, size: 0x8, addend: 0x0, symName: __ZN5Eigen8internal7pstoreuId19__simd128_float64_tEEvPT_RKT0_, symObjAddr: 0xF1A0, symBinAddr: 0x12CA8, symSize: 0x2C }
  - { offsetInCU: 0x76FE, offset: 0x76FE, size: 0x8, addend: 0x0, symName: __ZN5Eigen8internal28check_static_allocation_sizeIdLi2EEEvv, symObjAddr: 0xF66C, symBinAddr: 0x13174, symSize: 0x4 }
  - { offsetInCU: 0x772B, offset: 0x772B, size: 0x8, addend: 0x0, symName: __ZN5Eigen8internal24call_assignment_no_aliasINS_6MatrixIdLi3ELi1ELi0ELi3ELi1EEENS_13CwiseBinaryOpINS0_13scalar_sum_opIddEEKS3_KNS4_INS0_17scalar_product_opIddEEKNS_14CwiseNullaryOpINS0_18scalar_constant_opIdEES7_EEKNS4_INS0_20scalar_difference_opIddEES7_S7_EEEEEENS0_9assign_opIddEEEEvRT_RKT0_RKT1_, symObjAddr: 0x106CC, symBinAddr: 0x141D4, symSize: 0x3C }
  - { offsetInCU: 0x77F9, offset: 0x77F9, size: 0x8, addend: 0x0, symName: __ZN5Eigen8internal18check_for_aliasingINS_6MatrixIdLi3ELi1ELi0ELi3ELi1EEENS_13CwiseBinaryOpINS0_13scalar_sum_opIddEEKS3_KNS4_INS0_17scalar_product_opIddEEKNS_14CwiseNullaryOpINS0_18scalar_constant_opIdEES7_EEKNS4_INS0_20scalar_difference_opIddEES7_S7_EEEEEEEEvRKT_RKT0_, symObjAddr: 0x10748, symBinAddr: 0x14250, symSize: 0x14 }
  - { offsetInCU: 0x7844, offset: 0x7844, size: 0x8, addend: 0x0, symName: __ZN5Eigen8internal26call_dense_assignment_loopINS_6MatrixIdLi3ELi1ELi0ELi3ELi1EEENS_13CwiseBinaryOpINS0_13scalar_sum_opIddEEKS3_KNS4_INS0_17scalar_product_opIddEEKNS_14CwiseNullaryOpINS0_18scalar_constant_opIdEES7_EEKNS4_INS0_20scalar_difference_opIddEES7_S7_EEEEEENS0_9assign_opIddEEEEvRT_RKT0_RKT1_, symObjAddr: 0x1075C, symBinAddr: 0x14264, symSize: 0xD8 }
  - { offsetInCU: 0x78F9, offset: 0x78F9, size: 0x8, addend: 0x0, symName: __ZN5Eigen8internal17resize_if_allowedINS_6MatrixIdLi3ELi1ELi0ELi3ELi1EEENS_13CwiseBinaryOpINS0_13scalar_sum_opIddEEKS3_KNS4_INS0_17scalar_product_opIddEEKNS_14CwiseNullaryOpINS0_18scalar_constant_opIdEES7_EEKNS4_INS0_20scalar_difference_opIddEES7_S7_EEEEEEddEEvRT_RKT0_RKNS0_9assign_opIT1_T2_EE, symObjAddr: 0x10868, symBinAddr: 0x14370, symSize: 0xF8 }
  - { offsetInCU: 0x79F3, offset: 0x79F3, size: 0x8, addend: 0x0, symName: __ZN5Eigen8internal4paddI19__simd128_float64_tEET_RKS3_S5_, symObjAddr: 0x112CC, symBinAddr: 0x14DD4, symSize: 0x40 }
  - { offsetInCU: 0x7A39, offset: 0x7A39, size: 0x8, addend: 0x0, symName: __ZN5Eigen8internal5pset1I19__simd128_float64_tEET_RKNS0_15unpacket_traitsIS3_E4typeE, symObjAddr: 0x113E0, symBinAddr: 0x14EE8, symSize: 0x44 }
  - { offsetInCU: 0x7BFF, offset: 0x7BFF, size: 0x8, addend: 0x0, symName: __ZN5EigenL6lastp1E, symObjAddr: 0x19724C, symBinAddr: 0x74831, symSize: 0x0 }
  - { offsetInCU: 0x7C18, offset: 0x7C18, size: 0x8, addend: 0x0, symName: __ZN5EigenL3allE, symObjAddr: 0x19724F, symBinAddr: 0x74834, symSize: 0x0 }
  - { offsetInCU: 0x7C31, offset: 0x7C31, size: 0x8, addend: 0x0, symName: __ZN5EigenL3fixILi1EEE, symObjAddr: 0x19724E, symBinAddr: 0x74833, symSize: 0x0 }
  - { offsetInCU: 0x272DC, offset: 0x272DC, size: 0x8, addend: 0x0, symName: __ZN5Eigen6numext4swapIPdEEvRT_S4_, symObjAddr: 0x5904, symBinAddr: 0x940C, symSize: 0x2C }
  - { offsetInCU: 0x2731E, offset: 0x2731E, size: 0x8, addend: 0x0, symName: __ZN5Eigen6numext4swapIlEEvRT_S3_, symObjAddr: 0x5930, symBinAddr: 0x9438, symSize: 0x2C }
  - { offsetInCU: 0x27360, offset: 0x27360, size: 0x8, addend: 0x0, symName: __ZN5Eigen6numext4realIdEENS_8internal11real_retvalINS2_36global_math_functions_filtering_baseIT_vE4typeEE4typeERKS5_, symObjAddr: 0xAE78, symBinAddr: 0xE980, symSize: 0x24 }
  - { offsetInCU: 0x27397, offset: 0x27397, size: 0x8, addend: 0x0, symName: __ZN5Eigen6numext4abs2IdEENS_8internal11abs2_retvalINS2_36global_math_functions_filtering_baseIT_vE4typeEE4typeERKS5_, symObjAddr: 0xBE80, symBinAddr: 0xF988, symSize: 0x24 }
  - { offsetInCU: 0x273CF, offset: 0x273CF, size: 0x8, addend: 0x0, symName: __ZN5EigenmlIdEEKNS_13CwiseBinaryOpINS_8internal17scalar_product_opINS2_18promote_scalar_argIdT_Xsr5Eigen8internal14has_ReturnTypeINS_20ScalarBinaryOpTraitsIS5_dNS3_IS5_dEEEEEE5valueEE4typeEdEEKNS2_19plain_constant_typeINS1_INS2_20scalar_difference_opIddEEKNS_6MatrixIdLi3ELi1ELi0ELi3ELi1EEESH_EESA_E4typeEKSI_EERKS5_RKNS_10MatrixBaseISI_EE, symObjAddr: 0x3188, symBinAddr: 0x6C90, symSize: 0x9C }
  - { offsetInCU: 0x2FC1D, offset: 0x2FC1D, size: 0x8, addend: 0x0, symName: __ZNSt3__124__put_character_sequenceB7v160006IcNS_11char_traitsIcEEEERNS_13basic_ostreamIT_T0_EES7_PKS4_m, symObjAddr: 0x4A88, symBinAddr: 0x8590, symSize: 0x1EC }
  - { offsetInCU: 0x32617, offset: 0x32617, size: 0x8, addend: 0x0, symName: __ZNSt3__1lsB7v160006INS_11char_traitsIcEEEERNS_13basic_ostreamIcT_EES6_PKc, symObjAddr: 0xF68, symBinAddr: 0x4A70, symSize: 0x48 }
  - { offsetInCU: 0x3265D, offset: 0x3265D, size: 0x8, addend: 0x0, symName: __ZNSt3__14endlB7v160006IcNS_11char_traitsIcEEEERNS_13basic_ostreamIT_T0_EES7_, symObjAddr: 0xFDC, symBinAddr: 0x4AE4, symSize: 0x58 }
  - { offsetInCU: 0x32FB5, offset: 0x32FB5, size: 0x8, addend: 0x0, symName: __ZNSt3__13getB7v160006ILm0EidEEONS_13tuple_elementIXT_ENS_4pairIT0_T1_EEE4typeEOS5_, symObjAddr: 0x2158, symBinAddr: 0x5C60, symSize: 0x24 }
  - { offsetInCU: 0x32FFF, offset: 0x32FFF, size: 0x8, addend: 0x0, symName: __ZNSt3__13getB7v160006ILm1EidEEONS_13tuple_elementIXT_ENS_4pairIT0_T1_EEE4typeEOS5_, symObjAddr: 0x217C, symBinAddr: 0x5C84, symSize: 0x24 }
  - { offsetInCU: 0x334DD, offset: 0x334DD, size: 0x8, addend: 0x0, symName: __ZNSt3__119__debug_db_insert_cB7v160006INS_12basic_stringIcNS_11char_traitsIcEENS_9allocatorIcEEEEEEvPT_, symObjAddr: 0x3A90, symBinAddr: 0x7598, symSize: 0x10 }
  - { offsetInCU: 0x3350E, offset: 0x3350E, size: 0x8, addend: 0x0, symName: __ZNSt3__118__constexpr_strlenB7v160006EPKc, symObjAddr: 0x3B5C, symBinAddr: 0x7664, symSize: 0x24 }
  - { offsetInCU: 0x3353B, offset: 0x3353B, size: 0x8, addend: 0x0, symName: __ZNSt3__112__to_addressB7v160006IKcEEPT_S3_, symObjAddr: 0x3C7C, symBinAddr: 0x7784, symSize: 0x14 }
  - { offsetInCU: 0x335A3, offset: 0x335A3, size: 0x8, addend: 0x0, symName: __ZNSt3__110__str_findB7v160006IcmNS_11char_traitsIcEELm18446744073709551615EEET0_PKT_S3_S6_S3_S3_, symObjAddr: 0x3DB8, symBinAddr: 0x78C0, symSize: 0xE4 }
  - { offsetInCU: 0x3364A, offset: 0x3364A, size: 0x8, addend: 0x0, symName: __ZNSt3__118__search_substringB7v160006IcNS_11char_traitsIcEEEEPKT_S5_S5_S5_S5_, symObjAddr: 0x3EF0, symBinAddr: 0x79F8, symSize: 0x154 }
  - { offsetInCU: 0x336E4, offset: 0x336E4, size: 0x8, addend: 0x0, symName: __ZNSt3__123__constexpr_char_memchrB7v160006EPKcim, symObjAddr: 0x4120, symBinAddr: 0x7C28, symSize: 0x34 }
  - { offsetInCU: 0x3372C, offset: 0x3372C, size: 0x8, addend: 0x0, symName: __ZNSt3__118__constexpr_memcmpB7v160006IcEEiPKT_S3_m, symObjAddr: 0x4154, symBinAddr: 0x7C5C, symSize: 0x34 }
  - { offsetInCU: 0x3377D, offset: 0x3377D, size: 0x8, addend: 0x0, symName: __ZNSt3__119__debug_db_insert_cB7v160006INS_6vectorINS1_IN5Eigen6MatrixIdLi3ELi1ELi0ELi3ELi1EEENS_9allocatorIS4_EEEENS5_IS7_EEEEEEvPT_, symObjAddr: 0x4394, symBinAddr: 0x7E9C, symSize: 0x10 }
  - { offsetInCU: 0x337AE, offset: 0x337AE, size: 0x8, addend: 0x0, symName: __ZNSt3__118__debug_db_erase_cB7v160006INS_6vectorINS1_IN5Eigen6MatrixIdLi3ELi1ELi0ELi3ELi1EEENS_9allocatorIS4_EEEENS5_IS7_EEEEEEvPT_, symObjAddr: 0x4674, symBinAddr: 0x817C, symSize: 0x10 }
  - { offsetInCU: 0x337E0, offset: 0x337E0, size: 0x8, addend: 0x0, symName: __ZNSt3__112__to_addressB7v160006INS_6vectorIN5Eigen6MatrixIdLi3ELi1ELi0ELi3ELi1EEENS_9allocatorIS4_EEEEEEPT_S9_, symObjAddr: 0x4790, symBinAddr: 0x8298, symSize: 0x14 }
  - { offsetInCU: 0x33815, offset: 0x33815, size: 0x8, addend: 0x0, symName: __ZNSt3__119__libcpp_deallocateB7v160006EPvmm, symObjAddr: 0x48C8, symBinAddr: 0x83D0, symSize: 0x60 }
  - { offsetInCU: 0x3387A, offset: 0x3387A, size: 0x8, addend: 0x0, symName: __ZNSt3__124__is_overaligned_for_newB7v160006Em, symObjAddr: 0x4928, symBinAddr: 0x8430, symSize: 0x20 }
  - { offsetInCU: 0x338A8, offset: 0x338A8, size: 0x8, addend: 0x0, symName: __ZNSt3__127__do_deallocate_handle_sizeB7v160006IJSt11align_val_tEEEvPvmDpT_, symObjAddr: 0x4948, symBinAddr: 0x8450, symSize: 0x30 }
  - { offsetInCU: 0x338FB, offset: 0x338FB, size: 0x8, addend: 0x0, symName: __ZNSt3__127__do_deallocate_handle_sizeB7v160006IJEEEvPvmDpT_, symObjAddr: 0x4978, symBinAddr: 0x8480, symSize: 0x28 }
  - { offsetInCU: 0x3393A, offset: 0x3393A, size: 0x8, addend: 0x0, symName: __ZNSt3__124__libcpp_operator_deleteB7v160006IJPvSt11align_val_tEEEvDpT_, symObjAddr: 0x49A0, symBinAddr: 0x84A8, symSize: 0x2C }
  - { offsetInCU: 0x33983, offset: 0x33983, size: 0x8, addend: 0x0, symName: __ZNSt3__124__libcpp_operator_deleteB7v160006IJPvEEEvDpT_, symObjAddr: 0x49CC, symBinAddr: 0x84D4, symSize: 0x24 }
  - { offsetInCU: 0x339B8, offset: 0x339B8, size: 0x8, addend: 0x0, symName: __ZNSt3__116__pad_and_outputB7v160006IcNS_11char_traitsIcEEEENS_19ostreambuf_iteratorIT_T0_EES6_PKS4_S8_S8_RNS_8ios_baseES4_, symObjAddr: 0x4C90, symBinAddr: 0x8798, symSize: 0x240 }
  - { offsetInCU: 0x33A88, offset: 0x33A88, size: 0x8, addend: 0x0, symName: __ZNSt3__112__to_addressB7v160006IcEEPT_S2_, symObjAddr: 0x5108, symBinAddr: 0x8C10, symSize: 0x14 }
  - { offsetInCU: 0x33AF0, offset: 0x33AF0, size: 0x8, addend: 0x0, symName: __ZNSt3__19use_facetB7v160006INS_5ctypeIcEEEERKT_RKNS_6localeE, symObjAddr: 0x5348, symBinAddr: 0x8E50, symSize: 0x2C }
  - { offsetInCU: 0x33FC0, offset: 0x33FC0, size: 0x8, addend: 0x0, symName: __ZNSt3__14swapB7v160006IPdEENS_9enable_ifIXaasr21is_move_constructibleIT_EE5valuesr18is_move_assignableIS3_EE5valueEvE4typeERS3_S6_, symObjAddr: 0x595C, symBinAddr: 0x9464, symSize: 0x3C }
  - { offsetInCU: 0x34012, offset: 0x34012, size: 0x8, addend: 0x0, symName: __ZNSt3__14swapB7v160006IlEENS_9enable_ifIXaasr21is_move_constructibleIT_EE5valuesr18is_move_assignableIS2_EE5valueEvE4typeERS2_S5_, symObjAddr: 0x5998, symBinAddr: 0x94A0, symSize: 0x3C }
  - { offsetInCU: 0x34063, offset: 0x34063, size: 0x8, addend: 0x0, symName: __ZNSt3__118__debug_db_erase_cB7v160006INS_6vectorIdNS_9allocatorIdEEEEEEvPT_, symObjAddr: 0x5BC0, symBinAddr: 0x96C8, symSize: 0x10 }
  - { offsetInCU: 0x34095, offset: 0x34095, size: 0x8, addend: 0x0, symName: __ZNSt3__112__to_addressB7v160006IdEEPT_S2_, symObjAddr: 0x5CDC, symBinAddr: 0x97E4, symSize: 0x14 }
  - { offsetInCU: 0x340CA, offset: 0x340CA, size: 0x8, addend: 0x0, symName: __ZNSt3__119__debug_db_insert_cB7v160006INS_6vectorIdNS_9allocatorIdEEEEEEvPT_, symObjAddr: 0x7860, symBinAddr: 0xB368, symSize: 0x10 }
  - { offsetInCU: 0x340FB, offset: 0x340FB, size: 0x8, addend: 0x0, symName: __ZNSt3__13maxB7v160006ImEERKT_S3_S3_, symObjAddr: 0x83EC, symBinAddr: 0xBEF4, symSize: 0x2C }
  - { offsetInCU: 0x3413E, offset: 0x3413E, size: 0x8, addend: 0x0, symName: __ZNSt3__13minB7v160006ImEERKT_S3_S3_, symObjAddr: 0x8418, symBinAddr: 0xBF20, symSize: 0x2C }
  - { offsetInCU: 0x3436D, offset: 0x3436D, size: 0x8, addend: 0x0, symName: __ZNSt3__13minB7v160006ImNS_6__lessImmEEEERKT_S5_S5_T0_, symObjAddr: 0x84A4, symBinAddr: 0xBFAC, symSize: 0x54 }
  - { offsetInCU: 0x34403, offset: 0x34403, size: 0x8, addend: 0x0, symName: __ZNSt3__120__throw_length_errorB7v160006EPKc, symObjAddr: 0x8580, symBinAddr: 0xC088, symSize: 0x64 }
  - { offsetInCU: 0x3442B, offset: 0x3442B, size: 0x8, addend: 0x0, symName: __ZNSt3__13maxB7v160006ImNS_6__lessImmEEEERKT_S5_S5_T0_, symObjAddr: 0x8664, symBinAddr: 0xC16C, symSize: 0x54 }
  - { offsetInCU: 0x34485, offset: 0x34485, size: 0x8, addend: 0x0, symName: __ZNSt3__119__allocate_at_leastB7v160006INS_9allocatorIdEEEENS_19__allocation_resultINS_16allocator_traitsIT_E7pointerEEERS5_m, symObjAddr: 0x87C8, symBinAddr: 0xC2D0, symSize: 0x40 }
  - { offsetInCU: 0x344C8, offset: 0x344C8, size: 0x8, addend: 0x0, symName: __ZNSt3__117__libcpp_allocateB7v160006Emm, symObjAddr: 0x894C, symBinAddr: 0xC454, symSize: 0x60 }
  - { offsetInCU: 0x34522, offset: 0x34522, size: 0x8, addend: 0x0, symName: __ZNSt3__121__libcpp_operator_newB7v160006IJmSt11align_val_tEEEPvDpT_, symObjAddr: 0x89AC, symBinAddr: 0xC4B4, symSize: 0x2C }
  - { offsetInCU: 0x3456F, offset: 0x3456F, size: 0x8, addend: 0x0, symName: __ZNSt3__121__libcpp_operator_newB7v160006IJmEEEPvDpT_, symObjAddr: 0x89D8, symBinAddr: 0xC4E0, symSize: 0x24 }
  - { offsetInCU: 0x345A8, offset: 0x345A8, size: 0x8, addend: 0x0, symName: __ZNSt3__142__uninitialized_allocator_move_if_noexceptB7v160006INS_9allocatorIdEENS_16reverse_iteratorIPdEES5_dvEET1_RT_T0_S9_S6_, symObjAddr: 0x8A60, symBinAddr: 0xC568, symSize: 0x78 }
  - { offsetInCU: 0x34625, offset: 0x34625, size: 0x8, addend: 0x0, symName: __ZNSt3__125__debug_db_invalidate_allB7v160006INS_6vectorIdNS_9allocatorIdEEEEEEvPT_, symObjAddr: 0x8BD0, symBinAddr: 0xC6D8, symSize: 0x10 }
  - { offsetInCU: 0x34656, offset: 0x34656, size: 0x8, addend: 0x0, symName: __ZNSt3__14moveB7v160006INS_16reverse_iteratorIPdEES3_EET0_T_S5_S4_, symObjAddr: 0x8BE0, symBinAddr: 0xC6E8, symSize: 0x78 }
  - { offsetInCU: 0x346B0, offset: 0x346B0, size: 0x8, addend: 0x0, symName: __ZNSt3__16__moveB7v160006INS_17_ClassicAlgPolicyENS_16reverse_iteratorIPdEES4_S4_EENS_4pairIT0_T2_EES6_T1_S7_, symObjAddr: 0x8C58, symBinAddr: 0xC760, symSize: 0x64 }
  - { offsetInCU: 0x3471C, offset: 0x3471C, size: 0x8, addend: 0x0, symName: __ZNSt3__123__dispatch_copy_or_moveB7v160006INS_17_ClassicAlgPolicyENS_11__move_loopIS1_EENS_14__move_trivialENS_16reverse_iteratorIPdEES7_S7_EENS_4pairIT2_T4_EES9_T3_SA_, symObjAddr: 0x8CBC, symBinAddr: 0xC7C4, symSize: 0x64 }
  - { offsetInCU: 0x3479A, offset: 0x3479A, size: 0x8, addend: 0x0, symName: __ZNSt3__121__unwrap_and_dispatchB7v160006INS_10__overloadINS_11__move_loopINS_17_ClassicAlgPolicyEEENS_14__move_trivialEEENS_16reverse_iteratorIPdEES9_S9_Li0EEENS_4pairIT0_T2_EESB_T1_SC_, symObjAddr: 0x8D20, symBinAddr: 0xC828, symSize: 0x12C }
  - { offsetInCU: 0x3482A, offset: 0x3482A, size: 0x8, addend: 0x0, symName: __ZNSt3__114__unwrap_rangeB7v160006INS_16reverse_iteratorIPdEES3_EENS_4pairIT0_S5_EET_S7_, symObjAddr: 0x8E4C, symBinAddr: 0xC954, symSize: 0x84 }
  - { offsetInCU: 0x349E4, offset: 0x349E4, size: 0x8, addend: 0x0, symName: __ZNSt3__113__unwrap_iterB7v160006INS_16reverse_iteratorIPdEENS_18__unwrap_iter_implIS3_Lb0EEELi0EEEDTclsrT0_8__unwrapclsr3stdE7declvalIT_EEEES7_, symObjAddr: 0x8F70, symBinAddr: 0xCA78, symSize: 0x44 }
  - { offsetInCU: 0x34A28, offset: 0x34A28, size: 0x8, addend: 0x0, symName: __ZNSt3__19make_pairB7v160006INS_16reverse_iteratorIPdEES3_EENS_4pairINS_18__unwrap_ref_decayIT_E4typeENS5_IT0_E4typeEEEOS6_OS9_, symObjAddr: 0x8FB4, symBinAddr: 0xCABC, symSize: 0x38 }
  - { offsetInCU: 0x34A77, offset: 0x34A77, size: 0x8, addend: 0x0, symName: __ZNSt3__114__rewrap_rangeB7v160006INS_16reverse_iteratorIPdEES3_EET_S4_T0_, symObjAddr: 0x8FEC, symBinAddr: 0xCAF4, symSize: 0x5C }
  - { offsetInCU: 0x34AC3, offset: 0x34AC3, size: 0x8, addend: 0x0, symName: __ZNSt3__113__rewrap_iterB7v160006INS_16reverse_iteratorIPdEES3_NS_18__unwrap_iter_implIS3_Lb0EEEEET_S6_T0_, symObjAddr: 0x9048, symBinAddr: 0xCB50, symSize: 0x74 }
  - { offsetInCU: 0x34B18, offset: 0x34B18, size: 0x8, addend: 0x0, symName: __ZNSt3__1neB7v160006IPdS1_EEbRKNS_16reverse_iteratorIT_EERKNS2_IT0_EE, symObjAddr: 0x90BC, symBinAddr: 0xCBC4, symSize: 0x48 }
  - { offsetInCU: 0x34C49, offset: 0x34C49, size: 0x8, addend: 0x0, symName: __ZNSt3__16fill_nB7v160006IPdldEET_S2_T0_RKT1_, symObjAddr: 0x9E88, symBinAddr: 0xD990, symSize: 0x44 }
  - { offsetInCU: 0x34CAD, offset: 0x34CAD, size: 0x8, addend: 0x0, symName: __ZNSt3__18__fill_nB7v160006IPdldEET_S2_T0_RKT1_, symObjAddr: 0x9FD8, symBinAddr: 0xDAE0, symSize: 0x64 }
  - { offsetInCU: 0x34D11, offset: 0x34D11, size: 0x8, addend: 0x0, symName: __ZNSt3__121__convert_to_integralB7v160006El, symObjAddr: 0xA03C, symBinAddr: 0xDB44, symSize: 0x14 }
  - { offsetInCU: 0x34D3D, offset: 0x34D3D, size: 0x8, addend: 0x0, symName: __ZNSt3__1miB7v160006IPKN5Eigen6MatrixIdLi3ELi1ELi0ELi3ELi1EEES5_EEDTmicldtfp_4baseEcldtfp0_4baseEERKNS_11__wrap_iterIT_EERKNS7_IT0_EE, symObjAddr: 0xC224, symBinAddr: 0xFD2C, symSize: 0x48 }
  - { offsetInCU: 0x34D89, offset: 0x34D89, size: 0x8, addend: 0x0, symName: __ZNSt3__14moveB7v160006IPN5Eigen6MatrixIdLi3ELi1ELi0ELi3ELi1EEES4_EET0_T_S6_S5_, symObjAddr: 0xC2F8, symBinAddr: 0xFE00, symSize: 0x40 }
  - { offsetInCU: 0x34DE4, offset: 0x34DE4, size: 0x8, addend: 0x0, symName: __ZNSt3__112__to_addressB7v160006IN5Eigen6MatrixIdLi3ELi1ELi0ELi3ELi1EEEEEPT_S5_, symObjAddr: 0xC5D8, symBinAddr: 0x100E0, symSize: 0x14 }
  - { offsetInCU: 0x34E19, offset: 0x34E19, size: 0x8, addend: 0x0, symName: __ZNSt3__16__moveB7v160006INS_17_ClassicAlgPolicyEPN5Eigen6MatrixIdLi3ELi1ELi0ELi3ELi1EEES5_S5_EENS_4pairIT0_T2_EES7_T1_S8_, symObjAddr: 0xC720, symBinAddr: 0x10228, symSize: 0x44 }
  - { offsetInCU: 0x34E85, offset: 0x34E85, size: 0x8, addend: 0x0, symName: __ZNSt3__123__dispatch_copy_or_moveB7v160006INS_17_ClassicAlgPolicyENS_11__move_loopIS1_EENS_14__move_trivialEPN5Eigen6MatrixIdLi3ELi1ELi0ELi3ELi1EEES8_S8_EENS_4pairIT2_T4_EESA_T3_SB_, symObjAddr: 0xC764, symBinAddr: 0x1026C, symSize: 0x44 }
  - { offsetInCU: 0x34F03, offset: 0x34F03, size: 0x8, addend: 0x0, symName: __ZNSt3__121__unwrap_and_dispatchB7v160006INS_10__overloadINS_11__move_loopINS_17_ClassicAlgPolicyEEENS_14__move_trivialEEEPN5Eigen6MatrixIdLi3ELi1ELi0ELi3ELi1EEESA_SA_Li0EEENS_4pairIT0_T2_EESC_T1_SD_, symObjAddr: 0xC7A8, symBinAddr: 0x102B0, symSize: 0xB4 }
  - { offsetInCU: 0x34F91, offset: 0x34F91, size: 0x8, addend: 0x0, symName: __ZNSt3__114__unwrap_rangeB7v160006IPN5Eigen6MatrixIdLi3ELi1ELi0ELi3ELi1EEES4_EENS_4pairIT0_S6_EET_S8_, symObjAddr: 0xC85C, symBinAddr: 0x10364, symSize: 0x60 }
  - { offsetInCU: 0x350B1, offset: 0x350B1, size: 0x8, addend: 0x0, symName: __ZNSt3__113__unwrap_iterB7v160006IPN5Eigen6MatrixIdLi3ELi1ELi0ELi3ELi1EEENS_18__unwrap_iter_implIS4_Lb1EEELi0EEEDTclsrT0_8__unwrapclsr3stdE7declvalIT_EEEES8_, symObjAddr: 0xC94C, symBinAddr: 0x10454, symSize: 0x24 }
  - { offsetInCU: 0x350F5, offset: 0x350F5, size: 0x8, addend: 0x0, symName: __ZNSt3__19make_pairB7v160006IPN5Eigen6MatrixIdLi3ELi1ELi0ELi3ELi1EEES4_EENS_4pairINS_18__unwrap_ref_decayIT_E4typeENS6_IT0_E4typeEEEOS7_OSA_, symObjAddr: 0xC970, symBinAddr: 0x10478, symSize: 0x38 }
  - { offsetInCU: 0x35144, offset: 0x35144, size: 0x8, addend: 0x0, symName: __ZNSt3__114__rewrap_rangeB7v160006IPN5Eigen6MatrixIdLi3ELi1ELi0ELi3ELi1EEES4_EET_S5_T0_, symObjAddr: 0xC9A8, symBinAddr: 0x104B0, symSize: 0x2C }
  - { offsetInCU: 0x35190, offset: 0x35190, size: 0x8, addend: 0x0, symName: __ZNSt3__113__rewrap_iterB7v160006IPN5Eigen6MatrixIdLi3ELi1ELi0ELi3ELi1EEES4_NS_18__unwrap_iter_implIS4_Lb1EEEEET_S7_T0_, symObjAddr: 0xC9D4, symBinAddr: 0x104DC, symSize: 0x3C }
  - { offsetInCU: 0x3525C, offset: 0x3525C, size: 0x8, addend: 0x0, symName: __ZNSt3__125__debug_db_invalidate_allB7v160006INS_6vectorINS1_IN5Eigen6MatrixIdLi3ELi1ELi0ELi3ELi1EEENS_9allocatorIS4_EEEENS5_IS7_EEEEEEvPT_, symObjAddr: 0xF830, symBinAddr: 0x13338, symSize: 0x10 }
  - { offsetInCU: 0x3528D, offset: 0x3528D, size: 0x8, addend: 0x0, symName: __ZNSt3__119__debug_db_insert_cB7v160006INS_6vectorIN5Eigen6MatrixIdLi3ELi1ELi0ELi3ELi1EEENS_9allocatorIS4_EEEEEEvPT_, symObjAddr: 0xF8D4, symBinAddr: 0x133DC, symSize: 0x10 }
  - { offsetInCU: 0x352BE, offset: 0x352BE, size: 0x8, addend: 0x0, symName: __ZNSt3__118__debug_db_erase_cB7v160006INS_6vectorIN5Eigen6MatrixIdLi3ELi1ELi0ELi3ELi1EEENS_9allocatorIS4_EEEEEEvPT_, symObjAddr: 0xFBB4, symBinAddr: 0x136BC, symSize: 0x10 }
  - { offsetInCU: 0x352EF, offset: 0x352EF, size: 0x8, addend: 0x0, symName: __ZNSt3__119__allocate_at_leastB7v160006INS_9allocatorIN5Eigen6MatrixIdLi3ELi1ELi0ELi3ELi1EEEEEEENS_19__allocation_resultINS_16allocator_traitsIT_E7pointerEEERS8_m, symObjAddr: 0x12090, symBinAddr: 0x15B98, symSize: 0x40 }
  - { offsetInCU: 0x35332, offset: 0x35332, size: 0x8, addend: 0x0, symName: __ZNSt3__142__uninitialized_allocator_move_if_noexceptB7v160006INS_9allocatorIN5Eigen6MatrixIdLi3ELi1ELi0ELi3ELi1EEEEENS_16reverse_iteratorIPS4_EES8_S8_EET2_RT_T0_T1_S9_, symObjAddr: 0x12248, symBinAddr: 0x15D50, symSize: 0x12C }
  - { offsetInCU: 0x353D3, offset: 0x353D3, size: 0x8, addend: 0x0, symName: __ZNSt3__14swapB7v160006IPN5Eigen6MatrixIdLi3ELi1ELi0ELi3ELi1EEEEENS_9enable_ifIXaasr21is_move_constructibleIT_EE5valuesr18is_move_assignableIS6_EE5valueEvE4typeERS6_S9_, symObjAddr: 0x123C0, symBinAddr: 0x15EC8, symSize: 0x3C }
  - { offsetInCU: 0x35424, offset: 0x35424, size: 0x8, addend: 0x0, symName: __ZNSt3__125__debug_db_invalidate_allB7v160006INS_6vectorIN5Eigen6MatrixIdLi3ELi1ELi0ELi3ELi1EEENS_9allocatorIS4_EEEEEEvPT_, symObjAddr: 0x124C4, symBinAddr: 0x15FCC, symSize: 0x10 }
  - { offsetInCU: 0x35455, offset: 0x35455, size: 0x8, addend: 0x0, symName: __ZNSt3__122__make_exception_guardB7v160006INS_29_AllocatorDestroyRangeReverseINS_9allocatorIN5Eigen6MatrixIdLi3ELi1ELi0ELi3ELi1EEEEENS_16reverse_iteratorIPS5_EEEEEENS_28__exception_guard_exceptionsIT_EESC_, symObjAddr: 0x124D4, symBinAddr: 0x15FDC, symSize: 0x4C }
  - { offsetInCU: 0x3548B, offset: 0x3548B, size: 0x8, addend: 0x0, symName: __ZNSt3__1neB7v160006IPN5Eigen6MatrixIdLi3ELi1ELi0ELi3ELi1EEES4_EEbRKNS_16reverse_iteratorIT_EERKNS5_IT0_EE, symObjAddr: 0x12564, symBinAddr: 0x1606C, symSize: 0x48 }
  - { offsetInCU: 0x354D7, offset: 0x354D7, size: 0x8, addend: 0x0, symName: __ZNSt3__112__to_addressB7v160006INS_16reverse_iteratorIPN5Eigen6MatrixIdLi3ELi1ELi0ELi3ELi1EEEEEvEENS_5decayIDTclsr19__to_address_helperIT_EE6__callclsr3stdE7declvalIRKS8_EEEEE4typeESA_, symObjAddr: 0x125E0, symBinAddr: 0x160E8, symSize: 0x24 }
  - { offsetInCU: 0x35537, offset: 0x35537, size: 0x8, addend: 0x0, symName: __ZNSt3__119__allocator_destroyB7v160006INS_9allocatorIN5Eigen6MatrixIdLi3ELi1ELi0ELi3ELi1EEEEENS_16reverse_iteratorINS6_IPS4_EEEES9_EEvRT_T0_T1_, symObjAddr: 0x12978, symBinAddr: 0x16480, symSize: 0x70 }
  - { offsetInCU: 0x3559C, offset: 0x3559C, size: 0x8, addend: 0x0, symName: __ZNSt3__1neB7v160006INS_16reverse_iteratorIPN5Eigen6MatrixIdLi3ELi1ELi0ELi3ELi1EEEEES6_EEbRKNS1_IT_EERKNS1_IT0_EE, symObjAddr: 0x12A24, symBinAddr: 0x1652C, symSize: 0x60 }
  - { offsetInCU: 0x355E8, offset: 0x355E8, size: 0x8, addend: 0x0, symName: __ZNSt3__112__to_addressB7v160006INS_16reverse_iteratorINS1_IPN5Eigen6MatrixIdLi3ELi1ELi0ELi3ELi1EEEEEEEvEENS_5decayIDTclsr19__to_address_helperIT_EE6__callclsr3stdE7declvalIRKS9_EEEEE4typeESB_, symObjAddr: 0x12A84, symBinAddr: 0x1658C, symSize: 0x24 }
  - { offsetInCU: 0x35648, offset: 0x35648, size: 0x8, addend: 0x0, symName: __ZNSt3__122__make_exception_guardB7v160006INS_6vectorIN5Eigen6MatrixIdLi3ELi1ELi0ELi3ELi1EEENS_9allocatorIS4_EEE16__destroy_vectorEEENS_28__exception_guard_exceptionsIT_EESA_, symObjAddr: 0x1325C, symBinAddr: 0x16D64, symSize: 0x40 }
  - { offsetInCU: 0x3567D, offset: 0x3567D, size: 0x8, addend: 0x0, symName: __ZNSt3__130__uninitialized_allocator_copyB7v160006INS_9allocatorIN5Eigen6MatrixIdLi3ELi1ELi0ELi3ELi1EEEEEPS4_S6_S6_EET2_RT_T0_T1_S7_, symObjAddr: 0x134D8, symBinAddr: 0x16FE0, symSize: 0xF4 }
  - { offsetInCU: 0x3571B, offset: 0x3571B, size: 0x8, addend: 0x0, symName: __ZNSt3__122__make_exception_guardB7v160006INS_29_AllocatorDestroyRangeReverseINS_9allocatorIN5Eigen6MatrixIdLi3ELi1ELi0ELi3ELi1EEEEEPS5_EEEENS_28__exception_guard_exceptionsIT_EESA_, symObjAddr: 0x135CC, symBinAddr: 0x170D4, symSize: 0x4C }
  - { offsetInCU: 0x35751, offset: 0x35751, size: 0x8, addend: 0x0, symName: __ZNSt3__119__allocator_destroyB7v160006INS_9allocatorIN5Eigen6MatrixIdLi3ELi1ELi0ELi3ELi1EEEEENS_16reverse_iteratorIPS4_EES8_EEvRT_T0_T1_, symObjAddr: 0x1385C, symBinAddr: 0x17364, symSize: 0x70 }
  - { offsetInCU: 0x357B4, offset: 0x357B4, size: 0x8, addend: 0x0, symName: __ZNSt3__119__allocate_at_leastB7v160006INS_9allocatorINS_6vectorIN5Eigen6MatrixIdLi3ELi1ELi0ELi3ELi1EEENS1_IS5_EEEEEEEENS_19__allocation_resultINS_16allocator_traitsIT_E7pointerEEERSB_m, symObjAddr: 0x13DAC, symBinAddr: 0x178B4, symSize: 0x40 }
  - { offsetInCU: 0x357F7, offset: 0x357F7, size: 0x8, addend: 0x0, symName: __ZNSt3__142__uninitialized_allocator_move_if_noexceptB7v160006INS_9allocatorINS_6vectorIN5Eigen6MatrixIdLi3ELi1ELi0ELi3ELi1EEENS1_IS5_EEEEEENS_16reverse_iteratorIPS7_EESB_SB_EET2_RT_T0_T1_SC_, symObjAddr: 0x13F64, symBinAddr: 0x17A6C, symSize: 0x12C }
  - { offsetInCU: 0x35898, offset: 0x35898, size: 0x8, addend: 0x0, symName: __ZNSt3__14swapB7v160006IPNS_6vectorIN5Eigen6MatrixIdLi3ELi1ELi0ELi3ELi1EEENS_9allocatorIS4_EEEEEENS_9enable_ifIXaasr21is_move_constructibleIT_EE5valuesr18is_move_assignableISA_EE5valueEvE4typeERSA_SD_, symObjAddr: 0x140DC, symBinAddr: 0x17BE4, symSize: 0x3C }
  - { offsetInCU: 0x358E9, offset: 0x358E9, size: 0x8, addend: 0x0, symName: __ZNSt3__122__make_exception_guardB7v160006INS_29_AllocatorDestroyRangeReverseINS_9allocatorINS_6vectorIN5Eigen6MatrixIdLi3ELi1ELi0ELi3ELi1EEENS2_IS6_EEEEEENS_16reverse_iteratorIPS8_EEEEEENS_28__exception_guard_exceptionsIT_EESF_, symObjAddr: 0x141E0, symBinAddr: 0x17CE8, symSize: 0x4C }
  - { offsetInCU: 0x3591F, offset: 0x3591F, size: 0x8, addend: 0x0, symName: __ZNSt3__1neB7v160006IPNS_6vectorIN5Eigen6MatrixIdLi3ELi1ELi0ELi3ELi1EEENS_9allocatorIS4_EEEES8_EEbRKNS_16reverse_iteratorIT_EERKNS9_IT0_EE, symObjAddr: 0x14270, symBinAddr: 0x17D78, symSize: 0x48 }
  - { offsetInCU: 0x3596B, offset: 0x3596B, size: 0x8, addend: 0x0, symName: __ZNSt3__112__to_addressB7v160006INS_16reverse_iteratorIPNS_6vectorIN5Eigen6MatrixIdLi3ELi1ELi0ELi3ELi1EEENS_9allocatorIS5_EEEEEEvEENS_5decayIDTclsr19__to_address_helperIT_EE6__callclsr3stdE7declvalIRKSC_EEEEE4typeESE_, symObjAddr: 0x142EC, symBinAddr: 0x17DF4, symSize: 0x24 }
  - { offsetInCU: 0x359A1, offset: 0x359A1, size: 0x8, addend: 0x0, symName: __ZNSt3__115__debug_db_swapB7v160006INS_6vectorIN5Eigen6MatrixIdLi3ELi1ELi0ELi3ELi1EEENS_9allocatorIS4_EEEEEEvPT_S9_, symObjAddr: 0x1457C, symBinAddr: 0x18084, symSize: 0x14 }
  - { offsetInCU: 0x35A0A, offset: 0x35A0A, size: 0x8, addend: 0x0, symName: __ZNSt3__119__allocator_destroyB7v160006INS_9allocatorINS_6vectorIN5Eigen6MatrixIdLi3ELi1ELi0ELi3ELi1EEENS1_IS5_EEEEEENS_16reverse_iteratorINS9_IPS7_EEEESC_EEvRT_T0_T1_, symObjAddr: 0x146F0, symBinAddr: 0x181F8, symSize: 0x70 }
  - { offsetInCU: 0x35A6F, offset: 0x35A6F, size: 0x8, addend: 0x0, symName: __ZNSt3__1neB7v160006INS_16reverse_iteratorIPNS_6vectorIN5Eigen6MatrixIdLi3ELi1ELi0ELi3ELi1EEENS_9allocatorIS5_EEEEEESA_EEbRKNS1_IT_EERKNS1_IT0_EE, symObjAddr: 0x1479C, symBinAddr: 0x182A4, symSize: 0x60 }
  - { offsetInCU: 0x35ABB, offset: 0x35ABB, size: 0x8, addend: 0x0, symName: __ZNSt3__112__to_addressB7v160006INS_16reverse_iteratorINS1_IPNS_6vectorIN5Eigen6MatrixIdLi3ELi1ELi0ELi3ELi1EEENS_9allocatorIS5_EEEEEEEEvEENS_5decayIDTclsr19__to_address_helperIT_EE6__callclsr3stdE7declvalIRKSD_EEEEE4typeESF_, symObjAddr: 0x147FC, symBinAddr: 0x18304, symSize: 0x24 }
  - { offsetInCU: 0x35FDC, offset: 0x35FDC, size: 0x8, addend: 0x0, symName: __ZSt28__throw_bad_array_new_lengthB7v160006v, symObjAddr: 0x8918, symBinAddr: 0xC420, symSize: 0x34 }
  - { offsetInCU: 0x36048, offset: 0x36048, size: 0x8, addend: 0x0, symName: __ZN12CustomAntEnv13NUM_CREATURESE, symObjAddr: 0x163DC, symBinAddr: 0x69FB0, symSize: 0x0 }
  - { offsetInCU: 0x40150, offset: 0x40150, size: 0x8, addend: 0x0, symName: __ZN5Eigen8internal18redux_vec_unrollerINS0_13scalar_sum_opIddEENS0_15redux_evaluatorINS_12CwiseUnaryOpINS0_14scalar_abs2_opIdEEKNS_13CwiseBinaryOpINS0_20scalar_difference_opIddEEKNS_6MatrixIdLi3ELi1ELi0ELi3ELi1EEESD_EEEEEELi0ELi1EE3runI19__simd128_float64_tEET_RKSH_RKS3_, symObjAddr: 0xB9D8, symBinAddr: 0xF4E0, symSize: 0x30 }
  - { offsetInCU: 0x40984, offset: 0x40984, size: 0x8, addend: 0x0, symName: __ZNSt3__16vectorIdNS_9allocatorIdEEE26__swap_out_circular_bufferERNS_14__split_bufferIdRS2_EE, symObjAddr: 0x822C, symBinAddr: 0xBD34, symSize: 0x118 }
  - { offsetInCU: 0x40B39, offset: 0x40B39, size: 0x8, addend: 0x0, symName: __ZNSt3__16vectorIN5Eigen6MatrixIdLi3ELi1ELi0ELi3ELi1EEENS_9allocatorIS3_EEE26__swap_out_circular_bufferERNS_14__split_bufferIS3_RS5_EE, symObjAddr: 0x11D18, symBinAddr: 0x15820, symSize: 0x118 }
  - { offsetInCU: 0x40C10, offset: 0x40C10, size: 0x8, addend: 0x0, symName: __ZNSt3__16vectorINS0_IN5Eigen6MatrixIdLi3ELi1ELi0ELi3ELi1EEENS_9allocatorIS3_EEEENS4_IS6_EEE26__swap_out_circular_bufferERNS_14__split_bufferIS6_RS7_EE, symObjAddr: 0x13A34, symBinAddr: 0x1753C, symSize: 0x118 }
  - { offsetInCU: 0x42CC1, offset: 0x42CC1, size: 0x8, addend: 0x0, symName: __ZN5Eigen8symbolic10SymbolExprINS_8internal17symbolic_last_tagEEC1Ev, symObjAddr: 0x0, symBinAddr: 0x3B08, symSize: 0x2C }
  - { offsetInCU: 0x42CEB, offset: 0x42CEB, size: 0x8, addend: 0x0, symName: __ZNK5Eigen8symbolic8BaseExprINS0_10SymbolExprINS_8internal17symbolic_last_tagEEEEplILi1EEENS0_7AddExprIS5_NS0_9ValueExprINS3_8FixedIntIXT_EEEEEEESB_, symObjAddr: 0x2C, symBinAddr: 0x3B34, symSize: 0x48 }
  - { offsetInCU: 0x42D26, offset: 0x42D26, size: 0x8, addend: 0x0, symName: __ZNK5Eigen8internal8FixedIntILi1EEclEv, symObjAddr: 0x74, symBinAddr: 0x3B7C, symSize: 0x10 }
  - { offsetInCU: 0x42D4C, offset: 0x42D4C, size: 0x8, addend: 0x0, symName: __ZN5Eigen8internal5all_tC1Ev, symObjAddr: 0x84, symBinAddr: 0x3B8C, symSize: 0x2C }
  - { offsetInCU: 0x42D76, offset: 0x42D76, size: 0x8, addend: 0x0, symName: __ZN12CustomAntEnvC2EPKci, symObjAddr: 0xB0, symBinAddr: 0x3BB8, symSize: 0x414 }
  - { offsetInCU: 0x42DD6, offset: 0x42DD6, size: 0x8, addend: 0x0, symName: __ZN5Eigen6MatrixIdLin1ELin1ELi0ELin1ELin1EEC1Ev, symObjAddr: 0x4C4, symBinAddr: 0x3FCC, symSize: 0x2C }
  - { offsetInCU: 0x42E00, offset: 0x42E00, size: 0x8, addend: 0x0, symName: __ZNSt3__16vectorINS0_IN5Eigen6MatrixIdLi3ELi1ELi0ELi3ELi1EEENS_9allocatorIS3_EEEENS4_IS6_EEEC1B7v160006Ev, symObjAddr: 0x4F0, symBinAddr: 0x3FF8, symSize: 0x2C }
  - { offsetInCU: 0x42E29, offset: 0x42E29, size: 0x8, addend: 0x0, symName: __Z8keyboardP10GLFWwindowiiii, symObjAddr: 0x51C, symBinAddr: 0x4024, symSize: 0x8C }
  - { offsetInCU: 0x42EAC, offset: 0x42EAC, size: 0x8, addend: 0x0, symName: __Z10mouse_moveP10GLFWwindowdd, symObjAddr: 0x5A8, symBinAddr: 0x40B0, symSize: 0x1EC }
  - { offsetInCU: 0x42F5D, offset: 0x42F5D, size: 0x8, addend: 0x0, symName: __Z12mouse_buttonP10GLFWwindowiii, symObjAddr: 0x794, symBinAddr: 0x429C, symSize: 0xCC }
  - { offsetInCU: 0x42FC3, offset: 0x42FC3, size: 0x8, addend: 0x0, symName: __Z6scrollP10GLFWwindowdd, symObjAddr: 0x860, symBinAddr: 0x4368, symSize: 0x64 }
  - { offsetInCU: 0x4301B, offset: 0x4301B, size: 0x8, addend: 0x0, symName: __ZN12CustomAntEnv30initializeFlagPositionsFromXMLEPKc, symObjAddr: 0x8C4, symBinAddr: 0x43CC, symSize: 0x3C8 }
  - { offsetInCU: 0x430EB, offset: 0x430EB, size: 0x8, addend: 0x0, symName: __ZN12CustomAntEnv28calculateIntermediateTargetsEv, symObjAddr: 0xC8C, symBinAddr: 0x4794, symSize: 0x248 }
  - { offsetInCU: 0x431A5, offset: 0x431A5, size: 0x8, addend: 0x0, symName: __ZNSt3__16vectorINS0_IN5Eigen6MatrixIdLi3ELi1ELi0ELi3ELi1EEENS_9allocatorIS3_EEEENS4_IS6_EEED1B7v160006Ev, symObjAddr: 0xED4, symBinAddr: 0x49DC, symSize: 0x2C }
  - { offsetInCU: 0x431CF, offset: 0x431CF, size: 0x8, addend: 0x0, symName: __ZN5Eigen6MatrixIdLin1ELin1ELi0ELin1ELin1EED1Ev, symObjAddr: 0xF00, symBinAddr: 0x4A08, symSize: 0x2C }
  - { offsetInCU: 0x431FB, offset: 0x431FB, size: 0x8, addend: 0x0, symName: __ZN12CustomAntEnvC1EPKci, symObjAddr: 0xF2C, symBinAddr: 0x4A34, symSize: 0x3C }
  - { offsetInCU: 0x43243, offset: 0x43243, size: 0x8, addend: 0x0, symName: __ZNSt3__113basic_ostreamIcNS_11char_traitsIcEEElsB7v160006EPFRS3_S4_E, symObjAddr: 0xFB0, symBinAddr: 0x4AB8, symSize: 0x2C }
  - { offsetInCU: 0x4327C, offset: 0x4327C, size: 0x8, addend: 0x0, symName: __ZN5Eigen6MatrixIdLin1ELin1ELi0ELin1ELin1EEC1IiiEERKT_RKT0_, symObjAddr: 0x1034, symBinAddr: 0x4B3C, symSize: 0x3C }
  - { offsetInCU: 0x432D6, offset: 0x432D6, size: 0x8, addend: 0x0, symName: __ZN5Eigen6MatrixIdLin1ELin1ELi0ELin1ELin1EEaSEOS1_, symObjAddr: 0x1070, symBinAddr: 0x4B78, symSize: 0x34 }
  - { offsetInCU: 0x4330B, offset: 0x4330B, size: 0x8, addend: 0x0, symName: __ZN8tinyxml27XMLNode10FirstChildEv, symObjAddr: 0x10A4, symBinAddr: 0x4BAC, symSize: 0x18 }
  - { offsetInCU: 0x43331, offset: 0x43331, size: 0x8, addend: 0x0, symName: __ZN8tinyxml27XMLNode17FirstChildElementEPKc, symObjAddr: 0x10BC, symBinAddr: 0x4BC4, symSize: 0x2C }
  - { offsetInCU: 0x4336B, offset: 0x4336B, size: 0x8, addend: 0x0, symName: __ZNSt3__112basic_stringIcNS_11char_traitsIcEENS_9allocatorIcEEEC1B7v160006IDnEEPKc, symObjAddr: 0x10E8, symBinAddr: 0x4BF0, symSize: 0x34 }
  - { offsetInCU: 0x433A9, offset: 0x433A9, size: 0x8, addend: 0x0, symName: __ZNKSt3__112basic_stringIcNS_11char_traitsIcEENS_9allocatorIcEEE4findB7v160006EPKcm, symObjAddr: 0x111C, symBinAddr: 0x4C24, symSize: 0x74 }
  - { offsetInCU: 0x433EF, offset: 0x433EF, size: 0x8, addend: 0x0, symName: __ZN12CustomAntEnv13parsePositionEPKc, symObjAddr: 0x1190, symBinAddr: 0x4C98, symSize: 0x1AC }
  - { offsetInCU: 0x43457, offset: 0x43457, size: 0x8, addend: 0x0, symName: __ZNKSt3__16vectorIdNS_9allocatorIdEEE4sizeB7v160006Ev, symObjAddr: 0x133C, symBinAddr: 0x4E44, symSize: 0x28 }
  - { offsetInCU: 0x4347D, offset: 0x4347D, size: 0x8, addend: 0x0, symName: __ZNSt3__16vectorIdNS_9allocatorIdEEEixB7v160006Em, symObjAddr: 0x1364, symBinAddr: 0x4E6C, symSize: 0x24 }
  - { offsetInCU: 0x434B4, offset: 0x434B4, size: 0x8, addend: 0x0, symName: __ZN5Eigen6MatrixIdLi3ELi1ELi0ELi3ELi1EEC1ERKdS3_S3_, symObjAddr: 0x1388, symBinAddr: 0x4E90, symSize: 0x44 }
  - { offsetInCU: 0x4350B, offset: 0x4350B, size: 0x8, addend: 0x0, symName: __ZN5Eigen9DenseBaseINS_6MatrixIdLin1ELin1ELi0ELin1ELin1EEEE3rowEl, symObjAddr: 0x13CC, symBinAddr: 0x4ED4, symSize: 0x3C }
  - { offsetInCU: 0x43540, offset: 0x43540, size: 0x8, addend: 0x0, symName: __ZN5Eigen5BlockINS_6MatrixIdLin1ELin1ELi0ELin1ELin1EEELi1ELin1ELb0EEaSINS1_IdLi3ELi1ELi0ELi3ELi1EEEEERS3_RKNS_9DenseBaseIT_EE, symObjAddr: 0x1408, symBinAddr: 0x4F10, symSize: 0x40 }
  - { offsetInCU: 0x4357D, offset: 0x4357D, size: 0x8, addend: 0x0, symName: __ZNSt3__16vectorIdNS_9allocatorIdEEED1B7v160006Ev, symObjAddr: 0x1448, symBinAddr: 0x4F50, symSize: 0x2C }
  - { offsetInCU: 0x435A7, offset: 0x435A7, size: 0x8, addend: 0x0, symName: __ZN8tinyxml27XMLNode18NextSiblingElementEPKc, symObjAddr: 0x1474, symBinAddr: 0x4F7C, symSize: 0x2C }
  - { offsetInCU: 0x435DC, offset: 0x435DC, size: 0x8, addend: 0x0, symName: __ZN12CustomAntEnv12loadNewModelERKNSt3__112basic_stringIcNS0_11char_traitsIcEENS0_9allocatorIcEEEE, symObjAddr: 0x14A0, symBinAddr: 0x4FA8, symSize: 0x1A0 }
  - { offsetInCU: 0x43621, offset: 0x43621, size: 0x8, addend: 0x0, symName: __ZNKSt3__112basic_stringIcNS_11char_traitsIcEENS_9allocatorIcEEE5c_strB7v160006Ev, symObjAddr: 0x1640, symBinAddr: 0x5148, symSize: 0x24 }
  - { offsetInCU: 0x43647, offset: 0x43647, size: 0x8, addend: 0x0, symName: __ZN12CustomAntEnv5resetEv, symObjAddr: 0x1664, symBinAddr: 0x516C, symSize: 0x44 }
  - { offsetInCU: 0x4366F, offset: 0x4366F, size: 0x8, addend: 0x0, symName: __ZNSt3__16vectorIdNS_9allocatorIdEEEC1B7v160006Ev, symObjAddr: 0x16A8, symBinAddr: 0x51B0, symSize: 0x2C }
  - { offsetInCU: 0x4377D, offset: 0x4377D, size: 0x8, addend: 0x0, symName: __ZNSt3__118basic_stringstreamIcNS_11char_traitsIcEENS_9allocatorIcEEEC1B7v160006ERKNS_12basic_stringIcS2_S4_EEj, symObjAddr: 0x16D4, symBinAddr: 0x51DC, symSize: 0x110 }
  - { offsetInCU: 0x437C5, offset: 0x437C5, size: 0x8, addend: 0x0, symName: __ZNKSt3__19basic_iosIcNS_11char_traitsIcEEEcvbB7v160006Ev, symObjAddr: 0x17E4, symBinAddr: 0x52EC, symSize: 0x2C }
  - { offsetInCU: 0x437EB, offset: 0x437EB, size: 0x8, addend: 0x0, symName: __ZNSt3__16vectorIdNS_9allocatorIdEEE9push_backB7v160006ERKd, symObjAddr: 0x1810, symBinAddr: 0x5318, symSize: 0x6C }
  - { offsetInCU: 0x43822, offset: 0x43822, size: 0x8, addend: 0x0, symName: __ZNSt3__111char_traitsIcE3eofEv, symObjAddr: 0x187C, symBinAddr: 0x5384, symSize: 0x8 }
  - { offsetInCU: 0x4383B, offset: 0x4383B, size: 0x8, addend: 0x0, symName: __ZNSt3__118basic_stringstreamIcNS_11char_traitsIcEENS_9allocatorIcEEED1Ev, symObjAddr: 0x1884, symBinAddr: 0x538C, symSize: 0x40 }
  - { offsetInCU: 0x43868, offset: 0x43868, size: 0x8, addend: 0x0, symName: __ZN12CustomAntEnvD2Ev, symObjAddr: 0x18C4, symBinAddr: 0x53CC, symSize: 0xA4 }
  - { offsetInCU: 0x43894, offset: 0x43894, size: 0x8, addend: 0x0, symName: __ZN12CustomAntEnvD1Ev, symObjAddr: 0x1974, symBinAddr: 0x547C, symSize: 0x2C }
  - { offsetInCU: 0x438C0, offset: 0x438C0, size: 0x8, addend: 0x0, symName: __ZN12CustomAntEnv15calculateRewardEv, symObjAddr: 0x19A0, symBinAddr: 0x54A8, symSize: 0x454 }
  - { offsetInCU: 0x43A29, offset: 0x43A29, size: 0x8, addend: 0x0, symName: __ZN5Eigen9DenseBaseINS_6MatrixIdLin1ELi1ELi0ELin1ELi1EEEE4ZeroEl, symObjAddr: 0x1DF4, symBinAddr: 0x58FC, symSize: 0x38 }
  - { offsetInCU: 0x43A55, offset: 0x43A55, size: 0x8, addend: 0x0, symName: __ZN5Eigen6MatrixIdLin1ELi1ELi0ELin1ELi1EEC1INS_14CwiseNullaryOpINS_8internal18scalar_constant_opIdEES1_EEEERKNS_9EigenBaseIT_EE, symObjAddr: 0x1E2C, symBinAddr: 0x5934, symSize: 0x34 }
  - { offsetInCU: 0x43A97, offset: 0x43A97, size: 0x8, addend: 0x0, symName: __ZNK12CustomAntEnv19getCreaturePositionEi, symObjAddr: 0x1E60, symBinAddr: 0x5968, symSize: 0x94 }
  - { offsetInCU: 0x43AEF, offset: 0x43AEF, size: 0x8, addend: 0x0, symName: __ZN5Eigen6MatrixIdLi3ELi1ELi0ELi3ELi1EEC1INS_5BlockINS0_IdLin1ELin1ELi0ELin1ELin1EEELi1ELin1ELb0EEEEERKNS_9EigenBaseIT_EE, symObjAddr: 0x1EF4, symBinAddr: 0x59FC, symSize: 0x34 }
  - { offsetInCU: 0x43B31, offset: 0x43B31, size: 0x8, addend: 0x0, symName: __ZNK5Eigen10MatrixBaseINS_6MatrixIdLi3ELi1ELi0ELi3ELi1EEEEmiIS2_EEKNS_13CwiseBinaryOpINS_8internal20scalar_difference_opIdNS6_6traitsIT_E6ScalarEEEKS2_KS9_EERKNS0_IS9_EE, symObjAddr: 0x1F28, symBinAddr: 0x5A30, symSize: 0x60 }
  - { offsetInCU: 0x43B9D, offset: 0x43B9D, size: 0x8, addend: 0x0, symName: __ZNK5Eigen10MatrixBaseINS_13CwiseBinaryOpINS_8internal20scalar_difference_opIddEEKNS_6MatrixIdLi3ELi1ELi0ELi3ELi1EEES7_EEE4normEv, symObjAddr: 0x1F88, symBinAddr: 0x5A90, symSize: 0x44 }
  - { offsetInCU: 0x43C09, offset: 0x43C09, size: 0x8, addend: 0x0, symName: __Z3absB7v160006d, symObjAddr: 0x1FCC, symBinAddr: 0x5AD4, symSize: 0x18 }
  - { offsetInCU: 0x43C36, offset: 0x43C36, size: 0x8, addend: 0x0, symName: __ZNK12CustomAntEnv32getClosestTargetIndexAndDistanceEiRKN5Eigen6MatrixIdLi3ELi1ELi0ELi3ELi1EEE, symObjAddr: 0x1FE4, symBinAddr: 0x5AEC, symSize: 0x174 }
  - { offsetInCU: 0x43CD8, offset: 0x43CD8, size: 0x8, addend: 0x0, symName: __ZNSt3__16vectorINS0_IN5Eigen6MatrixIdLi3ELi1ELi0ELi3ELi1EEENS_9allocatorIS3_EEEENS4_IS6_EEEixB7v160006Em, symObjAddr: 0x21A0, symBinAddr: 0x5CA8, symSize: 0x2C }
  - { offsetInCU: 0x43D0F, offset: 0x43D0F, size: 0x8, addend: 0x0, symName: __ZNSt3__16vectorIN5Eigen6MatrixIdLi3ELi1ELi0ELi3ELi1EEENS_9allocatorIS3_EEE5eraseB7v160006ENS_11__wrap_iterIPKS3_EE, symObjAddr: 0x21CC, symBinAddr: 0x5CD4, symSize: 0xAC }
  - { offsetInCU: 0x43D64, offset: 0x43D64, size: 0x8, addend: 0x0, symName: __ZNSt3__16vectorIN5Eigen6MatrixIdLi3ELi1ELi0ELi3ELi1EEENS_9allocatorIS3_EEE5beginB7v160006Ev, symObjAddr: 0x2278, symBinAddr: 0x5D80, symSize: 0x30 }
  - { offsetInCU: 0x43D8C, offset: 0x43D8C, size: 0x8, addend: 0x0, symName: __ZNKSt3__111__wrap_iterIPN5Eigen6MatrixIdLi3ELi1ELi0ELi3ELi1EEEEplB7v160006El, symObjAddr: 0x22A8, symBinAddr: 0x5DB0, symSize: 0x3C }
  - { offsetInCU: 0x43DD8, offset: 0x43DD8, size: 0x8, addend: 0x0, symName: __ZNSt3__111__wrap_iterIPKN5Eigen6MatrixIdLi3ELi1ELi0ELi3ELi1EEEEC1B7v160006IPS3_EERKNS0_IT_EEPNS_9enable_ifIXsr14is_convertibleIS9_S5_EE5valueEvE4typeE, symObjAddr: 0x22E4, symBinAddr: 0x5DEC, symSize: 0x3C }
  - { offsetInCU: 0x43E24, offset: 0x43E24, size: 0x8, addend: 0x0, symName: __ZN5Eigen15DenseCoeffsBaseINS_6MatrixIdLin1ELi1ELi0ELin1ELi1EEELi1EEclEl, symObjAddr: 0x2320, symBinAddr: 0x5E28, symSize: 0xA4 }
  - { offsetInCU: 0x43E59, offset: 0x43E59, size: 0x8, addend: 0x0, symName: __ZN5Eigen6MatrixIdLin1ELi1ELi0ELin1ELi1EED1Ev, symObjAddr: 0x23C4, symBinAddr: 0x5ECC, symSize: 0x2C }
  - { offsetInCU: 0x43E85, offset: 0x43E85, size: 0x8, addend: 0x0, symName: __ZNK12CustomAntEnv14getObservationEv, symObjAddr: 0x23F0, symBinAddr: 0x5EF8, symSize: 0x428 }
  - { offsetInCU: 0x43FB3, offset: 0x43FB3, size: 0x8, addend: 0x0, symName: __ZN5Eigen9DenseBaseINS_6MatrixIdLin1ELin1ELi0ELin1ELin1EEEE4ZeroEll, symObjAddr: 0x2818, symBinAddr: 0x6320, symSize: 0x40 }
  - { offsetInCU: 0x43FEE, offset: 0x43FEE, size: 0x8, addend: 0x0, symName: __ZN5Eigen6MatrixIdLin1ELin1ELi0ELin1ELin1EEC1INS_14CwiseNullaryOpINS_8internal18scalar_constant_opIdEES1_EEEERKNS_9EigenBaseIT_EE, symObjAddr: 0x2858, symBinAddr: 0x6360, symSize: 0x34 }
  - { offsetInCU: 0x44030, offset: 0x44030, size: 0x8, addend: 0x0, symName: __ZNK12CustomAntEnv21calculatePhysicsIndexEiii, symObjAddr: 0x288C, symBinAddr: 0x6394, symSize: 0x40 }
  - { offsetInCU: 0x44082, offset: 0x44082, size: 0x8, addend: 0x0, symName: __ZN5Eigen15DenseCoeffsBaseINS_6MatrixIdLin1ELin1ELi0ELin1ELin1EEELi1EEclEll, symObjAddr: 0x28CC, symBinAddr: 0x63D4, symSize: 0xF4 }
  - { offsetInCU: 0x440C6, offset: 0x440C6, size: 0x8, addend: 0x0, symName: __ZNK12CustomAntEnv25calculateDistanceToTargetEi, symObjAddr: 0x29C0, symBinAddr: 0x64C8, symSize: 0xC0 }
  - { offsetInCU: 0x4412D, offset: 0x4412D, size: 0x8, addend: 0x0, symName: __ZN5Eigen15DenseCoeffsBaseINS_6MatrixIdLi2ELi1ELi0ELi2ELi1EEELi1EE1xEv, symObjAddr: 0x2A80, symBinAddr: 0x6588, symSize: 0x28 }
  - { offsetInCU: 0x44153, offset: 0x44153, size: 0x8, addend: 0x0, symName: __ZN5Eigen15DenseCoeffsBaseINS_6MatrixIdLi2ELi1ELi0ELi2ELi1EEELi1EE1yEv, symObjAddr: 0x2AA8, symBinAddr: 0x65B0, symSize: 0x28 }
  - { offsetInCU: 0x44179, offset: 0x44179, size: 0x8, addend: 0x0, symName: __ZNK12CustomAntEnv21calculateControlIndexEiii, symObjAddr: 0x2AD0, symBinAddr: 0x65D8, symSize: 0xB4 }
  - { offsetInCU: 0x44218, offset: 0x44218, size: 0x8, addend: 0x0, symName: __ZNK5Eigen9DenseBaseINS_6MatrixIdLin1ELin1ELi0ELin1ELin1EEEE3rowEl, symObjAddr: 0x2B84, symBinAddr: 0x668C, symSize: 0x3C }
  - { offsetInCU: 0x44252, offset: 0x44252, size: 0x8, addend: 0x0, symName: __ZN5Eigen6MatrixIdLi3ELi1ELi0ELi3ELi1EEC1INS_5BlockIKNS0_IdLin1ELin1ELi0ELin1ELin1EEELi1ELin1ELb0EEEEERKNS_9EigenBaseIT_EE, symObjAddr: 0x2BC0, symBinAddr: 0x66C8, symSize: 0x34 }
  - { offsetInCU: 0x44299, offset: 0x44299, size: 0x8, addend: 0x0, symName: __ZN5Eigen6MatrixIdLi3ELi1ELi0ELi3ELi1EEC1INS_13CwiseBinaryOpINS_8internal20scalar_difference_opIddEEKS1_S7_EEEERKNS_9EigenBaseIT_EE, symObjAddr: 0x2BF4, symBinAddr: 0x66FC, symSize: 0x34 }
  - { offsetInCU: 0x442DB, offset: 0x442DB, size: 0x8, addend: 0x0, symName: __ZN5Eigen15DenseCoeffsBaseINS_6MatrixIdLi3ELi1ELi0ELi3ELi1EEELi1EE1xEv, symObjAddr: 0x2C28, symBinAddr: 0x6730, symSize: 0x28 }
  - { offsetInCU: 0x44301, offset: 0x44301, size: 0x8, addend: 0x0, symName: __ZN5Eigen15DenseCoeffsBaseINS_6MatrixIdLi3ELi1ELi0ELi3ELi1EEELi1EE1yEv, symObjAddr: 0x2C50, symBinAddr: 0x6758, symSize: 0x28 }
  - { offsetInCU: 0x44327, offset: 0x44327, size: 0x8, addend: 0x0, symName: __ZN5Eigen6MatrixIdLi2ELi1ELi0ELi2ELi1EEC1IddEERKT_RKT0_, symObjAddr: 0x2C78, symBinAddr: 0x6780, symSize: 0x3C }
  - { offsetInCU: 0x44381, offset: 0x44381, size: 0x8, addend: 0x0, symName: __ZN12CustomAntEnv9setActionERKN5Eigen6MatrixIdLin1ELin1ELi0ELin1ELin1EEE, symObjAddr: 0x2CB4, symBinAddr: 0x67BC, symSize: 0x160 }
  - { offsetInCU: 0x44467, offset: 0x44467, size: 0x8, addend: 0x0, symName: __ZNK5Eigen15PlainObjectBaseINS_6MatrixIdLin1ELin1ELi0ELin1ELin1EEEE4colsEv, symObjAddr: 0x2E14, symBinAddr: 0x691C, symSize: 0x24 }
  - { offsetInCU: 0x4448D, offset: 0x4448D, size: 0x8, addend: 0x0, symName: __ZNK5Eigen15DenseCoeffsBaseINS_6MatrixIdLin1ELin1ELi0ELin1ELin1EEELi0EEclEll, symObjAddr: 0x2E38, symBinAddr: 0x6940, symSize: 0xF4 }
  - { offsetInCU: 0x444CF, offset: 0x444CF, size: 0x8, addend: 0x0, symName: __ZN12CustomAntEnv6renderEv, symObjAddr: 0x2F2C, symBinAddr: 0x6A34, symSize: 0xB8 }
  - { offsetInCU: 0x44507, offset: 0x44507, size: 0x8, addend: 0x0, symName: __ZNK12CustomAntEnv12should_closeEv, symObjAddr: 0x2FE4, symBinAddr: 0x6AEC, symSize: 0x34 }
  - { offsetInCU: 0x44530, offset: 0x44530, size: 0x8, addend: 0x0, symName: __ZNK12CustomAntEnv6isDoneEv, symObjAddr: 0x3018, symBinAddr: 0x6B20, symSize: 0x28 }
  - { offsetInCU: 0x44559, offset: 0x44559, size: 0x8, addend: 0x0, symName: __ZNSt3__16vectorINS0_IN5Eigen6MatrixIdLi3ELi1ELi0ELi3ELi1EEENS_9allocatorIS3_EEEENS4_IS6_EEE5clearB7v160006Ev, symObjAddr: 0x3040, symBinAddr: 0x6B48, symSize: 0x54 }
  - { offsetInCU: 0x4458E, offset: 0x4458E, size: 0x8, addend: 0x0, symName: __ZNK5Eigen9EigenBaseINS_6MatrixIdLin1ELin1ELi0ELin1ELin1EEEE4sizeEv, symObjAddr: 0x3094, symBinAddr: 0x6B9C, symSize: 0x44 }
  - { offsetInCU: 0x445B4, offset: 0x445B4, size: 0x8, addend: 0x0, symName: __ZNK5Eigen15PlainObjectBaseINS_6MatrixIdLin1ELin1ELi0ELin1ELin1EEEE4rowsEv, symObjAddr: 0x30D8, symBinAddr: 0x6BE0, symSize: 0x24 }
  - { offsetInCU: 0x445DA, offset: 0x445DA, size: 0x8, addend: 0x0, symName: __ZNSt3__16vectorIN5Eigen6MatrixIdLi3ELi1ELi0ELi3ELi1EEENS_9allocatorIS3_EEEC1B7v160006Ev, symObjAddr: 0x30FC, symBinAddr: 0x6C04, symSize: 0x2C }
  - { offsetInCU: 0x44604, offset: 0x44604, size: 0x8, addend: 0x0, symName: __ZNK5Eigen10MatrixBaseINS_6MatrixIdLi3ELi1ELi0ELi3ELi1EEEEplINS_13CwiseBinaryOpINS_8internal17scalar_product_opIddEEKNS_14CwiseNullaryOpINS6_18scalar_constant_opIdEEKS2_EEKNS5_INS6_20scalar_difference_opIddEESC_SC_EEEEEEKNS5_INS6_13scalar_sum_opIdNS6_6traitsIT_E6ScalarEEESC_KSM_EERKNS0_ISM_EE, symObjAddr: 0x3128, symBinAddr: 0x6C30, symSize: 0x60 }
  - { offsetInCU: 0x44646, offset: 0x44646, size: 0x8, addend: 0x0, symName: __ZN5Eigen6MatrixIdLi3ELi1ELi0ELi3ELi1EEC1INS_13CwiseBinaryOpINS_8internal13scalar_sum_opIddEEKS1_KNS3_INS4_17scalar_product_opIddEEKNS_14CwiseNullaryOpINS4_18scalar_constant_opIdEES7_EEKNS3_INS4_20scalar_difference_opIddEES7_S7_EEEEEEEERKNS_9EigenBaseIT_EE, symObjAddr: 0x3224, symBinAddr: 0x6D2C, symSize: 0x34 }
  - { offsetInCU: 0x44688, offset: 0x44688, size: 0x8, addend: 0x0, symName: __ZNSt3__16vectorIN5Eigen6MatrixIdLi3ELi1ELi0ELi3ELi1EEENS_9allocatorIS3_EEE9push_backB7v160006ERKS3_, symObjAddr: 0x3258, symBinAddr: 0x6D60, symSize: 0x6C }
  - { offsetInCU: 0x446BF, offset: 0x446BF, size: 0x8, addend: 0x0, symName: __ZNSt3__16vectorINS0_IN5Eigen6MatrixIdLi3ELi1ELi0ELi3ELi1EEENS_9allocatorIS3_EEEENS4_IS6_EEE9push_backB7v160006ERKS6_, symObjAddr: 0x32C4, symBinAddr: 0x6DCC, symSize: 0x6C }
  - { offsetInCU: 0x446F6, offset: 0x446F6, size: 0x8, addend: 0x0, symName: __ZNSt3__16vectorIN5Eigen6MatrixIdLi3ELi1ELi0ELi3ELi1EEENS_9allocatorIS3_EEED1B7v160006Ev, symObjAddr: 0x3330, symBinAddr: 0x6E38, symSize: 0x2C }
  - { offsetInCU: 0x44720, offset: 0x44720, size: 0x8, addend: 0x0, symName: __ZNKSt3__16vectorINS0_IN5Eigen6MatrixIdLi3ELi1ELi0ELi3ELi1EEENS_9allocatorIS3_EEEENS4_IS6_EEE4sizeB7v160006Ev, symObjAddr: 0x335C, symBinAddr: 0x6E64, symSize: 0x28 }
  - { offsetInCU: 0x44746, offset: 0x44746, size: 0x8, addend: 0x0, symName: __ZNSt3__114numeric_limitsIdE3maxB7v160006Ev, symObjAddr: 0x3384, symBinAddr: 0x6E8C, symSize: 0x14 }
  - { offsetInCU: 0x44766, offset: 0x44766, size: 0x8, addend: 0x0, symName: __ZNSt3__14pairIidEC1B7v160006IidLPv0EEEOT_OT0_, symObjAddr: 0x3398, symBinAddr: 0x6EA0, symSize: 0x3C }
  - { offsetInCU: 0x447C4, offset: 0x447C4, size: 0x8, addend: 0x0, symName: __ZNKSt3__16vectorINS0_IN5Eigen6MatrixIdLi3ELi1ELi0ELi3ELi1EEENS_9allocatorIS3_EEEENS4_IS6_EEEixB7v160006Em, symObjAddr: 0x33D4, symBinAddr: 0x6EDC, symSize: 0x2C }
  - { offsetInCU: 0x447FB, offset: 0x447FB, size: 0x8, addend: 0x0, symName: __ZNKSt3__16vectorIN5Eigen6MatrixIdLi3ELi1ELi0ELi3ELi1EEENS_9allocatorIS3_EEE4sizeB7v160006Ev, symObjAddr: 0x3400, symBinAddr: 0x6F08, symSize: 0x28 }
  - { offsetInCU: 0x44821, offset: 0x44821, size: 0x8, addend: 0x0, symName: __ZNKSt3__16vectorIN5Eigen6MatrixIdLi3ELi1ELi0ELi3ELi1EEENS_9allocatorIS3_EEEixB7v160006Em, symObjAddr: 0x3428, symBinAddr: 0x6F30, symSize: 0x2C }
  - { offsetInCU: 0x44858, offset: 0x44858, size: 0x8, addend: 0x0, symName: __ZNSt3__14pairIidEC1B7v160006IRiRdLPv0EEEOT_OT0_, symObjAddr: 0x3454, symBinAddr: 0x6F5C, symSize: 0x3C }
  - { offsetInCU: 0x448B6, offset: 0x448B6, size: 0x8, addend: 0x0, symName: __ZN5Eigen8internal8FixedIntILi1EEC1Ev, symObjAddr: 0x3490, symBinAddr: 0x6F98, symSize: 0x2C }
  - { offsetInCU: 0x448E0, offset: 0x448E0, size: 0x8, addend: 0x0, symName: __ZN5Eigen8internal5all_tC2Ev, symObjAddr: 0x34BC, symBinAddr: 0x6FC4, symSize: 0x14 }
  - { offsetInCU: 0x4490A, offset: 0x4490A, size: 0x8, addend: 0x0, symName: __ZN5Eigen6MatrixIdLin1ELin1ELi0ELin1ELin1EED2Ev, symObjAddr: 0x34D0, symBinAddr: 0x6FD8, symSize: 0x2C }
  - { offsetInCU: 0x44936, offset: 0x44936, size: 0x8, addend: 0x0, symName: __ZN5Eigen15PlainObjectBaseINS_6MatrixIdLin1ELin1ELi0ELin1ELin1EEEED2Ev, symObjAddr: 0x34FC, symBinAddr: 0x7004, symSize: 0x2C }
  - { offsetInCU: 0x44962, offset: 0x44962, size: 0x8, addend: 0x0, symName: __ZN5Eigen12DenseStorageIdLin1ELin1ELin1ELi0EED1Ev, symObjAddr: 0x3528, symBinAddr: 0x7030, symSize: 0x2C }
  - { offsetInCU: 0x4498C, offset: 0x4498C, size: 0x8, addend: 0x0, symName: __ZN5Eigen12DenseStorageIdLin1ELin1ELin1ELi0EED2Ev, symObjAddr: 0x3554, symBinAddr: 0x705C, symSize: 0x44 }
  - { offsetInCU: 0x449B6, offset: 0x449B6, size: 0x8, addend: 0x0, symName: __ZNSt3__118basic_stringstreamIcNS_11char_traitsIcEENS_9allocatorIcEEED2Ev, symObjAddr: 0x3608, symBinAddr: 0x7110, symSize: 0x6C }
  - { offsetInCU: 0x449F0, offset: 0x449F0, size: 0x8, addend: 0x0, symName: __ZThn16_NSt3__118basic_stringstreamIcNS_11char_traitsIcEENS_9allocatorIcEEED1Ev, symObjAddr: 0x3674, symBinAddr: 0x717C, symSize: 0x1C }
  - { offsetInCU: 0x44A07, offset: 0x44A07, size: 0x8, addend: 0x0, symName: __ZTv0_n24_NSt3__118basic_stringstreamIcNS_11char_traitsIcEENS_9allocatorIcEEED1Ev, symObjAddr: 0x3690, symBinAddr: 0x7198, symSize: 0x28 }
  - { offsetInCU: 0x44A23, offset: 0x44A23, size: 0x8, addend: 0x0, symName: __ZNSt3__115basic_stringbufIcNS_11char_traitsIcEENS_9allocatorIcEEED1Ev, symObjAddr: 0x36B8, symBinAddr: 0x71C0, symSize: 0x2C }
  - { offsetInCU: 0x44A50, offset: 0x44A50, size: 0x8, addend: 0x0, symName: __ZNSt3__115basic_stringbufIcNS_11char_traitsIcEENS_9allocatorIcEEED2Ev, symObjAddr: 0x36E4, symBinAddr: 0x71EC, symSize: 0x48 }
  - { offsetInCU: 0x44A7D, offset: 0x44A7D, size: 0x8, addend: 0x0, symName: __ZNSt3__110__get_pairILm0EE3getB7v160006IidEEOT_ONS_4pairIS3_T0_EE, symObjAddr: 0x372C, symBinAddr: 0x7234, symSize: 0x14 }
  - { offsetInCU: 0x44AB3, offset: 0x44AB3, size: 0x8, addend: 0x0, symName: __ZNSt3__110__get_pairILm1EE3getB7v160006IidEEOT0_ONS_4pairIT_S3_EE, symObjAddr: 0x3740, symBinAddr: 0x7248, symSize: 0x18 }
  - { offsetInCU: 0x44AE9, offset: 0x44AE9, size: 0x8, addend: 0x0, symName: __ZNSt3__111__wrap_iterIPN5Eigen6MatrixIdLi3ELi1ELi0ELi3ELi1EEEEpLB7v160006El, symObjAddr: 0x3758, symBinAddr: 0x7260, symSize: 0x30 }
  - { offsetInCU: 0x44B1D, offset: 0x44B1D, size: 0x8, addend: 0x0, symName: __ZNSt3__111__wrap_iterIPKN5Eigen6MatrixIdLi3ELi1ELi0ELi3ELi1EEEEC2B7v160006IPS3_EERKNS0_IT_EEPNS_9enable_ifIXsr14is_convertibleIS9_S5_EE5valueEvE4typeE, symObjAddr: 0x3788, symBinAddr: 0x7290, symSize: 0x40 }
  - { offsetInCU: 0x44B69, offset: 0x44B69, size: 0x8, addend: 0x0, symName: __ZNKSt3__111__wrap_iterIPN5Eigen6MatrixIdLi3ELi1ELi0ELi3ELi1EEEE4baseB7v160006Ev, symObjAddr: 0x37C8, symBinAddr: 0x72D0, symSize: 0x18 }
  - { offsetInCU: 0x44B8F, offset: 0x44B8F, size: 0x8, addend: 0x0, symName: __ZN5Eigen6MatrixIdLin1ELi1ELi0ELin1ELi1EED2Ev, symObjAddr: 0x37E0, symBinAddr: 0x72E8, symSize: 0x2C }
  - { offsetInCU: 0x44BBB, offset: 0x44BBB, size: 0x8, addend: 0x0, symName: __ZN5Eigen15PlainObjectBaseINS_6MatrixIdLin1ELi1ELi0ELin1ELi1EEEED2Ev, symObjAddr: 0x380C, symBinAddr: 0x7314, symSize: 0x2C }
  - { offsetInCU: 0x44BE7, offset: 0x44BE7, size: 0x8, addend: 0x0, symName: __ZN5Eigen12DenseStorageIdLin1ELin1ELi1ELi0EED1Ev, symObjAddr: 0x3838, symBinAddr: 0x7340, symSize: 0x2C }
  - { offsetInCU: 0x44C11, offset: 0x44C11, size: 0x8, addend: 0x0, symName: __ZN5Eigen12DenseStorageIdLin1ELin1ELi1ELi0EED2Ev, symObjAddr: 0x3864, symBinAddr: 0x736C, symSize: 0x44 }
  - { offsetInCU: 0x44C3B, offset: 0x44C3B, size: 0x8, addend: 0x0, symName: __ZNK5Eigen12DenseStorageIdLin1ELin1ELin1ELi0EE4colsEv, symObjAddr: 0x38A8, symBinAddr: 0x73B0, symSize: 0x18 }
  - { offsetInCU: 0x44C61, offset: 0x44C61, size: 0x8, addend: 0x0, symName: __ZNK5Eigen9EigenBaseINS_6MatrixIdLin1ELin1ELi0ELin1ELin1EEEE4rowsEv, symObjAddr: 0x38C0, symBinAddr: 0x73C8, symSize: 0x38 }
  - { offsetInCU: 0x44C87, offset: 0x44C87, size: 0x8, addend: 0x0, symName: __ZNK5Eigen9EigenBaseINS_6MatrixIdLin1ELin1ELi0ELin1ELin1EEEE4colsEv, symObjAddr: 0x38F8, symBinAddr: 0x7400, symSize: 0x28 }
  - { offsetInCU: 0x44CAD, offset: 0x44CAD, size: 0x8, addend: 0x0, symName: __ZNK5Eigen9EigenBaseINS_6MatrixIdLin1ELin1ELi0ELin1ELin1EEEE7derivedEv, symObjAddr: 0x3920, symBinAddr: 0x7428, symSize: 0x14 }
  - { offsetInCU: 0x44CD3, offset: 0x44CD3, size: 0x8, addend: 0x0, symName: __ZNK5Eigen12DenseStorageIdLin1ELin1ELin1ELi0EE4rowsEv, symObjAddr: 0x3934, symBinAddr: 0x743C, symSize: 0x18 }
  - { offsetInCU: 0x44CF9, offset: 0x44CF9, size: 0x8, addend: 0x0, symName: __ZNSt3__123__libcpp_numeric_limitsIdLb1EE3maxB7v160006Ev, symObjAddr: 0x394C, symBinAddr: 0x7454, symSize: 0xC }
  - { offsetInCU: 0x44D0D, offset: 0x44D0D, size: 0x8, addend: 0x0, symName: __ZNSt3__14pairIidEC2B7v160006IidLPv0EEEOT_OT0_, symObjAddr: 0x3958, symBinAddr: 0x7460, symSize: 0x34 }
  - { offsetInCU: 0x44D6B, offset: 0x44D6B, size: 0x8, addend: 0x0, symName: __ZNSt3__14pairIidEC2B7v160006IRiRdLPv0EEEOT_OT0_, symObjAddr: 0x398C, symBinAddr: 0x7494, symSize: 0x34 }
  - { offsetInCU: 0x44DC9, offset: 0x44DC9, size: 0x8, addend: 0x0, symName: __ZNSt3__112basic_stringIcNS_11char_traitsIcEENS_9allocatorIcEEEC2B7v160006IDnEEPKc, symObjAddr: 0x39C0, symBinAddr: 0x74C8, symSize: 0x60 }
  - { offsetInCU: 0x44E0D, offset: 0x44E0D, size: 0x8, addend: 0x0, symName: __ZNSt3__117__compressed_pairINS_12basic_stringIcNS_11char_traitsIcEENS_9allocatorIcEEE5__repES5_EC1B7v160006INS_18__default_init_tagESA_EEOT_OT0_, symObjAddr: 0x3A20, symBinAddr: 0x7528, symSize: 0x3C }
  - { offsetInCU: 0x44E65, offset: 0x44E65, size: 0x8, addend: 0x0, symName: __ZNSt3__111char_traitsIcE6lengthEPKc, symObjAddr: 0x3A5C, symBinAddr: 0x7564, symSize: 0x34 }
  - { offsetInCU: 0x44E88, offset: 0x44E88, size: 0x8, addend: 0x0, symName: __ZNSt3__117__compressed_pairINS_12basic_stringIcNS_11char_traitsIcEENS_9allocatorIcEEE5__repES5_EC2B7v160006INS_18__default_init_tagESA_EEOT_OT0_, symObjAddr: 0x3AA0, symBinAddr: 0x75A8, symSize: 0x3C }
  - { offsetInCU: 0x44EE0, offset: 0x44EE0, size: 0x8, addend: 0x0, symName: __ZNSt3__122__compressed_pair_elemINS_12basic_stringIcNS_11char_traitsIcEENS_9allocatorIcEEE5__repELi0ELb0EEC2B7v160006ENS_18__default_init_tagE, symObjAddr: 0x3ADC, symBinAddr: 0x75E4, symSize: 0x14 }
  - { offsetInCU: 0x44F15, offset: 0x44F15, size: 0x8, addend: 0x0, symName: __ZNSt3__122__compressed_pair_elemINS_9allocatorIcEELi1ELb1EEC2B7v160006ENS_18__default_init_tagE, symObjAddr: 0x3AF0, symBinAddr: 0x75F8, symSize: 0x2C }
  - { offsetInCU: 0x44F4A, offset: 0x44F4A, size: 0x8, addend: 0x0, symName: __ZNSt3__19allocatorIcEC2B7v160006Ev, symObjAddr: 0x3B1C, symBinAddr: 0x7624, symSize: 0x2C }
  - { offsetInCU: 0x44F74, offset: 0x44F74, size: 0x8, addend: 0x0, symName: __ZNSt3__116__non_trivial_ifILb1ENS_9allocatorIcEEEC2B7v160006Ev, symObjAddr: 0x3B48, symBinAddr: 0x7650, symSize: 0x14 }
  - { offsetInCU: 0x44F9E, offset: 0x44F9E, size: 0x8, addend: 0x0, symName: __ZN5Eigen8symbolic10SymbolExprINS_8internal17symbolic_last_tagEEC2Ev, symObjAddr: 0x3B80, symBinAddr: 0x7688, symSize: 0x14 }
  - { offsetInCU: 0x44FC8, offset: 0x44FC8, size: 0x8, addend: 0x0, symName: __ZN5Eigen8internal8FixedIntILi1EEC2Ev, symObjAddr: 0x3B94, symBinAddr: 0x769C, symSize: 0x14 }
  - { offsetInCU: 0x44FF2, offset: 0x44FF2, size: 0x8, addend: 0x0, symName: __ZNK5Eigen8symbolic8BaseExprINS0_10SymbolExprINS_8internal17symbolic_last_tagEEEE7derivedEv, symObjAddr: 0x3BA8, symBinAddr: 0x76B0, symSize: 0x14 }
  - { offsetInCU: 0x45018, offset: 0x45018, size: 0x8, addend: 0x0, symName: __ZN5Eigen8symbolic9ValueExprINS_8internal8FixedIntILi1EEEEC1Ev, symObjAddr: 0x3BBC, symBinAddr: 0x76C4, symSize: 0x2C }
  - { offsetInCU: 0x45042, offset: 0x45042, size: 0x8, addend: 0x0, symName: __ZN5Eigen8symbolic7AddExprINS0_10SymbolExprINS_8internal17symbolic_last_tagEEENS0_9ValueExprINS3_8FixedIntILi1EEEEEEC1ERKS5_RKS9_, symObjAddr: 0x3BE8, symBinAddr: 0x76F0, symSize: 0x3C }
  - { offsetInCU: 0x45088, offset: 0x45088, size: 0x8, addend: 0x0, symName: __ZN5Eigen8symbolic9ValueExprINS_8internal8FixedIntILi1EEEEC2Ev, symObjAddr: 0x3C24, symBinAddr: 0x772C, symSize: 0x14 }
  - { offsetInCU: 0x450B2, offset: 0x450B2, size: 0x8, addend: 0x0, symName: __ZN5Eigen8symbolic7AddExprINS0_10SymbolExprINS_8internal17symbolic_last_tagEEENS0_9ValueExprINS3_8FixedIntILi1EEEEEEC2ERKS5_RKS9_, symObjAddr: 0x3C38, symBinAddr: 0x7740, symSize: 0x1C }
  - { offsetInCU: 0x450F8, offset: 0x450F8, size: 0x8, addend: 0x0, symName: __ZNKSt3__112basic_stringIcNS_11char_traitsIcEENS_9allocatorIcEEE4dataB7v160006Ev, symObjAddr: 0x3C54, symBinAddr: 0x775C, symSize: 0x28 }
  - { offsetInCU: 0x4511E, offset: 0x4511E, size: 0x8, addend: 0x0, symName: __ZNKSt3__112basic_stringIcNS_11char_traitsIcEENS_9allocatorIcEEE13__get_pointerB7v160006Ev, symObjAddr: 0x3C90, symBinAddr: 0x7798, symSize: 0x54 }
  - { offsetInCU: 0x45144, offset: 0x45144, size: 0x8, addend: 0x0, symName: __ZNKSt3__112basic_stringIcNS_11char_traitsIcEENS_9allocatorIcEEE9__is_longB7v160006Ev, symObjAddr: 0x3CE4, symBinAddr: 0x77EC, symSize: 0x38 }
  - { offsetInCU: 0x4516A, offset: 0x4516A, size: 0x8, addend: 0x0, symName: __ZNKSt3__112basic_stringIcNS_11char_traitsIcEENS_9allocatorIcEEE18__get_long_pointerB7v160006Ev, symObjAddr: 0x3D1C, symBinAddr: 0x7824, symSize: 0x28 }
  - { offsetInCU: 0x45190, offset: 0x45190, size: 0x8, addend: 0x0, symName: __ZNKSt3__112basic_stringIcNS_11char_traitsIcEENS_9allocatorIcEEE19__get_short_pointerB7v160006Ev, symObjAddr: 0x3D44, symBinAddr: 0x784C, symSize: 0x28 }
  - { offsetInCU: 0x451B6, offset: 0x451B6, size: 0x8, addend: 0x0, symName: __ZNKSt3__117__compressed_pairINS_12basic_stringIcNS_11char_traitsIcEENS_9allocatorIcEEE5__repES5_E5firstB7v160006Ev, symObjAddr: 0x3D6C, symBinAddr: 0x7874, symSize: 0x24 }
  - { offsetInCU: 0x451DC, offset: 0x451DC, size: 0x8, addend: 0x0, symName: __ZNKSt3__122__compressed_pair_elemINS_12basic_stringIcNS_11char_traitsIcEENS_9allocatorIcEEE5__repELi0ELb0EE5__getB7v160006Ev, symObjAddr: 0x3D90, symBinAddr: 0x7898, symSize: 0x14 }
  - { offsetInCU: 0x45202, offset: 0x45202, size: 0x8, addend: 0x0, symName: __ZNSt3__114pointer_traitsIPKcE10pointer_toB7v160006ERS1_, symObjAddr: 0x3DA4, symBinAddr: 0x78AC, symSize: 0x14 }
  - { offsetInCU: 0x45225, offset: 0x45225, size: 0x8, addend: 0x0, symName: __ZNKSt3__112basic_stringIcNS_11char_traitsIcEENS_9allocatorIcEEE4sizeB7v160006Ev, symObjAddr: 0x3E9C, symBinAddr: 0x79A4, symSize: 0x54 }
  - { offsetInCU: 0x4524B, offset: 0x4524B, size: 0x8, addend: 0x0, symName: __ZNSt3__111char_traitsIcE4findEPKcmRS2_, symObjAddr: 0x4044, symBinAddr: 0x7B4C, symSize: 0x70 }
  - { offsetInCU: 0x4528A, offset: 0x4528A, size: 0x8, addend: 0x0, symName: __ZNSt3__111char_traitsIcE7compareEPKcS3_m, symObjAddr: 0x40B4, symBinAddr: 0x7BBC, symSize: 0x6C }
  - { offsetInCU: 0x452C9, offset: 0x452C9, size: 0x8, addend: 0x0, symName: __ZNKSt3__112basic_stringIcNS_11char_traitsIcEENS_9allocatorIcEEE15__get_long_sizeB7v160006Ev, symObjAddr: 0x4188, symBinAddr: 0x7C90, symSize: 0x28 }
  - { offsetInCU: 0x452EF, offset: 0x452EF, size: 0x8, addend: 0x0, symName: __ZNKSt3__112basic_stringIcNS_11char_traitsIcEENS_9allocatorIcEEE16__get_short_sizeB7v160006Ev, symObjAddr: 0x41B0, symBinAddr: 0x7CB8, symSize: 0x34 }
  - { offsetInCU: 0x45315, offset: 0x45315, size: 0x8, addend: 0x0, symName: __ZN5Eigen6MatrixIdLin1ELin1ELi0ELin1ELin1EEC2Ev, symObjAddr: 0x41E4, symBinAddr: 0x7CEC, symSize: 0x58 }
  - { offsetInCU: 0x4533F, offset: 0x4533F, size: 0x8, addend: 0x0, symName: __ZN5Eigen15PlainObjectBaseINS_6MatrixIdLin1ELin1ELi0ELin1ELin1EEEEC2Ev, symObjAddr: 0x423C, symBinAddr: 0x7D44, symSize: 0x34 }
  - { offsetInCU: 0x45369, offset: 0x45369, size: 0x8, addend: 0x0, symName: __ZN5Eigen15PlainObjectBaseINS_6MatrixIdLin1ELin1ELi0ELin1ELin1EEEE22_check_template_paramsEv, symObjAddr: 0x4270, symBinAddr: 0x7D78, symSize: 0x4 }
  - { offsetInCU: 0x4537D, offset: 0x4537D, size: 0x8, addend: 0x0, symName: __ZN5Eigen10MatrixBaseINS_6MatrixIdLin1ELin1ELi0ELin1ELin1EEEEC2Ev, symObjAddr: 0x4274, symBinAddr: 0x7D7C, symSize: 0x2C }
  - { offsetInCU: 0x453A7, offset: 0x453A7, size: 0x8, addend: 0x0, symName: __ZN5Eigen12DenseStorageIdLin1ELin1ELin1ELi0EEC1Ev, symObjAddr: 0x42A0, symBinAddr: 0x7DA8, symSize: 0x2C }
  - { offsetInCU: 0x453D1, offset: 0x453D1, size: 0x8, addend: 0x0, symName: __ZN5Eigen9DenseBaseINS_6MatrixIdLin1ELin1ELi0ELin1ELin1EEEEC2Ev, symObjAddr: 0x42CC, symBinAddr: 0x7DD4, symSize: 0x14 }
  - { offsetInCU: 0x453FB, offset: 0x453FB, size: 0x8, addend: 0x0, symName: __ZN5Eigen12DenseStorageIdLin1ELin1ELin1ELi0EEC2Ev, symObjAddr: 0x42E0, symBinAddr: 0x7DE8, symSize: 0x20 }
  - { offsetInCU: 0x45425, offset: 0x45425, size: 0x8, addend: 0x0, symName: __ZNSt3__16vectorINS0_IN5Eigen6MatrixIdLi3ELi1ELi0ELi3ELi1EEENS_9allocatorIS3_EEEENS4_IS6_EEEC2B7v160006Ev, symObjAddr: 0x4300, symBinAddr: 0x7E08, symSize: 0x58 }
  - { offsetInCU: 0x45455, offset: 0x45455, size: 0x8, addend: 0x0, symName: __ZNSt3__117__compressed_pairIPNS_6vectorIN5Eigen6MatrixIdLi3ELi1ELi0ELi3ELi1EEENS_9allocatorIS4_EEEENS5_IS7_EEEC1B7v160006IDnNS_18__default_init_tagEEEOT_OT0_, symObjAddr: 0x4358, symBinAddr: 0x7E60, symSize: 0x3C }
  - { offsetInCU: 0x454AD, offset: 0x454AD, size: 0x8, addend: 0x0, symName: __ZNSt3__117__compressed_pairIPNS_6vectorIN5Eigen6MatrixIdLi3ELi1ELi0ELi3ELi1EEENS_9allocatorIS4_EEEENS5_IS7_EEEC2B7v160006IDnNS_18__default_init_tagEEEOT_OT0_, symObjAddr: 0x43A4, symBinAddr: 0x7EAC, symSize: 0x40 }
  - { offsetInCU: 0x45505, offset: 0x45505, size: 0x8, addend: 0x0, symName: __ZNSt3__122__compressed_pair_elemIPNS_6vectorIN5Eigen6MatrixIdLi3ELi1ELi0ELi3ELi1EEENS_9allocatorIS4_EEEELi0ELb0EEC2B7v160006IDnvEEOT_, symObjAddr: 0x43E4, symBinAddr: 0x7EEC, symSize: 0x1C }
  - { offsetInCU: 0x45547, offset: 0x45547, size: 0x8, addend: 0x0, symName: __ZNSt3__122__compressed_pair_elemINS_9allocatorINS_6vectorIN5Eigen6MatrixIdLi3ELi1ELi0ELi3ELi1EEENS1_IS5_EEEEEELi1ELb1EEC2B7v160006ENS_18__default_init_tagE, symObjAddr: 0x4400, symBinAddr: 0x7F08, symSize: 0x2C }
  - { offsetInCU: 0x4557C, offset: 0x4557C, size: 0x8, addend: 0x0, symName: __ZNSt3__19allocatorINS_6vectorIN5Eigen6MatrixIdLi3ELi1ELi0ELi3ELi1EEENS0_IS4_EEEEEC2B7v160006Ev, symObjAddr: 0x442C, symBinAddr: 0x7F34, symSize: 0x2C }
  - { offsetInCU: 0x455A6, offset: 0x455A6, size: 0x8, addend: 0x0, symName: __ZNSt3__116__non_trivial_ifILb1ENS_9allocatorINS_6vectorIN5Eigen6MatrixIdLi3ELi1ELi0ELi3ELi1EEENS1_IS5_EEEEEEEC2B7v160006Ev, symObjAddr: 0x4458, symBinAddr: 0x7F60, symSize: 0x14 }
  - { offsetInCU: 0x455D0, offset: 0x455D0, size: 0x8, addend: 0x0, symName: __ZNSt3__16vectorINS0_IN5Eigen6MatrixIdLi3ELi1ELi0ELi3ELi1EEENS_9allocatorIS3_EEEENS4_IS6_EEED2B7v160006Ev, symObjAddr: 0x446C, symBinAddr: 0x7F74, symSize: 0x44 }
  - { offsetInCU: 0x455FA, offset: 0x455FA, size: 0x8, addend: 0x0, symName: __ZNSt3__16vectorINS0_IN5Eigen6MatrixIdLi3ELi1ELi0ELi3ELi1EEENS_9allocatorIS3_EEEENS4_IS6_EEE16__destroy_vectorC1ERS8_, symObjAddr: 0x44B0, symBinAddr: 0x7FB8, symSize: 0x34 }
  - { offsetInCU: 0x45633, offset: 0x45633, size: 0x8, addend: 0x0, symName: __ZNSt3__16vectorINS0_IN5Eigen6MatrixIdLi3ELi1ELi0ELi3ELi1EEENS_9allocatorIS3_EEEENS4_IS6_EEE16__destroy_vectorclB7v160006Ev, symObjAddr: 0x44E4, symBinAddr: 0x7FEC, symSize: 0x9C }
  - { offsetInCU: 0x45659, offset: 0x45659, size: 0x8, addend: 0x0, symName: __ZNSt3__16vectorINS0_IN5Eigen6MatrixIdLi3ELi1ELi0ELi3ELi1EEENS_9allocatorIS3_EEEENS4_IS6_EEE16__destroy_vectorC2ERS8_, symObjAddr: 0x4580, symBinAddr: 0x8088, symSize: 0x20 }
  - { offsetInCU: 0x45692, offset: 0x45692, size: 0x8, addend: 0x0, symName: __ZNKSt3__16vectorINS0_IN5Eigen6MatrixIdLi3ELi1ELi0ELi3ELi1EEENS_9allocatorIS3_EEEENS4_IS6_EEE17__annotate_deleteB7v160006Ev, symObjAddr: 0x45A0, symBinAddr: 0x80A8, symSize: 0xD4 }
  - { offsetInCU: 0x456B8, offset: 0x456B8, size: 0x8, addend: 0x0, symName: __ZNSt3__16vectorINS0_IN5Eigen6MatrixIdLi3ELi1ELi0ELi3ELi1EEENS_9allocatorIS3_EEEENS4_IS6_EEE7__clearB7v160006Ev, symObjAddr: 0x4684, symBinAddr: 0x818C, symSize: 0x28 }
  - { offsetInCU: 0x456DE, offset: 0x456DE, size: 0x8, addend: 0x0, symName: __ZNSt3__116allocator_traitsINS_9allocatorINS_6vectorIN5Eigen6MatrixIdLi3ELi1ELi0ELi3ELi1EEENS1_IS5_EEEEEEE10deallocateB7v160006ERS8_PS7_m, symObjAddr: 0x46AC, symBinAddr: 0x81B4, symSize: 0x34 }
  - { offsetInCU: 0x45720, offset: 0x45720, size: 0x8, addend: 0x0, symName: __ZNSt3__16vectorINS0_IN5Eigen6MatrixIdLi3ELi1ELi0ELi3ELi1EEENS_9allocatorIS3_EEEENS4_IS6_EEE7__allocB7v160006Ev, symObjAddr: 0x46E0, symBinAddr: 0x81E8, symSize: 0x28 }
  - { offsetInCU: 0x45746, offset: 0x45746, size: 0x8, addend: 0x0, symName: __ZNKSt3__16vectorINS0_IN5Eigen6MatrixIdLi3ELi1ELi0ELi3ELi1EEENS_9allocatorIS3_EEEENS4_IS6_EEE8capacityB7v160006Ev, symObjAddr: 0x4708, symBinAddr: 0x8210, symSize: 0x40 }
  - { offsetInCU: 0x4576C, offset: 0x4576C, size: 0x8, addend: 0x0, symName: __ZNKSt3__16vectorINS0_IN5Eigen6MatrixIdLi3ELi1ELi0ELi3ELi1EEENS_9allocatorIS3_EEEENS4_IS6_EEE31__annotate_contiguous_containerB7v160006EPKvSA_SA_SA_, symObjAddr: 0x4748, symBinAddr: 0x8250, symSize: 0x20 }
  - { offsetInCU: 0x457BE, offset: 0x457BE, size: 0x8, addend: 0x0, symName: __ZNKSt3__16vectorINS0_IN5Eigen6MatrixIdLi3ELi1ELi0ELi3ELi1EEENS_9allocatorIS3_EEEENS4_IS6_EEE4dataB7v160006Ev, symObjAddr: 0x4768, symBinAddr: 0x8270, symSize: 0x28 }
  - { offsetInCU: 0x457E4, offset: 0x457E4, size: 0x8, addend: 0x0, symName: __ZNSt3__16vectorINS0_IN5Eigen6MatrixIdLi3ELi1ELi0ELi3ELi1EEENS_9allocatorIS3_EEEENS4_IS6_EEE22__base_destruct_at_endB7v160006EPS6_, symObjAddr: 0x47A4, symBinAddr: 0x82AC, symSize: 0x8C }
  - { offsetInCU: 0x45828, offset: 0x45828, size: 0x8, addend: 0x0, symName: __ZNSt3__116allocator_traitsINS_9allocatorINS_6vectorIN5Eigen6MatrixIdLi3ELi1ELi0ELi3ELi1EEENS1_IS5_EEEEEEE7destroyB7v160006IS7_vEEvRS8_PT_, symObjAddr: 0x4830, symBinAddr: 0x8338, symSize: 0x2C }
  - { offsetInCU: 0x45865, offset: 0x45865, size: 0x8, addend: 0x0, symName: __ZNSt3__19allocatorINS_6vectorIN5Eigen6MatrixIdLi3ELi1ELi0ELi3ELi1EEENS0_IS4_EEEEE7destroyB7v160006EPS6_, symObjAddr: 0x485C, symBinAddr: 0x8364, symSize: 0x28 }
  - { offsetInCU: 0x45899, offset: 0x45899, size: 0x8, addend: 0x0, symName: __ZNSt3__19allocatorINS_6vectorIN5Eigen6MatrixIdLi3ELi1ELi0ELi3ELi1EEENS0_IS4_EEEEE10deallocateB7v160006EPS6_m, symObjAddr: 0x4884, symBinAddr: 0x838C, symSize: 0x44 }
  - { offsetInCU: 0x458DB, offset: 0x458DB, size: 0x8, addend: 0x0, symName: __ZNSt3__117__compressed_pairIPNS_6vectorIN5Eigen6MatrixIdLi3ELi1ELi0ELi3ELi1EEENS_9allocatorIS4_EEEENS5_IS7_EEE6secondB7v160006Ev, symObjAddr: 0x49F0, symBinAddr: 0x84F8, symSize: 0x24 }
  - { offsetInCU: 0x45901, offset: 0x45901, size: 0x8, addend: 0x0, symName: __ZNSt3__122__compressed_pair_elemINS_9allocatorINS_6vectorIN5Eigen6MatrixIdLi3ELi1ELi0ELi3ELi1EEENS1_IS5_EEEEEELi1ELb1EE5__getB7v160006Ev, symObjAddr: 0x4A14, symBinAddr: 0x851C, symSize: 0x14 }
  - { offsetInCU: 0x45927, offset: 0x45927, size: 0x8, addend: 0x0, symName: __ZNKSt3__16vectorINS0_IN5Eigen6MatrixIdLi3ELi1ELi0ELi3ELi1EEENS_9allocatorIS3_EEEENS4_IS6_EEE9__end_capB7v160006Ev, symObjAddr: 0x4A28, symBinAddr: 0x8530, symSize: 0x28 }
  - { offsetInCU: 0x4594D, offset: 0x4594D, size: 0x8, addend: 0x0, symName: __ZNKSt3__117__compressed_pairIPNS_6vectorIN5Eigen6MatrixIdLi3ELi1ELi0ELi3ELi1EEENS_9allocatorIS4_EEEENS5_IS7_EEE5firstB7v160006Ev, symObjAddr: 0x4A50, symBinAddr: 0x8558, symSize: 0x24 }
  - { offsetInCU: 0x45973, offset: 0x45973, size: 0x8, addend: 0x0, symName: __ZNKSt3__122__compressed_pair_elemIPNS_6vectorIN5Eigen6MatrixIdLi3ELi1ELi0ELi3ELi1EEENS_9allocatorIS4_EEEELi0ELb0EE5__getB7v160006Ev, symObjAddr: 0x4A74, symBinAddr: 0x857C, symSize: 0x14 }
  - { offsetInCU: 0x459B7, offset: 0x459B7, size: 0x8, addend: 0x0, symName: __ZNKSt3__113basic_ostreamIcNS_11char_traitsIcEEE6sentrycvbB7v160006Ev, symObjAddr: 0x4C74, symBinAddr: 0x877C, symSize: 0x1C }
  - { offsetInCU: 0x459DD, offset: 0x459DD, size: 0x8, addend: 0x0, symName: __ZNSt3__119ostreambuf_iteratorIcNS_11char_traitsIcEEEC1B7v160006ERNS_13basic_ostreamIcS2_EE, symObjAddr: 0x4ED0, symBinAddr: 0x89D8, symSize: 0x34 }
  - { offsetInCU: 0x45A15, offset: 0x45A15, size: 0x8, addend: 0x0, symName: __ZNKSt3__18ios_base5flagsB7v160006Ev, symObjAddr: 0x4F04, symBinAddr: 0x8A0C, symSize: 0x18 }
  - { offsetInCU: 0x45A3D, offset: 0x45A3D, size: 0x8, addend: 0x0, symName: __ZNKSt3__19basic_iosIcNS_11char_traitsIcEEE4fillB7v160006Ev, symObjAddr: 0x4F1C, symBinAddr: 0x8A24, symSize: 0x64 }
  - { offsetInCU: 0x45A65, offset: 0x45A65, size: 0x8, addend: 0x0, symName: __ZNKSt3__119ostreambuf_iteratorIcNS_11char_traitsIcEEE6failedB7v160006Ev, symObjAddr: 0x4F80, symBinAddr: 0x8A88, symSize: 0x24 }
  - { offsetInCU: 0x45A8B, offset: 0x45A8B, size: 0x8, addend: 0x0, symName: __ZNSt3__19basic_iosIcNS_11char_traitsIcEEE8setstateB7v160006Ej, symObjAddr: 0x4FA4, symBinAddr: 0x8AAC, symSize: 0x2C }
  - { offsetInCU: 0x45AC0, offset: 0x45AC0, size: 0x8, addend: 0x0, symName: __ZNKSt3__18ios_base5widthB7v160006Ev, symObjAddr: 0x4FD0, symBinAddr: 0x8AD8, symSize: 0x18 }
  - { offsetInCU: 0x45AE8, offset: 0x45AE8, size: 0x8, addend: 0x0, symName: __ZNSt3__115basic_streambufIcNS_11char_traitsIcEEE5sputnB7v160006EPKcl, symObjAddr: 0x4FE8, symBinAddr: 0x8AF0, symSize: 0x3C }
  - { offsetInCU: 0x45B2A, offset: 0x45B2A, size: 0x8, addend: 0x0, symName: __ZNSt3__112basic_stringIcNS_11char_traitsIcEENS_9allocatorIcEEEC1B7v160006Emc, symObjAddr: 0x5024, symBinAddr: 0x8B2C, symSize: 0x3C }
  - { offsetInCU: 0x45B72, offset: 0x45B72, size: 0x8, addend: 0x0, symName: __ZNSt3__112basic_stringIcNS_11char_traitsIcEENS_9allocatorIcEEE4dataB7v160006Ev, symObjAddr: 0x5060, symBinAddr: 0x8B68, symSize: 0x28 }
  - { offsetInCU: 0x45B98, offset: 0x45B98, size: 0x8, addend: 0x0, symName: __ZNSt3__18ios_base5widthB7v160006El, symObjAddr: 0x5088, symBinAddr: 0x8B90, symSize: 0x2C }
  - { offsetInCU: 0x45BDE, offset: 0x45BDE, size: 0x8, addend: 0x0, symName: __ZNSt3__112basic_stringIcNS_11char_traitsIcEENS_9allocatorIcEEEC2B7v160006Emc, symObjAddr: 0x50B4, symBinAddr: 0x8BBC, symSize: 0x54 }
  - { offsetInCU: 0x45C26, offset: 0x45C26, size: 0x8, addend: 0x0, symName: __ZNSt3__112basic_stringIcNS_11char_traitsIcEENS_9allocatorIcEEE13__get_pointerB7v160006Ev, symObjAddr: 0x511C, symBinAddr: 0x8C24, symSize: 0x54 }
  - { offsetInCU: 0x45C4C, offset: 0x45C4C, size: 0x8, addend: 0x0, symName: __ZNSt3__112basic_stringIcNS_11char_traitsIcEENS_9allocatorIcEEE18__get_long_pointerB7v160006Ev, symObjAddr: 0x5170, symBinAddr: 0x8C78, symSize: 0x28 }
  - { offsetInCU: 0x45C72, offset: 0x45C72, size: 0x8, addend: 0x0, symName: __ZNSt3__112basic_stringIcNS_11char_traitsIcEENS_9allocatorIcEEE19__get_short_pointerB7v160006Ev, symObjAddr: 0x5198, symBinAddr: 0x8CA0, symSize: 0x28 }
  - { offsetInCU: 0x45C98, offset: 0x45C98, size: 0x8, addend: 0x0, symName: __ZNSt3__117__compressed_pairINS_12basic_stringIcNS_11char_traitsIcEENS_9allocatorIcEEE5__repES5_E5firstB7v160006Ev, symObjAddr: 0x51C0, symBinAddr: 0x8CC8, symSize: 0x24 }
  - { offsetInCU: 0x45CBE, offset: 0x45CBE, size: 0x8, addend: 0x0, symName: __ZNSt3__122__compressed_pair_elemINS_12basic_stringIcNS_11char_traitsIcEENS_9allocatorIcEEE5__repELi0ELb0EE5__getB7v160006Ev, symObjAddr: 0x51E4, symBinAddr: 0x8CEC, symSize: 0x14 }
  - { offsetInCU: 0x45CE4, offset: 0x45CE4, size: 0x8, addend: 0x0, symName: __ZNSt3__114pointer_traitsIPcE10pointer_toB7v160006ERc, symObjAddr: 0x51F8, symBinAddr: 0x8D00, symSize: 0x14 }
  - { offsetInCU: 0x45D07, offset: 0x45D07, size: 0x8, addend: 0x0, symName: __ZNSt3__119ostreambuf_iteratorIcNS_11char_traitsIcEEEC2B7v160006ERNS_13basic_ostreamIcS2_EE, symObjAddr: 0x520C, symBinAddr: 0x8D14, symSize: 0x54 }
  - { offsetInCU: 0x45D3F, offset: 0x45D3F, size: 0x8, addend: 0x0, symName: __ZNKSt3__19basic_iosIcNS_11char_traitsIcEEE5rdbufB7v160006Ev, symObjAddr: 0x5260, symBinAddr: 0x8D68, symSize: 0x24 }
  - { offsetInCU: 0x45D67, offset: 0x45D67, size: 0x8, addend: 0x0, symName: __ZNKSt3__18ios_base5rdbufB7v160006Ev, symObjAddr: 0x5284, symBinAddr: 0x8D8C, symSize: 0x18 }
  - { offsetInCU: 0x45D8D, offset: 0x45D8D, size: 0x8, addend: 0x0, symName: __ZNSt3__111char_traitsIcE11eq_int_typeEii, symObjAddr: 0x529C, symBinAddr: 0x8DA4, symSize: 0x28 }
  - { offsetInCU: 0x45DBE, offset: 0x45DBE, size: 0x8, addend: 0x0, symName: __ZNKSt3__19basic_iosIcNS_11char_traitsIcEEE5widenB7v160006Ec, symObjAddr: 0x52C4, symBinAddr: 0x8DCC, symSize: 0x84 }
  - { offsetInCU: 0x45E2C, offset: 0x45E2C, size: 0x8, addend: 0x0, symName: __ZNKSt3__15ctypeIcE5widenB7v160006Ec, symObjAddr: 0x5374, symBinAddr: 0x8E7C, symSize: 0x38 }
  - { offsetInCU: 0x45E61, offset: 0x45E61, size: 0x8, addend: 0x0, symName: __ZNSt3__18ios_base8setstateB7v160006Ej, symObjAddr: 0x53AC, symBinAddr: 0x8EB4, symSize: 0x34 }
  - { offsetInCU: 0x45E98, offset: 0x45E98, size: 0x8, addend: 0x0, symName: __ZN5Eigen6MatrixIdLin1ELin1ELi0ELin1ELin1EEC2IiiEERKT_RKT0_, symObjAddr: 0x53E0, symBinAddr: 0x8EE8, symSize: 0x7C }
  - { offsetInCU: 0x45EF7, offset: 0x45EF7, size: 0x8, addend: 0x0, symName: __ZN5Eigen15PlainObjectBaseINS_6MatrixIdLin1ELin1ELi0ELin1ELin1EEEE6_init2IiiEEvllPNS_8internal9enable_ifILb1ET_E4typeE, symObjAddr: 0x545C, symBinAddr: 0x8F64, symSize: 0x44 }
  - { offsetInCU: 0x45FB7, offset: 0x45FB7, size: 0x8, addend: 0x0, symName: __ZN5Eigen15PlainObjectBaseINS_6MatrixIdLin1ELin1ELi0ELin1ELin1EEEE6resizeEll, symObjAddr: 0x54A0, symBinAddr: 0x8FA8, symSize: 0x14C }
  - { offsetInCU: 0x46033, offset: 0x46033, size: 0x8, addend: 0x0, symName: __ZN5Eigen12DenseStorageIdLin1ELin1ELin1ELi0EE6resizeElll, symObjAddr: 0x55EC, symBinAddr: 0x90F4, symSize: 0xB4 }
  - { offsetInCU: 0x46086, offset: 0x46086, size: 0x8, addend: 0x0, symName: __ZN5Eigen15PlainObjectBaseINS_6MatrixIdLin1ELin1ELi0ELin1ELin1EEEEaSEOS3_, symObjAddr: 0x585C, symBinAddr: 0x9364, symSize: 0x3C }
  - { offsetInCU: 0x460BB, offset: 0x460BB, size: 0x8, addend: 0x0, symName: __ZN5Eigen12DenseStorageIdLin1ELin1ELin1ELi0EEaSEOS1_, symObjAddr: 0x5898, symBinAddr: 0x93A0, symSize: 0x6C }
  - { offsetInCU: 0x460F0, offset: 0x460F0, size: 0x8, addend: 0x0, symName: __ZNSt3__16vectorIdNS_9allocatorIdEEED2B7v160006Ev, symObjAddr: 0x59D4, symBinAddr: 0x94DC, symSize: 0x44 }
  - { offsetInCU: 0x4611A, offset: 0x4611A, size: 0x8, addend: 0x0, symName: __ZNSt3__16vectorIdNS_9allocatorIdEEE16__destroy_vectorC1ERS3_, symObjAddr: 0x5A18, symBinAddr: 0x9520, symSize: 0x34 }
  - { offsetInCU: 0x46153, offset: 0x46153, size: 0x8, addend: 0x0, symName: __ZNSt3__16vectorIdNS_9allocatorIdEEE16__destroy_vectorclB7v160006Ev, symObjAddr: 0x5A4C, symBinAddr: 0x9554, symSize: 0x9C }
  - { offsetInCU: 0x46179, offset: 0x46179, size: 0x8, addend: 0x0, symName: __ZNSt3__16vectorIdNS_9allocatorIdEEE16__destroy_vectorC2ERS3_, symObjAddr: 0x5AE8, symBinAddr: 0x95F0, symSize: 0x20 }
  - { offsetInCU: 0x461B2, offset: 0x461B2, size: 0x8, addend: 0x0, symName: __ZNKSt3__16vectorIdNS_9allocatorIdEEE17__annotate_deleteB7v160006Ev, symObjAddr: 0x5B08, symBinAddr: 0x9610, symSize: 0xB8 }
  - { offsetInCU: 0x461D8, offset: 0x461D8, size: 0x8, addend: 0x0, symName: __ZNSt3__16vectorIdNS_9allocatorIdEEE7__clearB7v160006Ev, symObjAddr: 0x5BD0, symBinAddr: 0x96D8, symSize: 0x28 }
  - { offsetInCU: 0x461FE, offset: 0x461FE, size: 0x8, addend: 0x0, symName: __ZNSt3__116allocator_traitsINS_9allocatorIdEEE10deallocateB7v160006ERS2_Pdm, symObjAddr: 0x5BF8, symBinAddr: 0x9700, symSize: 0x34 }
  - { offsetInCU: 0x46240, offset: 0x46240, size: 0x8, addend: 0x0, symName: __ZNSt3__16vectorIdNS_9allocatorIdEEE7__allocB7v160006Ev, symObjAddr: 0x5C2C, symBinAddr: 0x9734, symSize: 0x28 }
  - { offsetInCU: 0x46266, offset: 0x46266, size: 0x8, addend: 0x0, symName: __ZNKSt3__16vectorIdNS_9allocatorIdEEE8capacityB7v160006Ev, symObjAddr: 0x5C54, symBinAddr: 0x975C, symSize: 0x40 }
  - { offsetInCU: 0x4628C, offset: 0x4628C, size: 0x8, addend: 0x0, symName: __ZNKSt3__16vectorIdNS_9allocatorIdEEE31__annotate_contiguous_containerB7v160006EPKvS5_S5_S5_, symObjAddr: 0x5C94, symBinAddr: 0x979C, symSize: 0x20 }
  - { offsetInCU: 0x462DE, offset: 0x462DE, size: 0x8, addend: 0x0, symName: __ZNKSt3__16vectorIdNS_9allocatorIdEEE4dataB7v160006Ev, symObjAddr: 0x5CB4, symBinAddr: 0x97BC, symSize: 0x28 }
  - { offsetInCU: 0x46304, offset: 0x46304, size: 0x8, addend: 0x0, symName: __ZNSt3__16vectorIdNS_9allocatorIdEEE22__base_destruct_at_endB7v160006EPd, symObjAddr: 0x5CF0, symBinAddr: 0x97F8, symSize: 0x8C }
  - { offsetInCU: 0x46348, offset: 0x46348, size: 0x8, addend: 0x0, symName: __ZNSt3__116allocator_traitsINS_9allocatorIdEEE7destroyB7v160006IdvEEvRS2_PT_, symObjAddr: 0x5D7C, symBinAddr: 0x9884, symSize: 0x2C }
  - { offsetInCU: 0x46385, offset: 0x46385, size: 0x8, addend: 0x0, symName: __ZNSt3__19allocatorIdE7destroyB7v160006EPd, symObjAddr: 0x5DA8, symBinAddr: 0x98B0, symSize: 0x14 }
  - { offsetInCU: 0x463B9, offset: 0x463B9, size: 0x8, addend: 0x0, symName: __ZNSt3__19allocatorIdE10deallocateB7v160006EPdm, symObjAddr: 0x5DBC, symBinAddr: 0x98C4, symSize: 0x40 }
  - { offsetInCU: 0x463FB, offset: 0x463FB, size: 0x8, addend: 0x0, symName: __ZNSt3__117__compressed_pairIPdNS_9allocatorIdEEE6secondB7v160006Ev, symObjAddr: 0x5DFC, symBinAddr: 0x9904, symSize: 0x24 }
  - { offsetInCU: 0x46421, offset: 0x46421, size: 0x8, addend: 0x0, symName: __ZNSt3__122__compressed_pair_elemINS_9allocatorIdEELi1ELb1EE5__getB7v160006Ev, symObjAddr: 0x5E20, symBinAddr: 0x9928, symSize: 0x14 }
  - { offsetInCU: 0x46447, offset: 0x46447, size: 0x8, addend: 0x0, symName: __ZNKSt3__16vectorIdNS_9allocatorIdEEE9__end_capB7v160006Ev, symObjAddr: 0x5E34, symBinAddr: 0x993C, symSize: 0x28 }
  - { offsetInCU: 0x4646D, offset: 0x4646D, size: 0x8, addend: 0x0, symName: __ZNKSt3__117__compressed_pairIPdNS_9allocatorIdEEE5firstB7v160006Ev, symObjAddr: 0x5E5C, symBinAddr: 0x9964, symSize: 0x24 }
  - { offsetInCU: 0x46493, offset: 0x46493, size: 0x8, addend: 0x0, symName: __ZNKSt3__122__compressed_pair_elemIPdLi0ELb0EE5__getB7v160006Ev, symObjAddr: 0x5E80, symBinAddr: 0x9988, symSize: 0x14 }
  - { offsetInCU: 0x464B9, offset: 0x464B9, size: 0x8, addend: 0x0, symName: __ZN5Eigen9EigenBaseINS_6MatrixIdLin1ELin1ELi0ELin1ELin1EEEE7derivedEv, symObjAddr: 0x5E94, symBinAddr: 0x999C, symSize: 0x14 }
  - { offsetInCU: 0x464DF, offset: 0x464DF, size: 0x8, addend: 0x0, symName: __ZN5Eigen5BlockINS_6MatrixIdLin1ELin1ELi0ELin1ELin1EEELi1ELin1ELb0EEC1ERS2_l, symObjAddr: 0x5EA8, symBinAddr: 0x99B0, symSize: 0x3C }
  - { offsetInCU: 0x46525, offset: 0x46525, size: 0x8, addend: 0x0, symName: __ZN5Eigen5BlockINS_6MatrixIdLin1ELin1ELi0ELin1ELin1EEELi1ELin1ELb0EEC2ERS2_l, symObjAddr: 0x5EE4, symBinAddr: 0x99EC, symSize: 0xCC }
  - { offsetInCU: 0x4656B, offset: 0x4656B, size: 0x8, addend: 0x0, symName: __ZN5Eigen9BlockImplINS_6MatrixIdLin1ELin1ELi0ELin1ELin1EEELi1ELin1ELb0ENS_5DenseEEC2ERS2_l, symObjAddr: 0x5FB0, symBinAddr: 0x9AB8, symSize: 0x3C }
  - { offsetInCU: 0x465B1, offset: 0x465B1, size: 0x8, addend: 0x0, symName: __ZN5Eigen8internal15BlockImpl_denseINS_6MatrixIdLin1ELin1ELi0ELin1ELin1EEELi1ELin1ELb0ELb1EEC2ERS3_l, symObjAddr: 0x5FEC, symBinAddr: 0x9AF4, symSize: 0xAC }
  - { offsetInCU: 0x465F9, offset: 0x465F9, size: 0x8, addend: 0x0, symName: __ZN5Eigen15PlainObjectBaseINS_6MatrixIdLin1ELin1ELi0ELin1ELin1EEEE4dataEv, symObjAddr: 0x6098, symBinAddr: 0x9BA0, symSize: 0x24 }
  - { offsetInCU: 0x4661F, offset: 0x4661F, size: 0x8, addend: 0x0, symName: __ZNK5Eigen6MatrixIdLin1ELin1ELi0ELin1ELin1EE11innerStrideEv, symObjAddr: 0x60BC, symBinAddr: 0x9BC4, symSize: 0x14 }
  - { offsetInCU: 0x46645, offset: 0x46645, size: 0x8, addend: 0x0, symName: __ZN5Eigen7MapBaseINS_5BlockINS_6MatrixIdLin1ELin1ELi0ELin1ELin1EEELi1ELin1ELb0EEELi1EEC2EPdll, symObjAddr: 0x60D0, symBinAddr: 0x9BD8, symSize: 0x44 }
  - { offsetInCU: 0x4669C, offset: 0x4669C, size: 0x8, addend: 0x0, symName: __ZN5Eigen8internal19variable_if_dynamicIlLin1EEC1El, symObjAddr: 0x6114, symBinAddr: 0x9C1C, symSize: 0x34 }
  - { offsetInCU: 0x466D4, offset: 0x466D4, size: 0x8, addend: 0x0, symName: __ZN5Eigen8internal15BlockImpl_denseINS_6MatrixIdLin1ELin1ELi0ELin1ELin1EEELi1ELin1ELb0ELb1EE4initEv, symObjAddr: 0x6148, symBinAddr: 0x9C50, symSize: 0x34 }
  - { offsetInCU: 0x466FA, offset: 0x466FA, size: 0x8, addend: 0x0, symName: __ZN5Eigen12DenseStorageIdLin1ELin1ELin1ELi0EE4dataEv, symObjAddr: 0x617C, symBinAddr: 0x9C84, symSize: 0x18 }
  - { offsetInCU: 0x46720, offset: 0x46720, size: 0x8, addend: 0x0, symName: __ZN5Eigen7MapBaseINS_5BlockINS_6MatrixIdLin1ELin1ELi0ELin1ELin1EEELi1ELin1ELb0EEELi0EEC2EPdll, symObjAddr: 0x6194, symBinAddr: 0x9C9C, symSize: 0x130 }
  - { offsetInCU: 0x46774, offset: 0x46774, size: 0x8, addend: 0x0, symName: __ZN5Eigen10MatrixBaseINS_5BlockINS_6MatrixIdLin1ELin1ELi0ELin1ELin1EEELi1ELin1ELb0EEEEC2Ev, symObjAddr: 0x62C4, symBinAddr: 0x9DCC, symSize: 0x2C }
  - { offsetInCU: 0x4679E, offset: 0x4679E, size: 0x8, addend: 0x0, symName: __ZN5Eigen8internal19variable_if_dynamicIlLi1EEC1El, symObjAddr: 0x62F0, symBinAddr: 0x9DF8, symSize: 0x34 }
  - { offsetInCU: 0x467D6, offset: 0x467D6, size: 0x8, addend: 0x0, symName: __ZNK5Eigen7MapBaseINS_5BlockINS_6MatrixIdLin1ELin1ELi0ELin1ELin1EEELi1ELin1ELb0EEELi0EE11checkSanityIS4_EEvNS_8internal9enable_ifIXeqsr8internal6traitsIT_EE9AlignmentLi0EEPvE4typeE, symObjAddr: 0x6324, symBinAddr: 0x9E2C, symSize: 0x14 }
  - { offsetInCU: 0x46810, offset: 0x46810, size: 0x8, addend: 0x0, symName: __ZN5Eigen9DenseBaseINS_5BlockINS_6MatrixIdLin1ELin1ELi0ELin1ELin1EEELi1ELin1ELb0EEEEC2Ev, symObjAddr: 0x6338, symBinAddr: 0x9E40, symSize: 0x14 }
  - { offsetInCU: 0x4683A, offset: 0x4683A, size: 0x8, addend: 0x0, symName: __ZN5Eigen8internal19variable_if_dynamicIlLi1EEC2El, symObjAddr: 0x634C, symBinAddr: 0x9E54, symSize: 0x64 }
  - { offsetInCU: 0x46872, offset: 0x46872, size: 0x8, addend: 0x0, symName: __ZN5Eigen8internal19variable_if_dynamicIlLin1EEC2El, symObjAddr: 0x63B0, symBinAddr: 0x9EB8, symSize: 0x20 }
  - { offsetInCU: 0x468AA, offset: 0x468AA, size: 0x8, addend: 0x0, symName: __ZN5Eigen6MatrixIdLi3ELi1ELi0ELi3ELi1EEC2ERKdS3_S3_, symObjAddr: 0x63D0, symBinAddr: 0x9ED8, symSize: 0x9C }
  - { offsetInCU: 0x46901, offset: 0x46901, size: 0x8, addend: 0x0, symName: __ZN5Eigen15PlainObjectBaseINS_6MatrixIdLi3ELi1ELi0ELi3ELi1EEEEC2Ev, symObjAddr: 0x646C, symBinAddr: 0x9F74, symSize: 0x34 }
  - { offsetInCU: 0x4692B, offset: 0x4692B, size: 0x8, addend: 0x0, symName: __ZN5Eigen15PlainObjectBaseINS_6MatrixIdLi3ELi1ELi0ELi3ELi1EEEE22_check_template_paramsEv, symObjAddr: 0x64A0, symBinAddr: 0x9FA8, symSize: 0x4 }
  - { offsetInCU: 0x4693F, offset: 0x4693F, size: 0x8, addend: 0x0, symName: __ZN5Eigen12DenseStorageIdLi3ELi3ELi1ELi0EE4dataEv, symObjAddr: 0x64A4, symBinAddr: 0x9FAC, symSize: 0x14 }
  - { offsetInCU: 0x46965, offset: 0x46965, size: 0x8, addend: 0x0, symName: __ZN5Eigen10MatrixBaseINS_6MatrixIdLi3ELi1ELi0ELi3ELi1EEEEC2Ev, symObjAddr: 0x64B8, symBinAddr: 0x9FC0, symSize: 0x2C }
  - { offsetInCU: 0x4698F, offset: 0x4698F, size: 0x8, addend: 0x0, symName: __ZN5Eigen12DenseStorageIdLi3ELi3ELi1ELi0EEC1Ev, symObjAddr: 0x64E4, symBinAddr: 0x9FEC, symSize: 0x2C }
  - { offsetInCU: 0x469B9, offset: 0x469B9, size: 0x8, addend: 0x0, symName: __ZN5Eigen9DenseBaseINS_6MatrixIdLi3ELi1ELi0ELi3ELi1EEEEC2Ev, symObjAddr: 0x6510, symBinAddr: 0xA018, symSize: 0x14 }
  - { offsetInCU: 0x469E3, offset: 0x469E3, size: 0x8, addend: 0x0, symName: __ZN5Eigen12DenseStorageIdLi3ELi3ELi1ELi0EEC2Ev, symObjAddr: 0x6524, symBinAddr: 0xA02C, symSize: 0x2C }
  - { offsetInCU: 0x46A0D, offset: 0x46A0D, size: 0x8, addend: 0x0, symName: __ZN5Eigen8internal11plain_arrayIdLi3ELi0ELi0EEC1Ev, symObjAddr: 0x6550, symBinAddr: 0xA058, symSize: 0x2C }
  - { offsetInCU: 0x46A37, offset: 0x46A37, size: 0x8, addend: 0x0, symName: __ZN5Eigen8internal11plain_arrayIdLi3ELi0ELi0EEC2Ev, symObjAddr: 0x657C, symBinAddr: 0xA084, symSize: 0x2C }
  - { offsetInCU: 0x46A61, offset: 0x46A61, size: 0x8, addend: 0x0, symName: __ZN5Eigen9BlockImplINS_6MatrixIdLin1ELin1ELi0ELin1ELin1EEELi1ELin1ELb0ENS_5DenseEEaSINS1_IdLi3ELi1ELi0ELi3ELi1EEEEERS4_RKNS_9DenseBaseIT_EE, symObjAddr: 0x65AC, symBinAddr: 0xA0B4, symSize: 0x40 }
  - { offsetInCU: 0x46A9E, offset: 0x46A9E, size: 0x8, addend: 0x0, symName: __ZNK5Eigen9EigenBaseINS_6MatrixIdLi3ELi1ELi0ELi3ELi1EEEE7derivedEv, symObjAddr: 0x65EC, symBinAddr: 0xA0F4, symSize: 0x14 }
  - { offsetInCU: 0x46AC4, offset: 0x46AC4, size: 0x8, addend: 0x0, symName: __ZN5Eigen8internal15BlockImpl_denseINS_6MatrixIdLin1ELin1ELi0ELin1ELin1EEELi1ELin1ELb0ELb1EEaSINS2_IdLi3ELi1ELi0ELi3ELi1EEEEERS4_RKNS_9DenseBaseIT_EE, symObjAddr: 0x6600, symBinAddr: 0xA108, symSize: 0x40 }
  - { offsetInCU: 0x46B02, offset: 0x46B02, size: 0x8, addend: 0x0, symName: __ZN5Eigen10MatrixBaseINS_5BlockINS_6MatrixIdLin1ELin1ELi0ELin1ELin1EEELi1ELin1ELb0EEEEaSINS2_IdLi3ELi1ELi0ELi3ELi1EEEEERS4_RKNS_9DenseBaseIT_EE, symObjAddr: 0x6640, symBinAddr: 0xA148, symSize: 0x4C }
  - { offsetInCU: 0x46B41, offset: 0x46B41, size: 0x8, addend: 0x0, symName: __ZN5Eigen9EigenBaseINS_5BlockINS_6MatrixIdLin1ELin1ELi0ELin1ELin1EEELi1ELin1ELb0EEEE7derivedEv, symObjAddr: 0x66DC, symBinAddr: 0xA1E4, symSize: 0x14 }
  - { offsetInCU: 0x46B67, offset: 0x46B67, size: 0x8, addend: 0x0, symName: __ZN5Eigen8internal9assign_opIddEC1Ev, symObjAddr: 0x6728, symBinAddr: 0xA230, symSize: 0x2C }
  - { offsetInCU: 0x46B91, offset: 0x46B91, size: 0x8, addend: 0x0, symName: __ZN5Eigen9TransposeINS_5BlockINS_6MatrixIdLin1ELin1ELi0ELin1ELin1EEELi1ELin1ELb0EEEEC1ERS4_, symObjAddr: 0x6798, symBinAddr: 0xA2A0, symSize: 0x34 }
  - { offsetInCU: 0x46BC9, offset: 0x46BC9, size: 0x8, addend: 0x0, symName: __ZN5Eigen8internal10AssignmentINS_9TransposeINS_5BlockINS_6MatrixIdLin1ELin1ELi0ELin1ELin1EEELi1ELin1ELb0EEEEENS4_IdLi3ELi1ELi0ELi3ELi1EEENS0_9assign_opIddEENS0_11Dense2DenseEvE3runERS7_RKS8_RKSA_, symObjAddr: 0x67CC, symBinAddr: 0xA2D4, symSize: 0x40 }
  - { offsetInCU: 0x46C0B, offset: 0x46C0B, size: 0x8, addend: 0x0, symName: __ZN5Eigen9TransposeINS_5BlockINS_6MatrixIdLin1ELin1ELi0ELin1ELin1EEELi1ELin1ELb0EEEEC2ERS4_, symObjAddr: 0x680C, symBinAddr: 0xA314, symSize: 0x40 }
  - { offsetInCU: 0x46C43, offset: 0x46C43, size: 0x8, addend: 0x0, symName: __ZN5Eigen13TransposeImplINS_5BlockINS_6MatrixIdLin1ELin1ELi0ELin1ELin1EEELi1ELin1ELb0EEENS_5DenseEEC2Ev, symObjAddr: 0x684C, symBinAddr: 0xA354, symSize: 0x2C }
  - { offsetInCU: 0x46C6D, offset: 0x46C6D, size: 0x8, addend: 0x0, symName: __ZN5Eigen10MatrixBaseINS_9TransposeINS_5BlockINS_6MatrixIdLin1ELin1ELi0ELin1ELin1EEELi1ELin1ELb0EEEEEEC2Ev, symObjAddr: 0x6878, symBinAddr: 0xA380, symSize: 0x2C }
  - { offsetInCU: 0x46C97, offset: 0x46C97, size: 0x8, addend: 0x0, symName: __ZN5Eigen9DenseBaseINS_9TransposeINS_5BlockINS_6MatrixIdLin1ELin1ELi0ELin1ELin1EEELi1ELin1ELb0EEEEEEC2Ev, symObjAddr: 0x68A4, symBinAddr: 0xA3AC, symSize: 0x14 }
  - { offsetInCU: 0x46CC1, offset: 0x46CC1, size: 0x8, addend: 0x0, symName: __ZN5Eigen8internal9evaluatorINS_6MatrixIdLi3ELi1ELi0ELi3ELi1EEEEC1ERKS3_, symObjAddr: 0x69AC, symBinAddr: 0xA4B4, symSize: 0x34 }
  - { offsetInCU: 0x46D4F, offset: 0x46D4F, size: 0x8, addend: 0x0, symName: __ZN5Eigen8internal9evaluatorINS_9TransposeINS_5BlockINS_6MatrixIdLin1ELin1ELi0ELin1ELin1EEELi1ELin1ELb0EEEEEEC1ERKS7_, symObjAddr: 0x6AD8, symBinAddr: 0xA5E0, symSize: 0x34 }
  - { offsetInCU: 0x46D87, offset: 0x46D87, size: 0x8, addend: 0x0, symName: __ZNK5Eigen9EigenBaseINS_9TransposeINS_5BlockINS_6MatrixIdLin1ELin1ELi0ELin1ELin1EEELi1ELin1ELb0EEEEEE18const_cast_derivedEv, symObjAddr: 0x6B0C, symBinAddr: 0xA614, symSize: 0x14 }
  - { offsetInCU: 0x46DDA, offset: 0x46DDA, size: 0x8, addend: 0x0, symName: __ZN5Eigen8internal31generic_dense_assignment_kernelINS0_9evaluatorINS_9TransposeINS_5BlockINS_6MatrixIdLin1ELin1ELi0ELin1ELin1EEELi1ELin1ELb0EEEEEEENS2_INS5_IdLi3ELi1ELi0ELi3ELi1EEEEENS0_9assign_opIddEELi0EEC1ERS9_RKSB_RKSD_RS8_, symObjAddr: 0x6B20, symBinAddr: 0xA628, symSize: 0x4C }
  - { offsetInCU: 0x46E45, offset: 0x46E45, size: 0x8, addend: 0x0, symName: __ZN5Eigen8internal21dense_assignment_loopINS0_31generic_dense_assignment_kernelINS0_9evaluatorINS_9TransposeINS_5BlockINS_6MatrixIdLin1ELin1ELi0ELin1ELin1EEELi1ELin1ELb0EEEEEEENS3_INS6_IdLi3ELi1ELi0ELi3ELi1EEEEENS0_9assign_opIddEELi0EEELi1ELi0EE3runERSF_, symObjAddr: 0x6B6C, symBinAddr: 0xA674, symSize: 0x68 }
  - { offsetInCU: 0x46E95, offset: 0x46E95, size: 0x8, addend: 0x0, symName: __ZN5Eigen8internal9evaluatorINS_9TransposeINS_5BlockINS_6MatrixIdLin1ELin1ELi0ELin1ELin1EEELi1ELin1ELb0EEEEEED1Ev, symObjAddr: 0x6BD4, symBinAddr: 0xA6DC, symSize: 0x2C }
  - { offsetInCU: 0x46EC1, offset: 0x46EC1, size: 0x8, addend: 0x0, symName: __ZN5Eigen8internal9evaluatorINS_6MatrixIdLi3ELi1ELi0ELi3ELi1EEEED1Ev, symObjAddr: 0x6C00, symBinAddr: 0xA708, symSize: 0x2C }
  - { offsetInCU: 0x46EEE, offset: 0x46EEE, size: 0x8, addend: 0x0, symName: __ZN5Eigen8internal9evaluatorINS_6MatrixIdLi3ELi1ELi0ELi3ELi1EEEEC2ERKS3_, symObjAddr: 0x6C2C, symBinAddr: 0xA734, symSize: 0x34 }
  - { offsetInCU: 0x46F27, offset: 0x46F27, size: 0x8, addend: 0x0, symName: __ZN5Eigen8internal9evaluatorINS_15PlainObjectBaseINS_6MatrixIdLi3ELi1ELi0ELi3ELi1EEEEEEC2ERKS5_, symObjAddr: 0x6C60, symBinAddr: 0xA768, symSize: 0x78 }
  - { offsetInCU: 0x46F5F, offset: 0x46F5F, size: 0x8, addend: 0x0, symName: __ZN5Eigen8internal14evaluator_baseINS_6MatrixIdLi3ELi1ELi0ELi3ELi1EEEEC2Ev, symObjAddr: 0x6CD8, symBinAddr: 0xA7E0, symSize: 0x14 }
  - { offsetInCU: 0x46F89, offset: 0x46F89, size: 0x8, addend: 0x0, symName: __ZNK5Eigen15PlainObjectBaseINS_6MatrixIdLi3ELi1ELi0ELi3ELi1EEEE4dataEv, symObjAddr: 0x6CEC, symBinAddr: 0xA7F4, symSize: 0x24 }
  - { offsetInCU: 0x46FAF, offset: 0x46FAF, size: 0x8, addend: 0x0, symName: __ZN5Eigen8internal30plainobjectbase_evaluator_dataIdLi0EEC1EPKdl, symObjAddr: 0x6D10, symBinAddr: 0xA818, symSize: 0x3C }
  - { offsetInCU: 0x46FF5, offset: 0x46FF5, size: 0x8, addend: 0x0, symName: __ZN5Eigen8internal14evaluator_baseINS_6MatrixIdLi3ELi1ELi0ELi3ELi1EEEED2Ev, symObjAddr: 0x6D4C, symBinAddr: 0xA854, symSize: 0x14 }
  - { offsetInCU: 0x4701F, offset: 0x4701F, size: 0x8, addend: 0x0, symName: __ZNK5Eigen12DenseStorageIdLi3ELi3ELi1ELi0EE4dataEv, symObjAddr: 0x6D60, symBinAddr: 0xA868, symSize: 0x14 }
  - { offsetInCU: 0x47045, offset: 0x47045, size: 0x8, addend: 0x0, symName: __ZN5Eigen8internal30plainobjectbase_evaluator_dataIdLi0EEC2EPKdl, symObjAddr: 0x6D74, symBinAddr: 0xA87C, symSize: 0x40 }
  - { offsetInCU: 0x4708B, offset: 0x4708B, size: 0x8, addend: 0x0, symName: __ZNK5Eigen15PlainObjectBaseINS_6MatrixIdLi3ELi1ELi0ELi3ELi1EEEE4rowsEv, symObjAddr: 0x6DC4, symBinAddr: 0xA8CC, symSize: 0x20 }
  - { offsetInCU: 0x470B1, offset: 0x470B1, size: 0x8, addend: 0x0, symName: __ZNK5Eigen15PlainObjectBaseINS_6MatrixIdLi3ELi1ELi0ELi3ELi1EEEE4colsEv, symObjAddr: 0x6DE4, symBinAddr: 0xA8EC, symSize: 0x20 }
  - { offsetInCU: 0x470D7, offset: 0x470D7, size: 0x8, addend: 0x0, symName: __ZNK5Eigen9TransposeINS_5BlockINS_6MatrixIdLin1ELin1ELi0ELin1ELin1EEELi1ELin1ELb0EEEE4rowsEv, symObjAddr: 0x6E04, symBinAddr: 0xA90C, symSize: 0x24 }
  - { offsetInCU: 0x470FD, offset: 0x470FD, size: 0x8, addend: 0x0, symName: __ZNK5Eigen9TransposeINS_5BlockINS_6MatrixIdLin1ELin1ELi0ELin1ELin1EEELi1ELin1ELb0EEEE4colsEv, symObjAddr: 0x6E28, symBinAddr: 0xA930, symSize: 0x24 }
  - { offsetInCU: 0x47123, offset: 0x47123, size: 0x8, addend: 0x0, symName: __ZN5Eigen9TransposeINS_5BlockINS_6MatrixIdLin1ELin1ELi0ELin1ELin1EEELi1ELin1ELb0EEEE6resizeEll, symObjAddr: 0x6E4C, symBinAddr: 0xA954, symSize: 0x34 }
  - { offsetInCU: 0x47165, offset: 0x47165, size: 0x8, addend: 0x0, symName: __ZN5Eigen12DenseStorageIdLi3ELi3ELi1ELi0EE4rowsEv, symObjAddr: 0x6E80, symBinAddr: 0xA988, symSize: 0x8 }
  - { offsetInCU: 0x47179, offset: 0x47179, size: 0x8, addend: 0x0, symName: __ZN5Eigen12DenseStorageIdLi3ELi3ELi1ELi0EE4colsEv, symObjAddr: 0x6E88, symBinAddr: 0xA990, symSize: 0x8 }
  - { offsetInCU: 0x4718D, offset: 0x4718D, size: 0x8, addend: 0x0, symName: __ZNK5Eigen7MapBaseINS_5BlockINS_6MatrixIdLin1ELin1ELi0ELin1ELin1EEELi1ELin1ELb0EEELi0EE4colsEv, symObjAddr: 0x6E90, symBinAddr: 0xA998, symSize: 0x38 }
  - { offsetInCU: 0x471B3, offset: 0x471B3, size: 0x8, addend: 0x0, symName: __ZNK5Eigen8internal19variable_if_dynamicIlLin1EE5valueEv, symObjAddr: 0x6EC8, symBinAddr: 0xA9D0, symSize: 0x18 }
  - { offsetInCU: 0x471D9, offset: 0x471D9, size: 0x8, addend: 0x0, symName: __ZNK5Eigen7MapBaseINS_5BlockINS_6MatrixIdLin1ELin1ELi0ELin1ELin1EEELi1ELin1ELb0EEELi0EE4rowsEv, symObjAddr: 0x6EE0, symBinAddr: 0xA9E8, symSize: 0x30 }
  - { offsetInCU: 0x471FF, offset: 0x471FF, size: 0x8, addend: 0x0, symName: __ZN5Eigen8internal19variable_if_dynamicIlLi1EE5valueEv, symObjAddr: 0x6F10, symBinAddr: 0xAA18, symSize: 0x8 }
  - { offsetInCU: 0x47213, offset: 0x47213, size: 0x8, addend: 0x0, symName: __ZN5Eigen9DenseBaseINS_5BlockINS_6MatrixIdLin1ELin1ELi0ELin1ELin1EEELi1ELin1ELb0EEEE6resizeEll, symObjAddr: 0x6F18, symBinAddr: 0xAA20, symSize: 0xBC }
  - { offsetInCU: 0x47257, offset: 0x47257, size: 0x8, addend: 0x0, symName: __ZNK5Eigen9EigenBaseINS_5BlockINS_6MatrixIdLin1ELin1ELi0ELin1ELin1EEELi1ELin1ELb0EEEE4rowsEv, symObjAddr: 0x6FD4, symBinAddr: 0xAADC, symSize: 0x38 }
  - { offsetInCU: 0x4727D, offset: 0x4727D, size: 0x8, addend: 0x0, symName: __ZNK5Eigen9EigenBaseINS_5BlockINS_6MatrixIdLin1ELin1ELi0ELin1ELin1EEELi1ELin1ELb0EEEE4colsEv, symObjAddr: 0x700C, symBinAddr: 0xAB14, symSize: 0x28 }
  - { offsetInCU: 0x472A3, offset: 0x472A3, size: 0x8, addend: 0x0, symName: __ZNK5Eigen9EigenBaseINS_5BlockINS_6MatrixIdLin1ELin1ELi0ELin1ELin1EEELi1ELin1ELb0EEEE7derivedEv, symObjAddr: 0x7034, symBinAddr: 0xAB3C, symSize: 0x14 }
  - { offsetInCU: 0x472C9, offset: 0x472C9, size: 0x8, addend: 0x0, symName: __ZN5Eigen8internal9evaluatorINS_9TransposeINS_5BlockINS_6MatrixIdLin1ELin1ELi0ELin1ELin1EEELi1ELin1ELb0EEEEEEC2ERKS7_, symObjAddr: 0x7048, symBinAddr: 0xAB50, symSize: 0x34 }
  - { offsetInCU: 0x47301, offset: 0x47301, size: 0x8, addend: 0x0, symName: __ZN5Eigen8internal15unary_evaluatorINS_9TransposeINS_5BlockINS_6MatrixIdLin1ELin1ELi0ELin1ELin1EEELi1ELin1ELb0EEEEENS0_10IndexBasedEdEC2ERKS7_, symObjAddr: 0x707C, symBinAddr: 0xAB84, symSize: 0x74 }
  - { offsetInCU: 0x4733A, offset: 0x4733A, size: 0x8, addend: 0x0, symName: __ZN5Eigen8internal14evaluator_baseINS_9TransposeINS_5BlockINS_6MatrixIdLin1ELin1ELi0ELin1ELin1EEELi1ELin1ELb0EEEEEEC2Ev, symObjAddr: 0x70F0, symBinAddr: 0xABF8, symSize: 0x14 }
  - { offsetInCU: 0x47364, offset: 0x47364, size: 0x8, addend: 0x0, symName: __ZNK5Eigen9TransposeINS_5BlockINS_6MatrixIdLin1ELin1ELi0ELin1ELin1EEELi1ELin1ELb0EEEE16nestedExpressionEv, symObjAddr: 0x7104, symBinAddr: 0xAC0C, symSize: 0x14 }
  - { offsetInCU: 0x4738A, offset: 0x4738A, size: 0x8, addend: 0x0, symName: __ZN5Eigen8internal9evaluatorINS_5BlockINS_6MatrixIdLin1ELin1ELi0ELin1ELin1EEELi1ELin1ELb0EEEEC1ERKS5_, symObjAddr: 0x7118, symBinAddr: 0xAC20, symSize: 0x34 }
  - { offsetInCU: 0x473C3, offset: 0x473C3, size: 0x8, addend: 0x0, symName: __ZN5Eigen8internal14evaluator_baseINS_9TransposeINS_5BlockINS_6MatrixIdLin1ELin1ELi0ELin1ELin1EEELi1ELin1ELb0EEEEEED2Ev, symObjAddr: 0x714C, symBinAddr: 0xAC54, symSize: 0x14 }
  - { offsetInCU: 0x473ED, offset: 0x473ED, size: 0x8, addend: 0x0, symName: __ZN5Eigen8internal9evaluatorINS_5BlockINS_6MatrixIdLin1ELin1ELi0ELin1ELin1EEELi1ELin1ELb0EEEEC2ERKS5_, symObjAddr: 0x7160, symBinAddr: 0xAC68, symSize: 0x34 }
  - { offsetInCU: 0x47426, offset: 0x47426, size: 0x8, addend: 0x0, symName: __ZN5Eigen8internal15block_evaluatorINS_6MatrixIdLin1ELin1ELi0ELin1ELin1EEELi1ELin1ELb0ELb1EEC2ERKNS_5BlockIS3_Li1ELin1ELb0EEE, symObjAddr: 0x7194, symBinAddr: 0xAC9C, symSize: 0xDC }
  - { offsetInCU: 0x4745F, offset: 0x4745F, size: 0x8, addend: 0x0, symName: __ZN5Eigen8internal17mapbase_evaluatorINS_5BlockINS_6MatrixIdLin1ELin1ELi0ELin1ELin1EEELi1ELin1ELb0EEENS3_IdLi1ELin1ELi1ELi1ELin1EEEEC2ERKS5_, symObjAddr: 0x7270, symBinAddr: 0xAD78, symSize: 0xB0 }
  - { offsetInCU: 0x47498, offset: 0x47498, size: 0x8, addend: 0x0, symName: __ZNK5Eigen7MapBaseINS_5BlockINS_6MatrixIdLin1ELin1ELi0ELin1ELin1EEELi1ELin1ELb0EEELi1EE4dataEv, symObjAddr: 0x7320, symBinAddr: 0xAE28, symSize: 0x18 }
  - { offsetInCU: 0x474BE, offset: 0x474BE, size: 0x8, addend: 0x0, symName: __ZN5Eigen8internal17mapbase_evaluatorINS_5BlockINS_6MatrixIdLin1ELin1ELi0ELin1ELin1EEELi1ELin1ELb0EEENS3_IdLi1ELin1ELi1ELi1ELin1EEEED2Ev, symObjAddr: 0x7338, symBinAddr: 0xAE40, symSize: 0x2C }
  - { offsetInCU: 0x474EB, offset: 0x474EB, size: 0x8, addend: 0x0, symName: __ZN5Eigen8internal14evaluator_baseINS_5BlockINS_6MatrixIdLin1ELin1ELi0ELin1ELin1EEELi1ELin1ELb0EEEEC2Ev, symObjAddr: 0x7364, symBinAddr: 0xAE6C, symSize: 0x14 }
  - { offsetInCU: 0x47515, offset: 0x47515, size: 0x8, addend: 0x0, symName: __ZNK5Eigen8internal15BlockImpl_denseINS_6MatrixIdLin1ELin1ELi0ELin1ELin1EEELi1ELin1ELb0ELb1EE11innerStrideEv, symObjAddr: 0x7378, symBinAddr: 0xAE80, symSize: 0x28 }
  - { offsetInCU: 0x4753B, offset: 0x4753B, size: 0x8, addend: 0x0, symName: __ZNK5Eigen8internal15BlockImpl_denseINS_6MatrixIdLin1ELin1ELi0ELin1ELin1EEELi1ELin1ELb0ELb1EE11outerStrideEv, symObjAddr: 0x73A0, symBinAddr: 0xAEA8, symSize: 0x28 }
  - { offsetInCU: 0x47561, offset: 0x47561, size: 0x8, addend: 0x0, symName: __ZN5Eigen8internal14evaluator_baseINS_5BlockINS_6MatrixIdLin1ELin1ELi0ELin1ELin1EEELi1ELin1ELb0EEEED2Ev, symObjAddr: 0x73C8, symBinAddr: 0xAED0, symSize: 0x14 }
  - { offsetInCU: 0x4758B, offset: 0x4758B, size: 0x8, addend: 0x0, symName: __ZNK5Eigen6MatrixIdLin1ELin1ELi0ELin1ELin1EE11outerStrideEv, symObjAddr: 0x73DC, symBinAddr: 0xAEE4, symSize: 0x34 }
  - { offsetInCU: 0x475B1, offset: 0x475B1, size: 0x8, addend: 0x0, symName: __ZNK5Eigen9DenseBaseINS_6MatrixIdLin1ELin1ELi0ELin1ELin1EEEE9innerSizeEv, symObjAddr: 0x7410, symBinAddr: 0xAF18, symSize: 0x24 }
  - { offsetInCU: 0x475D7, offset: 0x475D7, size: 0x8, addend: 0x0, symName: __ZN5Eigen8internal31generic_dense_assignment_kernelINS0_9evaluatorINS_9TransposeINS_5BlockINS_6MatrixIdLin1ELin1ELi0ELin1ELin1EEELi1ELin1ELb0EEEEEEENS2_INS5_IdLi3ELi1ELi0ELi3ELi1EEEEENS0_9assign_opIddEELi0EEC2ERS9_RKSB_RKSD_RS8_, symObjAddr: 0x7434, symBinAddr: 0xAF3C, symSize: 0x44 }
  - { offsetInCU: 0x4763D, offset: 0x4763D, size: 0x8, addend: 0x0, symName: __ZNK5Eigen8internal31generic_dense_assignment_kernelINS0_9evaluatorINS_9TransposeINS_5BlockINS_6MatrixIdLin1ELin1ELi0ELin1ELin1EEELi1ELin1ELb0EEEEEEENS2_INS5_IdLi3ELi1ELi0ELi3ELi1EEEEENS0_9assign_opIddEELi0EE4sizeEv, symObjAddr: 0x7478, symBinAddr: 0xAF80, symSize: 0x28 }
  - { offsetInCU: 0x47663, offset: 0x47663, size: 0x8, addend: 0x0, symName: __ZN5Eigen8internal31generic_dense_assignment_kernelINS0_9evaluatorINS_9TransposeINS_5BlockINS_6MatrixIdLin1ELin1ELi0ELin1ELin1EEELi1ELin1ELb0EEEEEEENS2_INS5_IdLi3ELi1ELi0ELi3ELi1EEEEENS0_9assign_opIddEELi0EE11assignCoeffEl, symObjAddr: 0x74A0, symBinAddr: 0xAFA8, symSize: 0x60 }
  - { offsetInCU: 0x47698, offset: 0x47698, size: 0x8, addend: 0x0, symName: __ZNK5Eigen9EigenBaseINS_9TransposeINS_5BlockINS_6MatrixIdLin1ELin1ELi0ELin1ELin1EEELi1ELin1ELb0EEEEEE4sizeEv, symObjAddr: 0x7500, symBinAddr: 0xB008, symSize: 0x44 }
  - { offsetInCU: 0x476BE, offset: 0x476BE, size: 0x8, addend: 0x0, symName: __ZNK5Eigen9EigenBaseINS_9TransposeINS_5BlockINS_6MatrixIdLin1ELin1ELi0ELin1ELin1EEELi1ELin1ELb0EEEEEE4rowsEv, symObjAddr: 0x7544, symBinAddr: 0xB04C, symSize: 0x38 }
  - { offsetInCU: 0x476E4, offset: 0x476E4, size: 0x8, addend: 0x0, symName: __ZNK5Eigen9EigenBaseINS_9TransposeINS_5BlockINS_6MatrixIdLin1ELin1ELi0ELin1ELin1EEELi1ELin1ELb0EEEEEE4colsEv, symObjAddr: 0x757C, symBinAddr: 0xB084, symSize: 0x28 }
  - { offsetInCU: 0x4770A, offset: 0x4770A, size: 0x8, addend: 0x0, symName: __ZNK5Eigen9EigenBaseINS_9TransposeINS_5BlockINS_6MatrixIdLin1ELin1ELi0ELin1ELin1EEELi1ELin1ELb0EEEEEE7derivedEv, symObjAddr: 0x75A4, symBinAddr: 0xB0AC, symSize: 0x14 }
  - { offsetInCU: 0x47730, offset: 0x47730, size: 0x8, addend: 0x0, symName: __ZNK5Eigen8internal9assign_opIddE11assignCoeffERdRKd, symObjAddr: 0x75B8, symBinAddr: 0xB0C0, symSize: 0x28 }
  - { offsetInCU: 0x47772, offset: 0x47772, size: 0x8, addend: 0x0, symName: __ZN5Eigen8internal15unary_evaluatorINS_9TransposeINS_5BlockINS_6MatrixIdLin1ELin1ELi0ELin1ELin1EEELi1ELin1ELb0EEEEENS0_10IndexBasedEdE8coeffRefEl, symObjAddr: 0x75E0, symBinAddr: 0xB0E8, symSize: 0x2C }
  - { offsetInCU: 0x477A7, offset: 0x477A7, size: 0x8, addend: 0x0, symName: __ZNK5Eigen8internal9evaluatorINS_15PlainObjectBaseINS_6MatrixIdLi3ELi1ELi0ELi3ELi1EEEEEE5coeffEl, symObjAddr: 0x760C, symBinAddr: 0xB114, symSize: 0x24 }
  - { offsetInCU: 0x477DB, offset: 0x477DB, size: 0x8, addend: 0x0, symName: __ZN5Eigen8internal17mapbase_evaluatorINS_5BlockINS_6MatrixIdLin1ELin1ELi0ELin1ELin1EEELi1ELin1ELb0EEENS3_IdLi1ELin1ELi1ELi1ELin1EEEE8coeffRefEl, symObjAddr: 0x7630, symBinAddr: 0xB138, symSize: 0x4C }
  - { offsetInCU: 0x47810, offset: 0x47810, size: 0x8, addend: 0x0, symName: __ZN5Eigen8internal9evaluatorINS_9TransposeINS_5BlockINS_6MatrixIdLin1ELin1ELi0ELin1ELin1EEELi1ELin1ELb0EEEEEED2Ev, symObjAddr: 0x767C, symBinAddr: 0xB184, symSize: 0x2C }
  - { offsetInCU: 0x4783C, offset: 0x4783C, size: 0x8, addend: 0x0, symName: __ZN5Eigen8internal15unary_evaluatorINS_9TransposeINS_5BlockINS_6MatrixIdLin1ELin1ELi0ELin1ELin1EEELi1ELin1ELb0EEEEENS0_10IndexBasedEdED2Ev, symObjAddr: 0x76A8, symBinAddr: 0xB1B0, symSize: 0x34 }
  - { offsetInCU: 0x47868, offset: 0x47868, size: 0x8, addend: 0x0, symName: __ZN5Eigen8internal9evaluatorINS_5BlockINS_6MatrixIdLin1ELin1ELi0ELin1ELin1EEELi1ELin1ELb0EEEED1Ev, symObjAddr: 0x76DC, symBinAddr: 0xB1E4, symSize: 0x2C }
  - { offsetInCU: 0x47895, offset: 0x47895, size: 0x8, addend: 0x0, symName: __ZN5Eigen8internal9evaluatorINS_5BlockINS_6MatrixIdLin1ELin1ELi0ELin1ELin1EEELi1ELin1ELb0EEEED2Ev, symObjAddr: 0x7708, symBinAddr: 0xB210, symSize: 0x2C }
  - { offsetInCU: 0x478C2, offset: 0x478C2, size: 0x8, addend: 0x0, symName: __ZN5Eigen8internal15block_evaluatorINS_6MatrixIdLin1ELin1ELi0ELin1ELin1EEELi1ELin1ELb0ELb1EED2Ev, symObjAddr: 0x7734, symBinAddr: 0xB23C, symSize: 0x2C }
  - { offsetInCU: 0x478EF, offset: 0x478EF, size: 0x8, addend: 0x0, symName: __ZN5Eigen8internal9evaluatorINS_6MatrixIdLi3ELi1ELi0ELi3ELi1EEEED2Ev, symObjAddr: 0x7760, symBinAddr: 0xB268, symSize: 0x2C }
  - { offsetInCU: 0x4791C, offset: 0x4791C, size: 0x8, addend: 0x0, symName: __ZN5Eigen8internal9evaluatorINS_15PlainObjectBaseINS_6MatrixIdLi3ELi1ELi0ELi3ELi1EEEEEED2Ev, symObjAddr: 0x778C, symBinAddr: 0xB294, symSize: 0x2C }
  - { offsetInCU: 0x47948, offset: 0x47948, size: 0x8, addend: 0x0, symName: __ZN5Eigen8internal9assign_opIddEC2Ev, symObjAddr: 0x77B8, symBinAddr: 0xB2C0, symSize: 0x14 }
  - { offsetInCU: 0x47972, offset: 0x47972, size: 0x8, addend: 0x0, symName: __ZNSt3__16vectorIdNS_9allocatorIdEEEC2B7v160006Ev, symObjAddr: 0x77CC, symBinAddr: 0xB2D4, symSize: 0x58 }
  - { offsetInCU: 0x4799C, offset: 0x4799C, size: 0x8, addend: 0x0, symName: __ZNSt3__117__compressed_pairIPdNS_9allocatorIdEEEC1B7v160006IDnNS_18__default_init_tagEEEOT_OT0_, symObjAddr: 0x7824, symBinAddr: 0xB32C, symSize: 0x3C }
  - { offsetInCU: 0x479F4, offset: 0x479F4, size: 0x8, addend: 0x0, symName: __ZNSt3__117__compressed_pairIPdNS_9allocatorIdEEEC2B7v160006IDnNS_18__default_init_tagEEEOT_OT0_, symObjAddr: 0x7870, symBinAddr: 0xB378, symSize: 0x40 }
  - { offsetInCU: 0x47A4C, offset: 0x47A4C, size: 0x8, addend: 0x0, symName: __ZNSt3__122__compressed_pair_elemIPdLi0ELb0EEC2B7v160006IDnvEEOT_, symObjAddr: 0x78B0, symBinAddr: 0xB3B8, symSize: 0x1C }
  - { offsetInCU: 0x47A8E, offset: 0x47A8E, size: 0x8, addend: 0x0, symName: __ZNSt3__122__compressed_pair_elemINS_9allocatorIdEELi1ELb1EEC2B7v160006ENS_18__default_init_tagE, symObjAddr: 0x78CC, symBinAddr: 0xB3D4, symSize: 0x2C }
  - { offsetInCU: 0x47AC3, offset: 0x47AC3, size: 0x8, addend: 0x0, symName: __ZNSt3__19allocatorIdEC2B7v160006Ev, symObjAddr: 0x78F8, symBinAddr: 0xB400, symSize: 0x2C }
  - { offsetInCU: 0x47AED, offset: 0x47AED, size: 0x8, addend: 0x0, symName: __ZNSt3__116__non_trivial_ifILb1ENS_9allocatorIdEEEC2B7v160006Ev, symObjAddr: 0x7924, symBinAddr: 0xB42C, symSize: 0x14 }
  - { offsetInCU: 0x47B17, offset: 0x47B17, size: 0x8, addend: 0x0, symName: __ZNSt3__19basic_iosIcNS_11char_traitsIcEEEC2B7v160006Ev, symObjAddr: 0x7938, symBinAddr: 0xB440, symSize: 0x44 }
  - { offsetInCU: 0x47B41, offset: 0x47B41, size: 0x8, addend: 0x0, symName: __ZNSt3__114basic_iostreamIcNS_11char_traitsIcEEEC2B7v160006EPNS_15basic_streambufIcS2_EE, symObjAddr: 0x797C, symBinAddr: 0xB484, symSize: 0xAC }
  - { offsetInCU: 0x47B87, offset: 0x47B87, size: 0x8, addend: 0x0, symName: __ZNSt3__115basic_stringbufIcNS_11char_traitsIcEENS_9allocatorIcEEEC1B7v160006ERKNS_12basic_stringIcS2_S4_EEj, symObjAddr: 0x7A28, symBinAddr: 0xB530, symSize: 0x3C }
  - { offsetInCU: 0x47BCD, offset: 0x47BCD, size: 0x8, addend: 0x0, symName: __ZNSt3__18ios_baseC2B7v160006Ev, symObjAddr: 0x7A64, symBinAddr: 0xB56C, symSize: 0x24 }
  - { offsetInCU: 0x47BF7, offset: 0x47BF7, size: 0x8, addend: 0x0, symName: __ZNSt3__113basic_istreamIcNS_11char_traitsIcEEEC2B7v160006EPNS_15basic_streambufIcS2_EE, symObjAddr: 0x7A88, symBinAddr: 0xB590, symSize: 0x64 }
  - { offsetInCU: 0x47C3C, offset: 0x47C3C, size: 0x8, addend: 0x0, symName: __ZNSt3__113basic_ostreamIcNS_11char_traitsIcEEEC2B7v160006Ev, symObjAddr: 0x7AEC, symBinAddr: 0xB5F4, symSize: 0x34 }
  - { offsetInCU: 0x47C73, offset: 0x47C73, size: 0x8, addend: 0x0, symName: __ZNSt3__19basic_iosIcNS_11char_traitsIcEEE4initB7v160006EPNS_15basic_streambufIcS2_EE, symObjAddr: 0x7B20, symBinAddr: 0xB628, symSize: 0x44 }
  - { offsetInCU: 0x47CAA, offset: 0x47CAA, size: 0x8, addend: 0x0, symName: __ZNSt3__115basic_stringbufIcNS_11char_traitsIcEENS_9allocatorIcEEEC2B7v160006ERKNS_12basic_stringIcS2_S4_EEj, symObjAddr: 0x7B64, symBinAddr: 0xB66C, symSize: 0xB4 }
  - { offsetInCU: 0x47CF0, offset: 0x47CF0, size: 0x8, addend: 0x0, symName: __ZNKSt3__112basic_stringIcNS_11char_traitsIcEENS_9allocatorIcEEE13get_allocatorB7v160006Ev, symObjAddr: 0x7C18, symBinAddr: 0xB720, symSize: 0x24 }
  - { offsetInCU: 0x47D16, offset: 0x47D16, size: 0x8, addend: 0x0, symName: __ZNSt3__112basic_stringIcNS_11char_traitsIcEENS_9allocatorIcEEEC1B7v160006ERKS4_, symObjAddr: 0x7C3C, symBinAddr: 0xB744, symSize: 0x34 }
  - { offsetInCU: 0x47D4F, offset: 0x47D4F, size: 0x8, addend: 0x0, symName: __ZNKSt3__112basic_stringIcNS_11char_traitsIcEENS_9allocatorIcEEE7__allocB7v160006Ev, symObjAddr: 0x7C70, symBinAddr: 0xB778, symSize: 0x24 }
  - { offsetInCU: 0x47D75, offset: 0x47D75, size: 0x8, addend: 0x0, symName: __ZNKSt3__117__compressed_pairINS_12basic_stringIcNS_11char_traitsIcEENS_9allocatorIcEEE5__repES5_E6secondB7v160006Ev, symObjAddr: 0x7C94, symBinAddr: 0xB79C, symSize: 0x24 }
  - { offsetInCU: 0x47D9B, offset: 0x47D9B, size: 0x8, addend: 0x0, symName: __ZNKSt3__122__compressed_pair_elemINS_9allocatorIcEELi1ELb1EE5__getB7v160006Ev, symObjAddr: 0x7CB8, symBinAddr: 0xB7C0, symSize: 0x14 }
  - { offsetInCU: 0x47DC1, offset: 0x47DC1, size: 0x8, addend: 0x0, symName: __ZNSt3__112basic_stringIcNS_11char_traitsIcEENS_9allocatorIcEEEC2B7v160006ERKS4_, symObjAddr: 0x7CCC, symBinAddr: 0xB7D4, symSize: 0x54 }
  - { offsetInCU: 0x47DFA, offset: 0x47DFA, size: 0x8, addend: 0x0, symName: __ZNSt3__117__compressed_pairINS_12basic_stringIcNS_11char_traitsIcEENS_9allocatorIcEEE5__repES5_EC1B7v160006INS_18__default_init_tagERKS5_EEOT_OT0_, symObjAddr: 0x7D20, symBinAddr: 0xB828, symSize: 0x3C }
  - { offsetInCU: 0x47E52, offset: 0x47E52, size: 0x8, addend: 0x0, symName: __ZNSt3__112basic_stringIcNS_11char_traitsIcEENS_9allocatorIcEEE14__default_initB7v160006Ev, symObjAddr: 0x7D5C, symBinAddr: 0xB864, symSize: 0x40 }
  - { offsetInCU: 0x47E78, offset: 0x47E78, size: 0x8, addend: 0x0, symName: __ZNSt3__117__compressed_pairINS_12basic_stringIcNS_11char_traitsIcEENS_9allocatorIcEEE5__repES5_EC2B7v160006INS_18__default_init_tagERKS5_EEOT_OT0_, symObjAddr: 0x7D9C, symBinAddr: 0xB8A4, symSize: 0x40 }
  - { offsetInCU: 0x47ED0, offset: 0x47ED0, size: 0x8, addend: 0x0, symName: __ZNSt3__122__compressed_pair_elemINS_9allocatorIcEELi1ELb1EEC2B7v160006IRKS2_vEEOT_, symObjAddr: 0x7DDC, symBinAddr: 0xB8E4, symSize: 0x18 }
  - { offsetInCU: 0x47F12, offset: 0x47F12, size: 0x8, addend: 0x0, symName: __ZNKSt3__19basic_iosIcNS_11char_traitsIcEEE4failB7v160006Ev, symObjAddr: 0x7DF4, symBinAddr: 0xB8FC, symSize: 0x28 }
  - { offsetInCU: 0x47F38, offset: 0x47F38, size: 0x8, addend: 0x0, symName: __ZNKSt3__18ios_base4failB7v160006Ev, symObjAddr: 0x7E1C, symBinAddr: 0xB924, symSize: 0x28 }
  - { offsetInCU: 0x47F60, offset: 0x47F60, size: 0x8, addend: 0x0, symName: __ZNSt3__16vectorIdNS_9allocatorIdEEE9__end_capB7v160006Ev, symObjAddr: 0x7E44, symBinAddr: 0xB94C, symSize: 0x28 }
  - { offsetInCU: 0x47F86, offset: 0x47F86, size: 0x8, addend: 0x0, symName: __ZNSt3__16vectorIdNS_9allocatorIdEEE22__construct_one_at_endB7v160006IJRKdEEEvDpOT_, symObjAddr: 0x7E6C, symBinAddr: 0xB974, symSize: 0x90 }
  - { offsetInCU: 0x47FD5, offset: 0x47FD5, size: 0x8, addend: 0x0, symName: __ZNSt3__16vectorIdNS_9allocatorIdEEE21__push_back_slow_pathIRKdEEvOT_, symObjAddr: 0x7EFC, symBinAddr: 0xBA04, symSize: 0xD8 }
  - { offsetInCU: 0x48033, offset: 0x48033, size: 0x8, addend: 0x0, symName: __ZNSt3__117__compressed_pairIPdNS_9allocatorIdEEE5firstB7v160006Ev, symObjAddr: 0x7FD4, symBinAddr: 0xBADC, symSize: 0x24 }
  - { offsetInCU: 0x48059, offset: 0x48059, size: 0x8, addend: 0x0, symName: __ZNSt3__122__compressed_pair_elemIPdLi0ELb0EE5__getB7v160006Ev, symObjAddr: 0x7FF8, symBinAddr: 0xBB00, symSize: 0x14 }
  - { offsetInCU: 0x48098, offset: 0x48098, size: 0x8, addend: 0x0, symName: __ZNSt3__16vectorIdNS_9allocatorIdEEE21_ConstructTransactionC1B7v160006ERS3_m, symObjAddr: 0x800C, symBinAddr: 0xBB14, symSize: 0x3C }
  - { offsetInCU: 0x480E0, offset: 0x480E0, size: 0x8, addend: 0x0, symName: __ZNSt3__116allocator_traitsINS_9allocatorIdEEE9constructB7v160006IdJRKdEvEEvRS2_PT_DpOT0_, symObjAddr: 0x8048, symBinAddr: 0xBB50, symSize: 0x34 }
  - { offsetInCU: 0x48137, offset: 0x48137, size: 0x8, addend: 0x0, symName: __ZNSt3__16vectorIdNS_9allocatorIdEEE21_ConstructTransactionD1B7v160006Ev, symObjAddr: 0x807C, symBinAddr: 0xBB84, symSize: 0x2C }
  - { offsetInCU: 0x48161, offset: 0x48161, size: 0x8, addend: 0x0, symName: __ZNSt3__16vectorIdNS_9allocatorIdEEE21_ConstructTransactionC2B7v160006ERS3_m, symObjAddr: 0x80A8, symBinAddr: 0xBBB0, symSize: 0x44 }
  - { offsetInCU: 0x481A9, offset: 0x481A9, size: 0x8, addend: 0x0, symName: __ZNSt3__19allocatorIdE9constructB7v160006IdJRKdEEEvPT_DpOT0_, symObjAddr: 0x80EC, symBinAddr: 0xBBF4, symSize: 0x28 }
  - { offsetInCU: 0x481FF, offset: 0x481FF, size: 0x8, addend: 0x0, symName: __ZNSt3__16vectorIdNS_9allocatorIdEEE21_ConstructTransactionD2B7v160006Ev, symObjAddr: 0x8114, symBinAddr: 0xBC1C, symSize: 0x20 }
  - { offsetInCU: 0x48229, offset: 0x48229, size: 0x8, addend: 0x0, symName: __ZNKSt3__16vectorIdNS_9allocatorIdEEE11__recommendB7v160006Em, symObjAddr: 0x8134, symBinAddr: 0xBC3C, symSize: 0xB4 }
  - { offsetInCU: 0x4827E, offset: 0x4827E, size: 0x8, addend: 0x0, symName: __ZNSt3__114__split_bufferIdRNS_9allocatorIdEEEC1EmmS3_, symObjAddr: 0x81E8, symBinAddr: 0xBCF0, symSize: 0x44 }
  - { offsetInCU: 0x482D4, offset: 0x482D4, size: 0x8, addend: 0x0, symName: __ZNSt3__114__split_bufferIdRNS_9allocatorIdEEED1Ev, symObjAddr: 0x8344, symBinAddr: 0xBE4C, symSize: 0x2C }
  - { offsetInCU: 0x48300, offset: 0x48300, size: 0x8, addend: 0x0, symName: __ZNKSt3__16vectorIdNS_9allocatorIdEEE8max_sizeEv, symObjAddr: 0x8370, symBinAddr: 0xBE78, symSize: 0x60 }
  - { offsetInCU: 0x48328, offset: 0x48328, size: 0x8, addend: 0x0, symName: __ZNKSt3__16vectorIdNS_9allocatorIdEEE20__throw_length_errorB7v160006Ev, symObjAddr: 0x83D0, symBinAddr: 0xBED8, symSize: 0x1C }
  - { offsetInCU: 0x48358, offset: 0x48358, size: 0x8, addend: 0x0, symName: __ZNSt3__116allocator_traitsINS_9allocatorIdEEE8max_sizeB7v160006IS2_vEEmRKS2_, symObjAddr: 0x8444, symBinAddr: 0xBF4C, symSize: 0x24 }
  - { offsetInCU: 0x48386, offset: 0x48386, size: 0x8, addend: 0x0, symName: __ZNKSt3__16vectorIdNS_9allocatorIdEEE7__allocB7v160006Ev, symObjAddr: 0x8468, symBinAddr: 0xBF70, symSize: 0x28 }
  - { offsetInCU: 0x483AC, offset: 0x483AC, size: 0x8, addend: 0x0, symName: __ZNSt3__114numeric_limitsIlE3maxB7v160006Ev, symObjAddr: 0x8490, symBinAddr: 0xBF98, symSize: 0x14 }
  - { offsetInCU: 0x483D4, offset: 0x483D4, size: 0x8, addend: 0x0, symName: __ZNKSt3__16__lessImmEclB7v160006ERKmS3_, symObjAddr: 0x84F8, symBinAddr: 0xC000, symSize: 0x34 }
  - { offsetInCU: 0x48416, offset: 0x48416, size: 0x8, addend: 0x0, symName: __ZNKSt3__19allocatorIdE8max_sizeB7v160006Ev, symObjAddr: 0x852C, symBinAddr: 0xC034, symSize: 0x14 }
  - { offsetInCU: 0x4843C, offset: 0x4843C, size: 0x8, addend: 0x0, symName: __ZNKSt3__117__compressed_pairIPdNS_9allocatorIdEEE6secondB7v160006Ev, symObjAddr: 0x8540, symBinAddr: 0xC048, symSize: 0x24 }
  - { offsetInCU: 0x48462, offset: 0x48462, size: 0x8, addend: 0x0, symName: __ZNKSt3__122__compressed_pair_elemINS_9allocatorIdEELi1ELb1EE5__getB7v160006Ev, symObjAddr: 0x8564, symBinAddr: 0xC06C, symSize: 0x14 }
  - { offsetInCU: 0x48488, offset: 0x48488, size: 0x8, addend: 0x0, symName: __ZNSt3__123__libcpp_numeric_limitsIlLb1EE3maxB7v160006Ev, symObjAddr: 0x8578, symBinAddr: 0xC080, symSize: 0x8 }
  - { offsetInCU: 0x4849C, offset: 0x4849C, size: 0x8, addend: 0x0, symName: __ZNSt12length_errorC1B7v160006EPKc, symObjAddr: 0x85E4, symBinAddr: 0xC0EC, symSize: 0x34 }
  - { offsetInCU: 0x484D4, offset: 0x484D4, size: 0x8, addend: 0x0, symName: __ZNSt12length_errorC2B7v160006EPKc, symObjAddr: 0x8618, symBinAddr: 0xC120, symSize: 0x4C }
  - { offsetInCU: 0x4850C, offset: 0x4850C, size: 0x8, addend: 0x0, symName: __ZNSt3__114__split_bufferIdRNS_9allocatorIdEEEC2EmmS3_, symObjAddr: 0x86B8, symBinAddr: 0xC1C0, symSize: 0xD4 }
  - { offsetInCU: 0x4857F, offset: 0x4857F, size: 0x8, addend: 0x0, symName: __ZNSt3__117__compressed_pairIPdRNS_9allocatorIdEEEC1B7v160006IDnS4_EEOT_OT0_, symObjAddr: 0x878C, symBinAddr: 0xC294, symSize: 0x3C }
  - { offsetInCU: 0x485D7, offset: 0x485D7, size: 0x8, addend: 0x0, symName: __ZNSt3__114__split_bufferIdRNS_9allocatorIdEEE7__allocB7v160006Ev, symObjAddr: 0x8808, symBinAddr: 0xC310, symSize: 0x28 }
  - { offsetInCU: 0x485FD, offset: 0x485FD, size: 0x8, addend: 0x0, symName: __ZNSt3__114__split_bufferIdRNS_9allocatorIdEEE9__end_capB7v160006Ev, symObjAddr: 0x8830, symBinAddr: 0xC338, symSize: 0x28 }
  - { offsetInCU: 0x48623, offset: 0x48623, size: 0x8, addend: 0x0, symName: __ZNSt3__117__compressed_pairIPdRNS_9allocatorIdEEEC2B7v160006IDnS4_EEOT_OT0_, symObjAddr: 0x8858, symBinAddr: 0xC360, symSize: 0x48 }
  - { offsetInCU: 0x4867B, offset: 0x4867B, size: 0x8, addend: 0x0, symName: __ZNSt3__122__compressed_pair_elemIRNS_9allocatorIdEELi1ELb0EEC2B7v160006IS3_vEEOT_, symObjAddr: 0x88A0, symBinAddr: 0xC3A8, symSize: 0x20 }
  - { offsetInCU: 0x486BD, offset: 0x486BD, size: 0x8, addend: 0x0, symName: __ZNSt3__19allocatorIdE8allocateB7v160006Em, symObjAddr: 0x88C0, symBinAddr: 0xC3C8, symSize: 0x58 }
  - { offsetInCU: 0x486F1, offset: 0x486F1, size: 0x8, addend: 0x0, symName: __ZNSt3__117__compressed_pairIPdRNS_9allocatorIdEEE6secondB7v160006Ev, symObjAddr: 0x89FC, symBinAddr: 0xC504, symSize: 0x28 }
  - { offsetInCU: 0x48717, offset: 0x48717, size: 0x8, addend: 0x0, symName: __ZNSt3__122__compressed_pair_elemIRNS_9allocatorIdEELi1ELb0EE5__getB7v160006Ev, symObjAddr: 0x8A24, symBinAddr: 0xC52C, symSize: 0x18 }
  - { offsetInCU: 0x4873D, offset: 0x4873D, size: 0x8, addend: 0x0, symName: __ZNSt3__117__compressed_pairIPdRNS_9allocatorIdEEE5firstB7v160006Ev, symObjAddr: 0x8A3C, symBinAddr: 0xC544, symSize: 0x24 }
  - { offsetInCU: 0x48763, offset: 0x48763, size: 0x8, addend: 0x0, symName: __ZNSt3__116reverse_iteratorIPdEC1B7v160006ES1_, symObjAddr: 0x8AD8, symBinAddr: 0xC5E0, symSize: 0x34 }
  - { offsetInCU: 0x4879B, offset: 0x4879B, size: 0x8, addend: 0x0, symName: __ZNKSt3__116reverse_iteratorIPdE4baseB7v160006Ev, symObjAddr: 0x8B0C, symBinAddr: 0xC614, symSize: 0x18 }
  - { offsetInCU: 0x487C1, offset: 0x487C1, size: 0x8, addend: 0x0, symName: __ZNKSt3__16vectorIdNS_9allocatorIdEEE14__annotate_newB7v160006Em, symObjAddr: 0x8B24, symBinAddr: 0xC62C, symSize: 0xAC }
  - { offsetInCU: 0x4881A, offset: 0x4881A, size: 0x8, addend: 0x0, symName: __ZNKSt3__111__move_loopINS_17_ClassicAlgPolicyEEclB7v160006INS_16reverse_iteratorIPdEES6_S6_EENS_4pairIT_T1_EES8_T0_S9_, symObjAddr: 0x8ED0, symBinAddr: 0xC9D8, symSize: 0xA0 }
  - { offsetInCU: 0x48885, offset: 0x48885, size: 0x8, addend: 0x0, symName: __ZNSt3__18_IterOpsINS_17_ClassicAlgPolicyEE11__iter_moveB7v160006IRNS_16reverse_iteratorIPdEEEENS_9enable_ifIXsr12is_referenceIDTdeclsr3stdE7declvalIRT_EEEEE5valueEDTclsr3stdE4movedeclsr3stdE7declvalISA_EEEEE4typeEOS9_, symObjAddr: 0x9104, symBinAddr: 0xCC0C, symSize: 0x28 }
  - { offsetInCU: 0x488B1, offset: 0x488B1, size: 0x8, addend: 0x0, symName: __ZNKSt3__116reverse_iteratorIPdEdeB7v160006Ev, symObjAddr: 0x912C, symBinAddr: 0xCC34, symSize: 0x28 }
  - { offsetInCU: 0x488E5, offset: 0x488E5, size: 0x8, addend: 0x0, symName: __ZNSt3__116reverse_iteratorIPdEppB7v160006Ev, symObjAddr: 0x9154, symBinAddr: 0xCC5C, symSize: 0x20 }
  - { offsetInCU: 0x4890B, offset: 0x4890B, size: 0x8, addend: 0x0, symName: __ZNSt3__18_IterOpsINS_17_ClassicAlgPolicyEE25__validate_iter_referenceB7v160006IRNS_16reverse_iteratorIPdEEEEvv, symObjAddr: 0x9174, symBinAddr: 0xCC7C, symSize: 0x4 }
  - { offsetInCU: 0x48929, offset: 0x48929, size: 0x8, addend: 0x0, symName: __ZNSt3__118__unwrap_iter_implINS_16reverse_iteratorIPdEELb0EE8__unwrapB7v160006ES3_, symObjAddr: 0x9178, symBinAddr: 0xCC80, symSize: 0x24 }
  - { offsetInCU: 0x48952, offset: 0x48952, size: 0x8, addend: 0x0, symName: __ZNSt3__14pairINS_16reverse_iteratorIPdEES3_EC1B7v160006IS3_S3_LPv0EEEOT_OT0_, symObjAddr: 0x919C, symBinAddr: 0xCCA4, symSize: 0x3C }
  - { offsetInCU: 0x489B0, offset: 0x489B0, size: 0x8, addend: 0x0, symName: __ZNSt3__14pairINS_16reverse_iteratorIPdEES3_EC2B7v160006IS3_S3_LPv0EEEOT_OT0_, symObjAddr: 0x91D8, symBinAddr: 0xCCE0, symSize: 0x34 }
  - { offsetInCU: 0x48A0E, offset: 0x48A0E, size: 0x8, addend: 0x0, symName: __ZNSt3__118__unwrap_iter_implINS_16reverse_iteratorIPdEELb0EE8__rewrapB7v160006ES3_S3_, symObjAddr: 0x920C, symBinAddr: 0xCD14, symSize: 0x2C }
  - { offsetInCU: 0x48A3C, offset: 0x48A3C, size: 0x8, addend: 0x0, symName: __ZNSt3__116reverse_iteratorIPdEC2B7v160006ES1_, symObjAddr: 0x9238, symBinAddr: 0xCD40, symSize: 0x28 }
  - { offsetInCU: 0x48A74, offset: 0x48A74, size: 0x8, addend: 0x0, symName: __ZNSt3__114__split_bufferIdRNS_9allocatorIdEEED2Ev, symObjAddr: 0x9260, symBinAddr: 0xCD68, symSize: 0x8C }
  - { offsetInCU: 0x48AA0, offset: 0x48AA0, size: 0x8, addend: 0x0, symName: __ZNSt3__114__split_bufferIdRNS_9allocatorIdEEE5clearB7v160006Ev, symObjAddr: 0x92EC, symBinAddr: 0xCDF4, symSize: 0x28 }
  - { offsetInCU: 0x48AC6, offset: 0x48AC6, size: 0x8, addend: 0x0, symName: __ZNKSt3__114__split_bufferIdRNS_9allocatorIdEEE8capacityB7v160006Ev, symObjAddr: 0x9314, symBinAddr: 0xCE1C, symSize: 0x40 }
  - { offsetInCU: 0x48AEC, offset: 0x48AEC, size: 0x8, addend: 0x0, symName: __ZNSt3__114__split_bufferIdRNS_9allocatorIdEEE17__destruct_at_endB7v160006EPd, symObjAddr: 0x9354, symBinAddr: 0xCE5C, symSize: 0x2C }
  - { offsetInCU: 0x48B20, offset: 0x48B20, size: 0x8, addend: 0x0, symName: __ZNSt3__114__split_bufferIdRNS_9allocatorIdEEE17__destruct_at_endB7v160006EPdNS_17integral_constantIbLb0EEE, symObjAddr: 0x9380, symBinAddr: 0xCE88, symSize: 0x80 }
  - { offsetInCU: 0x48B61, offset: 0x48B61, size: 0x8, addend: 0x0, symName: __ZNKSt3__114__split_bufferIdRNS_9allocatorIdEEE9__end_capB7v160006Ev, symObjAddr: 0x9400, symBinAddr: 0xCF08, symSize: 0x28 }
  - { offsetInCU: 0x48B87, offset: 0x48B87, size: 0x8, addend: 0x0, symName: __ZNKSt3__117__compressed_pairIPdRNS_9allocatorIdEEE5firstB7v160006Ev, symObjAddr: 0x9428, symBinAddr: 0xCF30, symSize: 0x24 }
  - { offsetInCU: 0x48BAD, offset: 0x48BAD, size: 0x8, addend: 0x0, symName: __ZN5Eigen9DenseBaseINS_6MatrixIdLin1ELi1ELi0ELin1ELi1EEEE8ConstantElRKd, symObjAddr: 0x944C, symBinAddr: 0xCF54, symSize: 0x50 }
  - { offsetInCU: 0x48BE2, offset: 0x48BE2, size: 0x8, addend: 0x0, symName: __ZN5Eigen9DenseBaseINS_6MatrixIdLin1ELi1ELi0ELin1ELi1EEEE11NullaryExprINS_8internal18scalar_constant_opIdEEEEKNS_14CwiseNullaryOpIT_S2_EElRKS9_, symObjAddr: 0x949C, symBinAddr: 0xCFA4, symSize: 0x44 }
  - { offsetInCU: 0x48C20, offset: 0x48C20, size: 0x8, addend: 0x0, symName: __ZN5Eigen8internal18scalar_constant_opIdEC1ERKd, symObjAddr: 0x94E0, symBinAddr: 0xCFE8, symSize: 0x34 }
  - { offsetInCU: 0x48C58, offset: 0x48C58, size: 0x8, addend: 0x0, symName: __ZN5Eigen14CwiseNullaryOpINS_8internal18scalar_constant_opIdEENS_6MatrixIdLin1ELi1ELi0ELin1ELi1EEEEC1EllRKS3_, symObjAddr: 0x9514, symBinAddr: 0xD01C, symSize: 0x44 }
  - { offsetInCU: 0x48CAC, offset: 0x48CAC, size: 0x8, addend: 0x0, symName: __ZN5Eigen14CwiseNullaryOpINS_8internal18scalar_constant_opIdEENS_6MatrixIdLin1ELi1ELi0ELin1ELi1EEEEC2EllRKS3_, symObjAddr: 0x9558, symBinAddr: 0xD060, symSize: 0xE8 }
  - { offsetInCU: 0x48D00, offset: 0x48D00, size: 0x8, addend: 0x0, symName: __ZN5Eigen10MatrixBaseINS_14CwiseNullaryOpINS_8internal18scalar_constant_opIdEENS_6MatrixIdLin1ELi1ELi0ELin1ELi1EEEEEEC2Ev, symObjAddr: 0x9640, symBinAddr: 0xD148, symSize: 0x2C }
  - { offsetInCU: 0x48D2A, offset: 0x48D2A, size: 0x8, addend: 0x0, symName: __ZN5Eigen8internal18scalar_constant_opIdEC1ERKS2_, symObjAddr: 0x966C, symBinAddr: 0xD174, symSize: 0x34 }
  - { offsetInCU: 0x48D62, offset: 0x48D62, size: 0x8, addend: 0x0, symName: __ZN5Eigen9DenseBaseINS_14CwiseNullaryOpINS_8internal18scalar_constant_opIdEENS_6MatrixIdLin1ELi1ELi0ELin1ELi1EEEEEEC2Ev, symObjAddr: 0x96A0, symBinAddr: 0xD1A8, symSize: 0x14 }
  - { offsetInCU: 0x48D8C, offset: 0x48D8C, size: 0x8, addend: 0x0, symName: __ZN5Eigen8internal18scalar_constant_opIdEC2ERKS2_, symObjAddr: 0x96B4, symBinAddr: 0xD1BC, symSize: 0x24 }
  - { offsetInCU: 0x48DC4, offset: 0x48DC4, size: 0x8, addend: 0x0, symName: __ZN5Eigen8internal18scalar_constant_opIdEC2ERKd, symObjAddr: 0x96D8, symBinAddr: 0xD1E0, symSize: 0x24 }
  - { offsetInCU: 0x48DFC, offset: 0x48DFC, size: 0x8, addend: 0x0, symName: __ZN5Eigen6MatrixIdLin1ELi1ELi0ELin1ELi1EEC2INS_14CwiseNullaryOpINS_8internal18scalar_constant_opIdEES1_EEEERKNS_9EigenBaseIT_EE, symObjAddr: 0x96FC, symBinAddr: 0xD204, symSize: 0x40 }
  - { offsetInCU: 0x48E3E, offset: 0x48E3E, size: 0x8, addend: 0x0, symName: __ZNK5Eigen9EigenBaseINS_14CwiseNullaryOpINS_8internal18scalar_constant_opIdEENS_6MatrixIdLin1ELi1ELi0ELin1ELi1EEEEEE7derivedEv, symObjAddr: 0x973C, symBinAddr: 0xD244, symSize: 0x14 }
  - { offsetInCU: 0x48E64, offset: 0x48E64, size: 0x8, addend: 0x0, symName: __ZN5Eigen15PlainObjectBaseINS_6MatrixIdLin1ELi1ELi0ELin1ELi1EEEEC2INS_14CwiseNullaryOpINS_8internal18scalar_constant_opIdEES2_EEEERKNS_9DenseBaseIT_EE, symObjAddr: 0x9750, symBinAddr: 0xD258, symSize: 0x84 }
  - { offsetInCU: 0x48EA6, offset: 0x48EA6, size: 0x8, addend: 0x0, symName: __ZN5Eigen10MatrixBaseINS_6MatrixIdLin1ELi1ELi0ELin1ELi1EEEEC2Ev, symObjAddr: 0x97D4, symBinAddr: 0xD2DC, symSize: 0x2C }
  - { offsetInCU: 0x48ED0, offset: 0x48ED0, size: 0x8, addend: 0x0, symName: __ZN5Eigen12DenseStorageIdLin1ELin1ELi1ELi0EEC1Ev, symObjAddr: 0x9800, symBinAddr: 0xD308, symSize: 0x2C }
  - { offsetInCU: 0x48EFA, offset: 0x48EFA, size: 0x8, addend: 0x0, symName: __ZN5Eigen15PlainObjectBaseINS_6MatrixIdLin1ELi1ELi0ELin1ELi1EEEE22_check_template_paramsEv, symObjAddr: 0x982C, symBinAddr: 0xD334, symSize: 0x4 }
  - { offsetInCU: 0x48F0E, offset: 0x48F0E, size: 0x8, addend: 0x0, symName: __ZN5Eigen15PlainObjectBaseINS_6MatrixIdLin1ELi1ELi0ELin1ELi1EEEE10resizeLikeINS_14CwiseNullaryOpINS_8internal18scalar_constant_opIdEES2_EEEEvRKNS_9EigenBaseIT_EE, symObjAddr: 0x9830, symBinAddr: 0xD338, symSize: 0x170 }
  - { offsetInCU: 0x48FA2, offset: 0x48FA2, size: 0x8, addend: 0x0, symName: __ZN5Eigen15PlainObjectBaseINS_6MatrixIdLin1ELi1ELi0ELin1ELi1EEEE12_set_noaliasINS_14CwiseNullaryOpINS_8internal18scalar_constant_opIdEES2_EEEERS2_RKNS_9DenseBaseIT_EE, symObjAddr: 0x99A0, symBinAddr: 0xD4A8, symSize: 0x60 }
  - { offsetInCU: 0x48FE0, offset: 0x48FE0, size: 0x8, addend: 0x0, symName: __ZN5Eigen9DenseBaseINS_6MatrixIdLin1ELi1ELi0ELin1ELi1EEEEC2Ev, symObjAddr: 0x9A00, symBinAddr: 0xD508, symSize: 0x14 }
  - { offsetInCU: 0x4900A, offset: 0x4900A, size: 0x8, addend: 0x0, symName: __ZN5Eigen12DenseStorageIdLin1ELin1ELi1ELi0EEC2Ev, symObjAddr: 0x9A14, symBinAddr: 0xD51C, symSize: 0x1C }
  - { offsetInCU: 0x49034, offset: 0x49034, size: 0x8, addend: 0x0, symName: __ZNK5Eigen14CwiseNullaryOpINS_8internal18scalar_constant_opIdEENS_6MatrixIdLin1ELi1ELi0ELin1ELi1EEEE4rowsEv, symObjAddr: 0x9A30, symBinAddr: 0xD538, symSize: 0x24 }
  - { offsetInCU: 0x4905A, offset: 0x4905A, size: 0x8, addend: 0x0, symName: __ZNK5Eigen14CwiseNullaryOpINS_8internal18scalar_constant_opIdEENS_6MatrixIdLin1ELi1ELi0ELin1ELi1EEEE4colsEv, symObjAddr: 0x9A54, symBinAddr: 0xD55C, symSize: 0x20 }
  - { offsetInCU: 0x49080, offset: 0x49080, size: 0x8, addend: 0x0, symName: __ZN5Eigen15PlainObjectBaseINS_6MatrixIdLin1ELi1ELi0ELin1ELi1EEEE6resizeEll, symObjAddr: 0x9A74, symBinAddr: 0xD57C, symSize: 0x168 }
  - { offsetInCU: 0x490FC, offset: 0x490FC, size: 0x8, addend: 0x0, symName: __ZN5Eigen12DenseStorageIdLin1ELin1ELi1ELi0EE6resizeElll, symObjAddr: 0x9BDC, symBinAddr: 0xD6E4, symSize: 0xA4 }
  - { offsetInCU: 0x4914B, offset: 0x4914B, size: 0x8, addend: 0x0, symName: __ZN5Eigen9EigenBaseINS_6MatrixIdLin1ELi1ELi0ELin1ELi1EEEE7derivedEv, symObjAddr: 0x9CBC, symBinAddr: 0xD7C4, symSize: 0x14 }
  - { offsetInCU: 0x49171, offset: 0x49171, size: 0x8, addend: 0x0, symName: __ZN5Eigen8internal10AssignmentINS_6MatrixIdLin1ELi1ELi0ELin1ELi1EEENS_14CwiseNullaryOpINS0_18scalar_constant_opIdEES3_EENS0_9assign_opIddEENS0_11Dense2DenseEvE3runERS3_RKS7_RKS9_, symObjAddr: 0x9CD0, symBinAddr: 0xD7D8, symSize: 0x40 }
  - { offsetInCU: 0x491B3, offset: 0x491B3, size: 0x8, addend: 0x0, symName: __ZN5Eigen15PlainObjectBaseINS_6MatrixIdLin1ELi1ELi0ELin1ELi1EEEE4dataEv, symObjAddr: 0x9ECC, symBinAddr: 0xD9D4, symSize: 0x24 }
  - { offsetInCU: 0x491D9, offset: 0x491D9, size: 0x8, addend: 0x0, symName: __ZNK5Eigen9EigenBaseINS_6MatrixIdLin1ELi1ELi0ELin1ELi1EEEE4sizeEv, symObjAddr: 0x9EF0, symBinAddr: 0xD9F8, symSize: 0x44 }
  - { offsetInCU: 0x491FF, offset: 0x491FF, size: 0x8, addend: 0x0, symName: __ZNK5Eigen14CwiseNullaryOpINS_8internal18scalar_constant_opIdEENS_6MatrixIdLin1ELi1ELi0ELin1ELi1EEEE7functorEv, symObjAddr: 0x9F34, symBinAddr: 0xDA3C, symSize: 0x18 }
  - { offsetInCU: 0x49225, offset: 0x49225, size: 0x8, addend: 0x0, symName: __ZNK5Eigen8internal18scalar_constant_opIdEclEv, symObjAddr: 0x9F4C, symBinAddr: 0xDA54, symSize: 0x18 }
  - { offsetInCU: 0x4924B, offset: 0x4924B, size: 0x8, addend: 0x0, symName: __ZNK5Eigen15PlainObjectBaseINS_6MatrixIdLin1ELi1ELi0ELin1ELi1EEEE4rowsEv, symObjAddr: 0x9F64, symBinAddr: 0xDA6C, symSize: 0x24 }
  - { offsetInCU: 0x49271, offset: 0x49271, size: 0x8, addend: 0x0, symName: __ZNK5Eigen15PlainObjectBaseINS_6MatrixIdLin1ELi1ELi0ELin1ELi1EEEE4colsEv, symObjAddr: 0x9F88, symBinAddr: 0xDA90, symSize: 0x30 }
  - { offsetInCU: 0x49297, offset: 0x49297, size: 0x8, addend: 0x0, symName: __ZNK5Eigen12DenseStorageIdLin1ELin1ELi1ELi0EE4rowsEv, symObjAddr: 0x9FB8, symBinAddr: 0xDAC0, symSize: 0x18 }
  - { offsetInCU: 0x492BD, offset: 0x492BD, size: 0x8, addend: 0x0, symName: __ZN5Eigen12DenseStorageIdLin1ELin1ELi1ELi0EE4colsEv, symObjAddr: 0x9FD0, symBinAddr: 0xDAD8, symSize: 0x8 }
  - { offsetInCU: 0x492D1, offset: 0x492D1, size: 0x8, addend: 0x0, symName: __ZN5Eigen12DenseStorageIdLin1ELin1ELi1ELi0EE4dataEv, symObjAddr: 0xA050, symBinAddr: 0xDB58, symSize: 0x18 }
  - { offsetInCU: 0x492F7, offset: 0x492F7, size: 0x8, addend: 0x0, symName: __ZNK5Eigen9EigenBaseINS_6MatrixIdLin1ELi1ELi0ELin1ELi1EEEE4rowsEv, symObjAddr: 0xA068, symBinAddr: 0xDB70, symSize: 0x38 }
  - { offsetInCU: 0x4931D, offset: 0x4931D, size: 0x8, addend: 0x0, symName: __ZNK5Eigen9EigenBaseINS_6MatrixIdLin1ELi1ELi0ELin1ELi1EEEE4colsEv, symObjAddr: 0xA0A0, symBinAddr: 0xDBA8, symSize: 0x28 }
  - { offsetInCU: 0x49343, offset: 0x49343, size: 0x8, addend: 0x0, symName: __ZNK5Eigen9EigenBaseINS_6MatrixIdLin1ELi1ELi0ELin1ELi1EEEE7derivedEv, symObjAddr: 0xA0C8, symBinAddr: 0xDBD0, symSize: 0x14 }
  - { offsetInCU: 0x49369, offset: 0x49369, size: 0x8, addend: 0x0, symName: __ZN5Eigen6MatrixIdLi3ELi1ELi0ELi3ELi1EEC2INS_5BlockINS0_IdLin1ELin1ELi0ELin1ELin1EEELi1ELin1ELb0EEEEERKNS_9EigenBaseIT_EE, symObjAddr: 0xA0DC, symBinAddr: 0xDBE4, symSize: 0x40 }
  - { offsetInCU: 0x493AB, offset: 0x493AB, size: 0x8, addend: 0x0, symName: __ZN5Eigen15PlainObjectBaseINS_6MatrixIdLi3ELi1ELi0ELi3ELi1EEEEC2INS_5BlockINS1_IdLin1ELin1ELi0ELin1ELin1EEELi1ELin1ELb0EEEEERKNS_9DenseBaseIT_EE, symObjAddr: 0xA11C, symBinAddr: 0xDC24, symSize: 0x54 }
  - { offsetInCU: 0x493ED, offset: 0x493ED, size: 0x8, addend: 0x0, symName: __ZN5Eigen15PlainObjectBaseINS_6MatrixIdLi3ELi1ELi0ELi3ELi1EEEE10resizeLikeINS_5BlockINS1_IdLin1ELin1ELi0ELin1ELin1EEELi1ELin1ELb0EEEEEvRKNS_9EigenBaseIT_EE, symObjAddr: 0xA170, symBinAddr: 0xDC78, symSize: 0xF0 }
  - { offsetInCU: 0x49449, offset: 0x49449, size: 0x8, addend: 0x0, symName: __ZN5Eigen15PlainObjectBaseINS_6MatrixIdLi3ELi1ELi0ELi3ELi1EEEE12_set_noaliasINS_5BlockINS1_IdLin1ELin1ELi0ELin1ELin1EEELi1ELin1ELb0EEEEERS2_RKNS_9DenseBaseIT_EE, symObjAddr: 0xA260, symBinAddr: 0xDD68, symSize: 0x60 }
  - { offsetInCU: 0x49487, offset: 0x49487, size: 0x8, addend: 0x0, symName: __ZN5Eigen15PlainObjectBaseINS_6MatrixIdLi3ELi1ELi0ELi3ELi1EEEE6resizeEll, symObjAddr: 0xA2C0, symBinAddr: 0xDDC8, symSize: 0x104 }
  - { offsetInCU: 0x494CB, offset: 0x494CB, size: 0x8, addend: 0x0, symName: __ZN5Eigen12DenseStorageIdLi3ELi3ELi1ELi0EE6resizeElll, symObjAddr: 0xA3C4, symBinAddr: 0xDECC, symSize: 0x1C }
  - { offsetInCU: 0x49512, offset: 0x49512, size: 0x8, addend: 0x0, symName: __ZN5Eigen9EigenBaseINS_6MatrixIdLi3ELi1ELi0ELi3ELi1EEEE7derivedEv, symObjAddr: 0xA424, symBinAddr: 0xDF2C, symSize: 0x14 }
  - { offsetInCU: 0x49538, offset: 0x49538, size: 0x8, addend: 0x0, symName: __ZN5Eigen9TransposeINS_6MatrixIdLi3ELi1ELi0ELi3ELi1EEEEC1ERS2_, symObjAddr: 0xA438, symBinAddr: 0xDF40, symSize: 0x34 }
  - { offsetInCU: 0x49570, offset: 0x49570, size: 0x8, addend: 0x0, symName: __ZN5Eigen8internal10AssignmentINS_9TransposeINS_6MatrixIdLi3ELi1ELi0ELi3ELi1EEEEENS_5BlockINS3_IdLin1ELin1ELi0ELin1ELin1EEELi1ELin1ELb0EEENS0_9assign_opIddEENS0_11Dense2DenseEvE3runERS5_RKS8_RKSA_, symObjAddr: 0xA46C, symBinAddr: 0xDF74, symSize: 0x40 }
  - { offsetInCU: 0x495B2, offset: 0x495B2, size: 0x8, addend: 0x0, symName: __ZN5Eigen9TransposeINS_6MatrixIdLi3ELi1ELi0ELi3ELi1EEEEC2ERS2_, symObjAddr: 0xA4AC, symBinAddr: 0xDFB4, symSize: 0x38 }
  - { offsetInCU: 0x495EA, offset: 0x495EA, size: 0x8, addend: 0x0, symName: __ZN5Eigen13TransposeImplINS_6MatrixIdLi3ELi1ELi0ELi3ELi1EEENS_5DenseEEC2Ev, symObjAddr: 0xA4E4, symBinAddr: 0xDFEC, symSize: 0x2C }
  - { offsetInCU: 0x49614, offset: 0x49614, size: 0x8, addend: 0x0, symName: __ZN5Eigen10MatrixBaseINS_9TransposeINS_6MatrixIdLi3ELi1ELi0ELi3ELi1EEEEEEC2Ev, symObjAddr: 0xA510, symBinAddr: 0xE018, symSize: 0x2C }
  - { offsetInCU: 0x4963E, offset: 0x4963E, size: 0x8, addend: 0x0, symName: __ZN5Eigen9DenseBaseINS_9TransposeINS_6MatrixIdLi3ELi1ELi0ELi3ELi1EEEEEEC2Ev, symObjAddr: 0xA53C, symBinAddr: 0xE044, symSize: 0x14 }
  - { offsetInCU: 0x4969F, offset: 0x4969F, size: 0x8, addend: 0x0, symName: __ZN5Eigen8internal9evaluatorINS_9TransposeINS_6MatrixIdLi3ELi1ELi0ELi3ELi1EEEEEEC1ERKS5_, symObjAddr: 0xA73C, symBinAddr: 0xE244, symSize: 0x34 }
  - { offsetInCU: 0x496D7, offset: 0x496D7, size: 0x8, addend: 0x0, symName: __ZNK5Eigen9EigenBaseINS_9TransposeINS_6MatrixIdLi3ELi1ELi0ELi3ELi1EEEEEE18const_cast_derivedEv, symObjAddr: 0xA770, symBinAddr: 0xE278, symSize: 0x14 }
  - { offsetInCU: 0x4972A, offset: 0x4972A, size: 0x8, addend: 0x0, symName: __ZN5Eigen8internal31generic_dense_assignment_kernelINS0_9evaluatorINS_9TransposeINS_6MatrixIdLi3ELi1ELi0ELi3ELi1EEEEEEENS2_INS_5BlockINS4_IdLin1ELin1ELi0ELin1ELin1EEELi1ELin1ELb0EEEEENS0_9assign_opIddEELi0EEC1ERS7_RKSB_RKSD_RS6_, symObjAddr: 0xA784, symBinAddr: 0xE28C, symSize: 0x4C }
  - { offsetInCU: 0x49795, offset: 0x49795, size: 0x8, addend: 0x0, symName: __ZN5Eigen8internal21dense_assignment_loopINS0_31generic_dense_assignment_kernelINS0_9evaluatorINS_9TransposeINS_6MatrixIdLi3ELi1ELi0ELi3ELi1EEEEEEENS3_INS_5BlockINS5_IdLin1ELin1ELi0ELin1ELin1EEELi1ELin1ELb0EEEEENS0_9assign_opIddEELi0EEELi1ELi2EE3runERSF_, symObjAddr: 0xA7D0, symBinAddr: 0xE2D8, symSize: 0x24 }
  - { offsetInCU: 0x497B9, offset: 0x497B9, size: 0x8, addend: 0x0, symName: __ZN5Eigen8internal9evaluatorINS_9TransposeINS_6MatrixIdLi3ELi1ELi0ELi3ELi1EEEEEED1Ev, symObjAddr: 0xA7F4, symBinAddr: 0xE2FC, symSize: 0x2C }
  - { offsetInCU: 0x497E5, offset: 0x497E5, size: 0x8, addend: 0x0, symName: __ZNK5Eigen9TransposeINS_6MatrixIdLi3ELi1ELi0ELi3ELi1EEEE4rowsEv, symObjAddr: 0xA820, symBinAddr: 0xE328, symSize: 0x28 }
  - { offsetInCU: 0x4980B, offset: 0x4980B, size: 0x8, addend: 0x0, symName: __ZNK5Eigen9TransposeINS_6MatrixIdLi3ELi1ELi0ELi3ELi1EEEE4colsEv, symObjAddr: 0xA848, symBinAddr: 0xE350, symSize: 0x28 }
  - { offsetInCU: 0x49831, offset: 0x49831, size: 0x8, addend: 0x0, symName: __ZN5Eigen9TransposeINS_6MatrixIdLi3ELi1ELi0ELi3ELi1EEEE6resizeEll, symObjAddr: 0xA870, symBinAddr: 0xE378, symSize: 0x38 }
  - { offsetInCU: 0x49873, offset: 0x49873, size: 0x8, addend: 0x0, symName: __ZN5Eigen8internal9evaluatorINS_9TransposeINS_6MatrixIdLi3ELi1ELi0ELi3ELi1EEEEEEC2ERKS5_, symObjAddr: 0xA8A8, symBinAddr: 0xE3B0, symSize: 0x34 }
  - { offsetInCU: 0x498AB, offset: 0x498AB, size: 0x8, addend: 0x0, symName: __ZN5Eigen8internal15unary_evaluatorINS_9TransposeINS_6MatrixIdLi3ELi1ELi0ELi3ELi1EEEEENS0_10IndexBasedEdEC2ERKS5_, symObjAddr: 0xA8DC, symBinAddr: 0xE3E4, symSize: 0x74 }
  - { offsetInCU: 0x498E4, offset: 0x498E4, size: 0x8, addend: 0x0, symName: __ZN5Eigen8internal14evaluator_baseINS_9TransposeINS_6MatrixIdLi3ELi1ELi0ELi3ELi1EEEEEEC2Ev, symObjAddr: 0xA950, symBinAddr: 0xE458, symSize: 0x14 }
  - { offsetInCU: 0x4990E, offset: 0x4990E, size: 0x8, addend: 0x0, symName: __ZNK5Eigen9TransposeINS_6MatrixIdLi3ELi1ELi0ELi3ELi1EEEE16nestedExpressionEv, symObjAddr: 0xA964, symBinAddr: 0xE46C, symSize: 0x18 }
  - { offsetInCU: 0x49934, offset: 0x49934, size: 0x8, addend: 0x0, symName: __ZN5Eigen8internal14evaluator_baseINS_9TransposeINS_6MatrixIdLi3ELi1ELi0ELi3ELi1EEEEEED2Ev, symObjAddr: 0xA97C, symBinAddr: 0xE484, symSize: 0x14 }
  - { offsetInCU: 0x4995E, offset: 0x4995E, size: 0x8, addend: 0x0, symName: __ZN5Eigen8internal31generic_dense_assignment_kernelINS0_9evaluatorINS_9TransposeINS_6MatrixIdLi3ELi1ELi0ELi3ELi1EEEEEEENS2_INS_5BlockINS4_IdLin1ELin1ELi0ELin1ELin1EEELi1ELin1ELb0EEEEENS0_9assign_opIddEELi0EEC2ERS7_RKSB_RKSD_RS6_, symObjAddr: 0xA990, symBinAddr: 0xE498, symSize: 0x44 }
  - { offsetInCU: 0x499C4, offset: 0x499C4, size: 0x8, addend: 0x0, symName: __ZN5Eigen8internal54copy_using_evaluator_LinearTraversal_CompleteUnrollingINS0_31generic_dense_assignment_kernelINS0_9evaluatorINS_9TransposeINS_6MatrixIdLi3ELi1ELi0ELi3ELi1EEEEEEENS3_INS_5BlockINS5_IdLin1ELin1ELi0ELin1ELin1EEELi1ELin1ELb0EEEEENS0_9assign_opIddEELi0EEELi0ELi3EE3runERSF_, symObjAddr: 0xA9D4, symBinAddr: 0xE4DC, symSize: 0x30 }
  - { offsetInCU: 0x499E7, offset: 0x499E7, size: 0x8, addend: 0x0, symName: __ZN5Eigen8internal31generic_dense_assignment_kernelINS0_9evaluatorINS_9TransposeINS_6MatrixIdLi3ELi1ELi0ELi3ELi1EEEEEEENS2_INS_5BlockINS4_IdLin1ELin1ELi0ELin1ELin1EEELi1ELin1ELb0EEEEENS0_9assign_opIddEELi0EE11assignCoeffEl, symObjAddr: 0xAA04, symBinAddr: 0xE50C, symSize: 0x60 }
  - { offsetInCU: 0x49A1C, offset: 0x49A1C, size: 0x8, addend: 0x0, symName: __ZN5Eigen8internal54copy_using_evaluator_LinearTraversal_CompleteUnrollingINS0_31generic_dense_assignment_kernelINS0_9evaluatorINS_9TransposeINS_6MatrixIdLi3ELi1ELi0ELi3ELi1EEEEEEENS3_INS_5BlockINS5_IdLin1ELin1ELi0ELin1ELin1EEELi1ELin1ELb0EEEEENS0_9assign_opIddEELi0EEELi1ELi3EE3runERSF_, symObjAddr: 0xAA64, symBinAddr: 0xE56C, symSize: 0x30 }
  - { offsetInCU: 0x49A3F, offset: 0x49A3F, size: 0x8, addend: 0x0, symName: __ZN5Eigen8internal15unary_evaluatorINS_9TransposeINS_6MatrixIdLi3ELi1ELi0ELi3ELi1EEEEENS0_10IndexBasedEdE8coeffRefEl, symObjAddr: 0xAA94, symBinAddr: 0xE59C, symSize: 0x2C }
  - { offsetInCU: 0x49A74, offset: 0x49A74, size: 0x8, addend: 0x0, symName: __ZNK5Eigen8internal17mapbase_evaluatorINS_5BlockINS_6MatrixIdLin1ELin1ELi0ELin1ELin1EEELi1ELin1ELb0EEENS3_IdLi1ELin1ELi1ELi1ELin1EEEE5coeffEl, symObjAddr: 0xAAC0, symBinAddr: 0xE5C8, symSize: 0x4C }
  - { offsetInCU: 0x49AA9, offset: 0x49AA9, size: 0x8, addend: 0x0, symName: __ZN5Eigen8internal9evaluatorINS_15PlainObjectBaseINS_6MatrixIdLi3ELi1ELi0ELi3ELi1EEEEEE8coeffRefEl, symObjAddr: 0xAB0C, symBinAddr: 0xE614, symSize: 0x24 }
  - { offsetInCU: 0x49ADD, offset: 0x49ADD, size: 0x8, addend: 0x0, symName: __ZN5Eigen8internal54copy_using_evaluator_LinearTraversal_CompleteUnrollingINS0_31generic_dense_assignment_kernelINS0_9evaluatorINS_9TransposeINS_6MatrixIdLi3ELi1ELi0ELi3ELi1EEEEEEENS3_INS_5BlockINS5_IdLin1ELin1ELi0ELin1ELin1EEELi1ELin1ELb0EEEEENS0_9assign_opIddEELi0EEELi2ELi3EE3runERSF_, symObjAddr: 0xAB30, symBinAddr: 0xE638, symSize: 0x30 }
  - { offsetInCU: 0x49B00, offset: 0x49B00, size: 0x8, addend: 0x0, symName: __ZN5Eigen8internal54copy_using_evaluator_LinearTraversal_CompleteUnrollingINS0_31generic_dense_assignment_kernelINS0_9evaluatorINS_9TransposeINS_6MatrixIdLi3ELi1ELi0ELi3ELi1EEEEEEENS3_INS_5BlockINS5_IdLin1ELin1ELi0ELin1ELin1EEELi1ELin1ELb0EEEEENS0_9assign_opIddEELi0EEELi3ELi3EE3runERSF_, symObjAddr: 0xAB60, symBinAddr: 0xE668, symSize: 0x10 }
  - { offsetInCU: 0x49B20, offset: 0x49B20, size: 0x8, addend: 0x0, symName: __ZN5Eigen8internal9evaluatorINS_9TransposeINS_6MatrixIdLi3ELi1ELi0ELi3ELi1EEEEEED2Ev, symObjAddr: 0xAB70, symBinAddr: 0xE678, symSize: 0x2C }
  - { offsetInCU: 0x49B4C, offset: 0x49B4C, size: 0x8, addend: 0x0, symName: __ZN5Eigen8internal15unary_evaluatorINS_9TransposeINS_6MatrixIdLi3ELi1ELi0ELi3ELi1EEEEENS0_10IndexBasedEdED2Ev, symObjAddr: 0xAB9C, symBinAddr: 0xE6A4, symSize: 0x34 }
  - { offsetInCU: 0x49B78, offset: 0x49B78, size: 0x8, addend: 0x0, symName: __ZN5Eigen8internal20scalar_difference_opIddEC1Ev, symObjAddr: 0xABD0, symBinAddr: 0xE6D8, symSize: 0x2C }
  - { offsetInCU: 0x49BA2, offset: 0x49BA2, size: 0x8, addend: 0x0, symName: __ZN5Eigen13CwiseBinaryOpINS_8internal20scalar_difference_opIddEEKNS_6MatrixIdLi3ELi1ELi0ELi3ELi1EEES6_EC1ERS6_S8_RKS3_, symObjAddr: 0xABFC, symBinAddr: 0xE704, symSize: 0x44 }
  - { offsetInCU: 0x49BF6, offset: 0x49BF6, size: 0x8, addend: 0x0, symName: __ZN5Eigen8internal20scalar_difference_opIddEC2Ev, symObjAddr: 0xAC40, symBinAddr: 0xE748, symSize: 0x14 }
  - { offsetInCU: 0x49C20, offset: 0x49C20, size: 0x8, addend: 0x0, symName: __ZN5Eigen13CwiseBinaryOpINS_8internal20scalar_difference_opIddEEKNS_6MatrixIdLi3ELi1ELi0ELi3ELi1EEES6_EC2ERS6_S8_RKS3_, symObjAddr: 0xAC54, symBinAddr: 0xE75C, symSize: 0xF0 }
  - { offsetInCU: 0x49C79, offset: 0x49C79, size: 0x8, addend: 0x0, symName: __ZN5Eigen17CwiseBinaryOpImplINS_8internal20scalar_difference_opIddEEKNS_6MatrixIdLi3ELi1ELi0ELi3ELi1EEES6_NS_5DenseEEC2Ev, symObjAddr: 0xAD44, symBinAddr: 0xE84C, symSize: 0x2C }
  - { offsetInCU: 0x49CA5, offset: 0x49CA5, size: 0x8, addend: 0x0, symName: __ZN5Eigen8internal20scalar_difference_opIddEC1ERKS2_, symObjAddr: 0xAD70, symBinAddr: 0xE878, symSize: 0x34 }
  - { offsetInCU: 0x49CDA, offset: 0x49CDA, size: 0x8, addend: 0x0, symName: __ZN5Eigen10MatrixBaseINS_13CwiseBinaryOpINS_8internal20scalar_difference_opIddEEKNS_6MatrixIdLi3ELi1ELi0ELi3ELi1EEES7_EEEC2Ev, symObjAddr: 0xADA4, symBinAddr: 0xE8AC, symSize: 0x2C }
  - { offsetInCU: 0x49D04, offset: 0x49D04, size: 0x8, addend: 0x0, symName: __ZN5Eigen9DenseBaseINS_13CwiseBinaryOpINS_8internal20scalar_difference_opIddEEKNS_6MatrixIdLi3ELi1ELi0ELi3ELi1EEES7_EEEC2Ev, symObjAddr: 0xADD0, symBinAddr: 0xE8D8, symSize: 0x14 }
  - { offsetInCU: 0x49D2E, offset: 0x49D2E, size: 0x8, addend: 0x0, symName: __ZN5Eigen8internal20scalar_difference_opIddEC2ERKS2_, symObjAddr: 0xADE4, symBinAddr: 0xE8EC, symSize: 0x18 }
  - { offsetInCU: 0x49D63, offset: 0x49D63, size: 0x8, addend: 0x0, symName: __ZNK5Eigen10MatrixBaseINS_13CwiseBinaryOpINS_8internal20scalar_difference_opIddEEKNS_6MatrixIdLi3ELi1ELi0ELi3ELi1EEES7_EEE11squaredNormEv, symObjAddr: 0xADFC, symBinAddr: 0xE904, symSize: 0x7C }
  - { offsetInCU: 0x49D8B, offset: 0x49D8B, size: 0x8, addend: 0x0, symName: __ZNK5Eigen10MatrixBaseINS_13CwiseBinaryOpINS_8internal20scalar_difference_opIddEEKNS_6MatrixIdLi3ELi1ELi0ELi3ELi1EEES7_EEE9cwiseAbs2Ev, symObjAddr: 0xAE9C, symBinAddr: 0xE9A4, symSize: 0x4C }
  - { offsetInCU: 0x49DB1, offset: 0x49DB1, size: 0x8, addend: 0x0, symName: __ZNK5Eigen9DenseBaseINS_12CwiseUnaryOpINS_8internal14scalar_abs2_opIdEEKNS_13CwiseBinaryOpINS2_20scalar_difference_opIddEEKNS_6MatrixIdLi3ELi1ELi0ELi3ELi1EEESA_EEEEE3sumEv, symObjAddr: 0xAEE8, symBinAddr: 0xE9F0, symSize: 0x40 }
  - { offsetInCU: 0x49DDA, offset: 0x49DDA, size: 0x8, addend: 0x0, symName: __ZN5Eigen8internal17real_default_implIdLb0EE3runERKd, symObjAddr: 0xAF28, symBinAddr: 0xEA30, symSize: 0x18 }
  - { offsetInCU: 0x49DFD, offset: 0x49DFD, size: 0x8, addend: 0x0, symName: __ZNK5Eigen9EigenBaseINS_13CwiseBinaryOpINS_8internal20scalar_difference_opIddEEKNS_6MatrixIdLi3ELi1ELi0ELi3ELi1EEES7_EEE7derivedEv, symObjAddr: 0xAF40, symBinAddr: 0xEA48, symSize: 0x14 }
  - { offsetInCU: 0x49E23, offset: 0x49E23, size: 0x8, addend: 0x0, symName: __ZN5Eigen8internal14scalar_abs2_opIdEC1Ev, symObjAddr: 0xAF54, symBinAddr: 0xEA5C, symSize: 0x2C }
  - { offsetInCU: 0x49E4D, offset: 0x49E4D, size: 0x8, addend: 0x0, symName: __ZN5Eigen12CwiseUnaryOpINS_8internal14scalar_abs2_opIdEEKNS_13CwiseBinaryOpINS1_20scalar_difference_opIddEEKNS_6MatrixIdLi3ELi1ELi0ELi3ELi1EEES9_EEEC1ERSB_RKS3_, symObjAddr: 0xAF80, symBinAddr: 0xEA88, symSize: 0x3C }
  - { offsetInCU: 0x49E93, offset: 0x49E93, size: 0x8, addend: 0x0, symName: __ZN5Eigen8internal14scalar_abs2_opIdEC2Ev, symObjAddr: 0xAFBC, symBinAddr: 0xEAC4, symSize: 0x14 }
  - { offsetInCU: 0x49EBD, offset: 0x49EBD, size: 0x8, addend: 0x0, symName: __ZN5Eigen12CwiseUnaryOpINS_8internal14scalar_abs2_opIdEEKNS_13CwiseBinaryOpINS1_20scalar_difference_opIddEEKNS_6MatrixIdLi3ELi1ELi0ELi3ELi1EEES9_EEEC2ERSB_RKS3_, symObjAddr: 0xAFD0, symBinAddr: 0xEAD8, symSize: 0x54 }
  - { offsetInCU: 0x49F08, offset: 0x49F08, size: 0x8, addend: 0x0, symName: __ZN5Eigen16CwiseUnaryOpImplINS_8internal14scalar_abs2_opIdEEKNS_13CwiseBinaryOpINS1_20scalar_difference_opIddEEKNS_6MatrixIdLi3ELi1ELi0ELi3ELi1EEES9_EENS_5DenseEEC2Ev, symObjAddr: 0xB024, symBinAddr: 0xEB2C, symSize: 0x2C }
  - { offsetInCU: 0x49F34, offset: 0x49F34, size: 0x8, addend: 0x0, symName: __ZN5Eigen13CwiseBinaryOpINS_8internal20scalar_difference_opIddEEKNS_6MatrixIdLi3ELi1ELi0ELi3ELi1EEES6_EC1ERKS7_, symObjAddr: 0xB050, symBinAddr: 0xEB58, symSize: 0x34 }
  - { offsetInCU: 0x49F69, offset: 0x49F69, size: 0x8, addend: 0x0, symName: __ZN5Eigen8internal14scalar_abs2_opIdEC1ERKS2_, symObjAddr: 0xB084, symBinAddr: 0xEB8C, symSize: 0x34 }
  - { offsetInCU: 0x49F9E, offset: 0x49F9E, size: 0x8, addend: 0x0, symName: __ZN5Eigen10MatrixBaseINS_12CwiseUnaryOpINS_8internal14scalar_abs2_opIdEEKNS_13CwiseBinaryOpINS2_20scalar_difference_opIddEEKNS_6MatrixIdLi3ELi1ELi0ELi3ELi1EEESA_EEEEEC2Ev, symObjAddr: 0xB0B8, symBinAddr: 0xEBC0, symSize: 0x2C }
  - { offsetInCU: 0x49FC8, offset: 0x49FC8, size: 0x8, addend: 0x0, symName: __ZN5Eigen9DenseBaseINS_12CwiseUnaryOpINS_8internal14scalar_abs2_opIdEEKNS_13CwiseBinaryOpINS2_20scalar_difference_opIddEEKNS_6MatrixIdLi3ELi1ELi0ELi3ELi1EEESA_EEEEEC2Ev, symObjAddr: 0xB0E4, symBinAddr: 0xEBEC, symSize: 0x14 }
  - { offsetInCU: 0x49FF2, offset: 0x49FF2, size: 0x8, addend: 0x0, symName: __ZN5Eigen13CwiseBinaryOpINS_8internal20scalar_difference_opIddEEKNS_6MatrixIdLi3ELi1ELi0ELi3ELi1EEES6_EC2ERKS7_, symObjAddr: 0xB0F8, symBinAddr: 0xEC00, symSize: 0x48 }
  - { offsetInCU: 0x4A027, offset: 0x4A027, size: 0x8, addend: 0x0, symName: __ZN5Eigen8internal14scalar_abs2_opIdEC2ERKS2_, symObjAddr: 0xB140, symBinAddr: 0xEC48, symSize: 0x18 }
  - { offsetInCU: 0x4A05C, offset: 0x4A05C, size: 0x8, addend: 0x0, symName: __ZNK5Eigen9EigenBaseINS_12CwiseUnaryOpINS_8internal14scalar_abs2_opIdEEKNS_13CwiseBinaryOpINS2_20scalar_difference_opIddEEKNS_6MatrixIdLi3ELi1ELi0ELi3ELi1EEESA_EEEEE7derivedEv, symObjAddr: 0xB158, symBinAddr: 0xEC60, symSize: 0x14 }
  - { offsetInCU: 0x4A082, offset: 0x4A082, size: 0x8, addend: 0x0, symName: __ZNK5Eigen9DenseBaseINS_12CwiseUnaryOpINS_8internal14scalar_abs2_opIdEEKNS_13CwiseBinaryOpINS2_20scalar_difference_opIddEEKNS_6MatrixIdLi3ELi1ELi0ELi3ELi1EEESA_EEEEE5reduxINS2_13scalar_sum_opIddEEEEdRKT_, symObjAddr: 0xB16C, symBinAddr: 0xEC74, symSize: 0x10C }
  - { offsetInCU: 0x4A0DE, offset: 0x4A0DE, size: 0x8, addend: 0x0, symName: __ZN5Eigen8internal13scalar_sum_opIddEC1Ev, symObjAddr: 0xB278, symBinAddr: 0xED80, symSize: 0x2C }
  - { offsetInCU: 0x4A108, offset: 0x4A108, size: 0x8, addend: 0x0, symName: __ZNK5Eigen9EigenBaseINS_12CwiseUnaryOpINS_8internal14scalar_abs2_opIdEEKNS_13CwiseBinaryOpINS2_20scalar_difference_opIddEEKNS_6MatrixIdLi3ELi1ELi0ELi3ELi1EEESA_EEEEE4rowsEv, symObjAddr: 0xB2A4, symBinAddr: 0xEDAC, symSize: 0x28 }
  - { offsetInCU: 0x4A12E, offset: 0x4A12E, size: 0x8, addend: 0x0, symName: __ZNK5Eigen9EigenBaseINS_12CwiseUnaryOpINS_8internal14scalar_abs2_opIdEEKNS_13CwiseBinaryOpINS2_20scalar_difference_opIddEEKNS_6MatrixIdLi3ELi1ELi0ELi3ELi1EEESA_EEEEE4colsEv, symObjAddr: 0xB2CC, symBinAddr: 0xEDD4, symSize: 0x28 }
  - { offsetInCU: 0x4A154, offset: 0x4A154, size: 0x8, addend: 0x0, symName: __ZN5Eigen8internal15redux_evaluatorINS_12CwiseUnaryOpINS0_14scalar_abs2_opIdEEKNS_13CwiseBinaryOpINS0_20scalar_difference_opIddEEKNS_6MatrixIdLi3ELi1ELi0ELi3ELi1EEESA_EEEEEC1ERKSD_, symObjAddr: 0xB2F4, symBinAddr: 0xEDFC, symSize: 0x34 }
  - { offsetInCU: 0x4A18D, offset: 0x4A18D, size: 0x8, addend: 0x0, symName: __ZN5Eigen8internal10redux_implINS0_13scalar_sum_opIddEENS0_15redux_evaluatorINS_12CwiseUnaryOpINS0_14scalar_abs2_opIdEEKNS_13CwiseBinaryOpINS0_20scalar_difference_opIddEEKNS_6MatrixIdLi3ELi1ELi0ELi3ELi1EEESD_EEEEEELi3ELi2EE3runISG_EEdRKSH_RKS3_RKT_, symObjAddr: 0xB328, symBinAddr: 0xEE30, symSize: 0x100 }
  - { offsetInCU: 0x4A1F5, offset: 0x4A1F5, size: 0x8, addend: 0x0, symName: __ZN5Eigen8internal15redux_evaluatorINS_12CwiseUnaryOpINS0_14scalar_abs2_opIdEEKNS_13CwiseBinaryOpINS0_20scalar_difference_opIddEEKNS_6MatrixIdLi3ELi1ELi0ELi3ELi1EEESA_EEEEED1Ev, symObjAddr: 0xB428, symBinAddr: 0xEF30, symSize: 0x2C }
  - { offsetInCU: 0x4A222, offset: 0x4A222, size: 0x8, addend: 0x0, symName: __ZNK5Eigen12CwiseUnaryOpINS_8internal14scalar_abs2_opIdEEKNS_13CwiseBinaryOpINS1_20scalar_difference_opIddEEKNS_6MatrixIdLi3ELi1ELi0ELi3ELi1EEES9_EEE4rowsEv, symObjAddr: 0xB454, symBinAddr: 0xEF5C, symSize: 0x28 }
  - { offsetInCU: 0x4A248, offset: 0x4A248, size: 0x8, addend: 0x0, symName: __ZNK5Eigen13CwiseBinaryOpINS_8internal20scalar_difference_opIddEEKNS_6MatrixIdLi3ELi1ELi0ELi3ELi1EEES6_E4rowsEv, symObjAddr: 0xB47C, symBinAddr: 0xEF84, symSize: 0x28 }
  - { offsetInCU: 0x4A26E, offset: 0x4A26E, size: 0x8, addend: 0x0, symName: __ZNK5Eigen12CwiseUnaryOpINS_8internal14scalar_abs2_opIdEEKNS_13CwiseBinaryOpINS1_20scalar_difference_opIddEEKNS_6MatrixIdLi3ELi1ELi0ELi3ELi1EEES9_EEE4colsEv, symObjAddr: 0xB4A4, symBinAddr: 0xEFAC, symSize: 0x28 }
  - { offsetInCU: 0x4A294, offset: 0x4A294, size: 0x8, addend: 0x0, symName: __ZNK5Eigen13CwiseBinaryOpINS_8internal20scalar_difference_opIddEEKNS_6MatrixIdLi3ELi1ELi0ELi3ELi1EEES6_E4colsEv, symObjAddr: 0xB4CC, symBinAddr: 0xEFD4, symSize: 0x28 }
  - { offsetInCU: 0x4A2BA, offset: 0x4A2BA, size: 0x8, addend: 0x0, symName: __ZN5Eigen8internal15redux_evaluatorINS_12CwiseUnaryOpINS0_14scalar_abs2_opIdEEKNS_13CwiseBinaryOpINS0_20scalar_difference_opIddEEKNS_6MatrixIdLi3ELi1ELi0ELi3ELi1EEESA_EEEEEC2ERKSD_, symObjAddr: 0xB4F4, symBinAddr: 0xEFFC, symSize: 0x34 }
  - { offsetInCU: 0x4A2F3, offset: 0x4A2F3, size: 0x8, addend: 0x0, symName: __ZN5Eigen8internal9evaluatorINS_12CwiseUnaryOpINS0_14scalar_abs2_opIdEEKNS_13CwiseBinaryOpINS0_20scalar_difference_opIddEEKNS_6MatrixIdLi3ELi1ELi0ELi3ELi1EEESA_EEEEEC2ERKSD_, symObjAddr: 0xB528, symBinAddr: 0xF030, symSize: 0x34 }
  - { offsetInCU: 0x4A32B, offset: 0x4A32B, size: 0x8, addend: 0x0, symName: __ZN5Eigen8internal15unary_evaluatorINS_12CwiseUnaryOpINS0_14scalar_abs2_opIdEEKNS_13CwiseBinaryOpINS0_20scalar_difference_opIddEEKNS_6MatrixIdLi3ELi1ELi0ELi3ELi1EEESA_EEEENS0_10IndexBasedEdEC2ERKSD_, symObjAddr: 0xB55C, symBinAddr: 0xF064, symSize: 0x64 }
  - { offsetInCU: 0x4A364, offset: 0x4A364, size: 0x8, addend: 0x0, symName: __ZN5Eigen8internal14evaluator_baseINS_12CwiseUnaryOpINS0_14scalar_abs2_opIdEEKNS_13CwiseBinaryOpINS0_20scalar_difference_opIddEEKNS_6MatrixIdLi3ELi1ELi0ELi3ELi1EEESA_EEEEEC2Ev, symObjAddr: 0xB5C0, symBinAddr: 0xF0C8, symSize: 0x14 }
  - { offsetInCU: 0x4A38E, offset: 0x4A38E, size: 0x8, addend: 0x0, symName: __ZN5Eigen8internal15unary_evaluatorINS_12CwiseUnaryOpINS0_14scalar_abs2_opIdEEKNS_13CwiseBinaryOpINS0_20scalar_difference_opIddEEKNS_6MatrixIdLi3ELi1ELi0ELi3ELi1EEESA_EEEENS0_10IndexBasedEdE4DataC1ERKSD_, symObjAddr: 0xB5D4, symBinAddr: 0xF0DC, symSize: 0x34 }
  - { offsetInCU: 0x4A3C7, offset: 0x4A3C7, size: 0x8, addend: 0x0, symName: __ZN5Eigen8internal14evaluator_baseINS_12CwiseUnaryOpINS0_14scalar_abs2_opIdEEKNS_13CwiseBinaryOpINS0_20scalar_difference_opIddEEKNS_6MatrixIdLi3ELi1ELi0ELi3ELi1EEESA_EEEEED2Ev, symObjAddr: 0xB608, symBinAddr: 0xF110, symSize: 0x14 }
  - { offsetInCU: 0x4A3F1, offset: 0x4A3F1, size: 0x8, addend: 0x0, symName: __ZN5Eigen8internal15unary_evaluatorINS_12CwiseUnaryOpINS0_14scalar_abs2_opIdEEKNS_13CwiseBinaryOpINS0_20scalar_difference_opIddEEKNS_6MatrixIdLi3ELi1ELi0ELi3ELi1EEESA_EEEENS0_10IndexBasedEdE4DataC2ERKSD_, symObjAddr: 0xB61C, symBinAddr: 0xF124, symSize: 0x58 }
  - { offsetInCU: 0x4A42A, offset: 0x4A42A, size: 0x8, addend: 0x0, symName: __ZNK5Eigen12CwiseUnaryOpINS_8internal14scalar_abs2_opIdEEKNS_13CwiseBinaryOpINS1_20scalar_difference_opIddEEKNS_6MatrixIdLi3ELi1ELi0ELi3ELi1EEES9_EEE7functorEv, symObjAddr: 0xB674, symBinAddr: 0xF17C, symSize: 0x18 }
  - { offsetInCU: 0x4A450, offset: 0x4A450, size: 0x8, addend: 0x0, symName: __ZNK5Eigen12CwiseUnaryOpINS_8internal14scalar_abs2_opIdEEKNS_13CwiseBinaryOpINS1_20scalar_difference_opIddEEKNS_6MatrixIdLi3ELi1ELi0ELi3ELi1EEES9_EEE16nestedExpressionEv, symObjAddr: 0xB68C, symBinAddr: 0xF194, symSize: 0x18 }
  - { offsetInCU: 0x4A476, offset: 0x4A476, size: 0x8, addend: 0x0, symName: __ZN5Eigen8internal9evaluatorIKNS_13CwiseBinaryOpINS0_20scalar_difference_opIddEEKNS_6MatrixIdLi3ELi1ELi0ELi3ELi1EEES7_EEEC1ERS9_, symObjAddr: 0xB6A4, symBinAddr: 0xF1AC, symSize: 0x34 }
  - { offsetInCU: 0x4A4AE, offset: 0x4A4AE, size: 0x8, addend: 0x0, symName: __ZN5Eigen8internal9evaluatorIKNS_13CwiseBinaryOpINS0_20scalar_difference_opIddEEKNS_6MatrixIdLi3ELi1ELi0ELi3ELi1EEES7_EEEC2ERS9_, symObjAddr: 0xB6D8, symBinAddr: 0xF1E0, symSize: 0x34 }
  - { offsetInCU: 0x4A4E6, offset: 0x4A4E6, size: 0x8, addend: 0x0, symName: __ZN5Eigen8internal9evaluatorINS_13CwiseBinaryOpINS0_20scalar_difference_opIddEEKNS_6MatrixIdLi3ELi1ELi0ELi3ELi1EEES7_EEEC2ERKS8_, symObjAddr: 0xB70C, symBinAddr: 0xF214, symSize: 0x34 }
  - { offsetInCU: 0x4A51F, offset: 0x4A51F, size: 0x8, addend: 0x0, symName: __ZN5Eigen8internal16binary_evaluatorINS_13CwiseBinaryOpINS0_20scalar_difference_opIddEEKNS_6MatrixIdLi3ELi1ELi0ELi3ELi1EEES7_EENS0_10IndexBasedES9_ddEC2ERKS8_, symObjAddr: 0xB740, symBinAddr: 0xF248, symSize: 0x64 }
  - { offsetInCU: 0x4A558, offset: 0x4A558, size: 0x8, addend: 0x0, symName: __ZN5Eigen8internal14evaluator_baseINS_13CwiseBinaryOpINS0_20scalar_difference_opIddEEKNS_6MatrixIdLi3ELi1ELi0ELi3ELi1EEES7_EEEC2Ev, symObjAddr: 0xB7A4, symBinAddr: 0xF2AC, symSize: 0x14 }
  - { offsetInCU: 0x4A582, offset: 0x4A582, size: 0x8, addend: 0x0, symName: __ZN5Eigen8internal16binary_evaluatorINS_13CwiseBinaryOpINS0_20scalar_difference_opIddEEKNS_6MatrixIdLi3ELi1ELi0ELi3ELi1EEES7_EENS0_10IndexBasedES9_ddE4DataC1ERKS8_, symObjAddr: 0xB7B8, symBinAddr: 0xF2C0, symSize: 0x34 }
  - { offsetInCU: 0x4A5BB, offset: 0x4A5BB, size: 0x8, addend: 0x0, symName: __ZN5Eigen8internal14evaluator_baseINS_13CwiseBinaryOpINS0_20scalar_difference_opIddEEKNS_6MatrixIdLi3ELi1ELi0ELi3ELi1EEES7_EEED2Ev, symObjAddr: 0xB7EC, symBinAddr: 0xF2F4, symSize: 0x14 }
  - { offsetInCU: 0x4A5E5, offset: 0x4A5E5, size: 0x8, addend: 0x0, symName: __ZN5Eigen8internal16binary_evaluatorINS_13CwiseBinaryOpINS0_20scalar_difference_opIddEEKNS_6MatrixIdLi3ELi1ELi0ELi3ELi1EEES7_EENS0_10IndexBasedES9_ddE4DataC2ERKS8_, symObjAddr: 0xB800, symBinAddr: 0xF308, symSize: 0xA8 }
  - { offsetInCU: 0x4A61E, offset: 0x4A61E, size: 0x8, addend: 0x0, symName: __ZNK5Eigen13CwiseBinaryOpINS_8internal20scalar_difference_opIddEEKNS_6MatrixIdLi3ELi1ELi0ELi3ELi1EEES6_E7functorEv, symObjAddr: 0xB8A8, symBinAddr: 0xF3B0, symSize: 0x18 }
  - { offsetInCU: 0x4A644, offset: 0x4A644, size: 0x8, addend: 0x0, symName: __ZNK5Eigen13CwiseBinaryOpINS_8internal20scalar_difference_opIddEEKNS_6MatrixIdLi3ELi1ELi0ELi3ELi1EEES6_E3lhsEv, symObjAddr: 0xB8C0, symBinAddr: 0xF3C8, symSize: 0x18 }
  - { offsetInCU: 0x4A66A, offset: 0x4A66A, size: 0x8, addend: 0x0, symName: __ZN5Eigen8internal9evaluatorIKNS_6MatrixIdLi3ELi1ELi0ELi3ELi1EEEEC1ERS4_, symObjAddr: 0xB8D8, symBinAddr: 0xF3E0, symSize: 0x34 }
  - { offsetInCU: 0x4A6A2, offset: 0x4A6A2, size: 0x8, addend: 0x0, symName: __ZNK5Eigen13CwiseBinaryOpINS_8internal20scalar_difference_opIddEEKNS_6MatrixIdLi3ELi1ELi0ELi3ELi1EEES6_E3rhsEv, symObjAddr: 0xB90C, symBinAddr: 0xF414, symSize: 0x18 }
  - { offsetInCU: 0x4A6C8, offset: 0x4A6C8, size: 0x8, addend: 0x0, symName: __ZN5Eigen8internal9evaluatorIKNS_6MatrixIdLi3ELi1ELi0ELi3ELi1EEEED1Ev, symObjAddr: 0xB924, symBinAddr: 0xF42C, symSize: 0x2C }
  - { offsetInCU: 0x4A6F4, offset: 0x4A6F4, size: 0x8, addend: 0x0, symName: __ZN5Eigen8internal9evaluatorIKNS_6MatrixIdLi3ELi1ELi0ELi3ELi1EEEEC2ERS4_, symObjAddr: 0xB950, symBinAddr: 0xF458, symSize: 0x34 }
  - { offsetInCU: 0x4A72C, offset: 0x4A72C, size: 0x8, addend: 0x0, symName: __ZN5Eigen8internal9evaluatorIKNS_6MatrixIdLi3ELi1ELi0ELi3ELi1EEEED2Ev, symObjAddr: 0xB984, symBinAddr: 0xF48C, symSize: 0x2C }
  - { offsetInCU: 0x4A762, offset: 0x4A762, size: 0x8, addend: 0x0, symName: __ZNK5Eigen8internal13scalar_sum_opIddE6preduxI19__simd128_float64_tEEdRKT_, symObjAddr: 0xB9B0, symBinAddr: 0xF4B8, symSize: 0x28 }
  - { offsetInCU: 0x4A79F, offset: 0x4A79F, size: 0x8, addend: 0x0, symName: __ZNK5Eigen8internal13scalar_sum_opIddEclERKdS4_, symObjAddr: 0xBA08, symBinAddr: 0xF510, symSize: 0x2C }
  - { offsetInCU: 0x4A7E1, offset: 0x4A7E1, size: 0x8, addend: 0x0, symName: __ZN5Eigen8internal20redux_novec_unrollerINS0_13scalar_sum_opIddEENS0_15redux_evaluatorINS_12CwiseUnaryOpINS0_14scalar_abs2_opIdEEKNS_13CwiseBinaryOpINS0_20scalar_difference_opIddEEKNS_6MatrixIdLi3ELi1ELi0ELi3ELi1EEESD_EEEEEELi2ELi1EE3runERKSH_RKS3_, symObjAddr: 0xBA34, symBinAddr: 0xF53C, symSize: 0x30 }
  - { offsetInCU: 0x4A80F, offset: 0x4A80F, size: 0x8, addend: 0x0, symName: __ZNK5Eigen8internal15redux_evaluatorINS_12CwiseUnaryOpINS0_14scalar_abs2_opIdEEKNS_13CwiseBinaryOpINS0_20scalar_difference_opIddEEKNS_6MatrixIdLi3ELi1ELi0ELi3ELi1EEESA_EEEEE18packetByOuterInnerILi0E19__simd128_float64_tEET0_ll, symObjAddr: 0xBAB4, symBinAddr: 0xF5BC, symSize: 0x34 }
  - { offsetInCU: 0x4A866, offset: 0x4A866, size: 0x8, addend: 0x0, symName: __ZNK5Eigen8internal15unary_evaluatorINS_12CwiseUnaryOpINS0_14scalar_abs2_opIdEEKNS_13CwiseBinaryOpINS0_20scalar_difference_opIddEEKNS_6MatrixIdLi3ELi1ELi0ELi3ELi1EEESA_EEEENS0_10IndexBasedEdE6packetILi0E19__simd128_float64_tEET0_ll, symObjAddr: 0xBAE8, symBinAddr: 0xF5F0, symSize: 0x58 }
  - { offsetInCU: 0x4A8BD, offset: 0x4A8BD, size: 0x8, addend: 0x0, symName: __ZNK5Eigen8internal15unary_evaluatorINS_12CwiseUnaryOpINS0_14scalar_abs2_opIdEEKNS_13CwiseBinaryOpINS0_20scalar_difference_opIddEEKNS_6MatrixIdLi3ELi1ELi0ELi3ELi1EEESA_EEEENS0_10IndexBasedEdE4Data4funcEv, symObjAddr: 0xBB40, symBinAddr: 0xF648, symSize: 0x14 }
  - { offsetInCU: 0x4A8E3, offset: 0x4A8E3, size: 0x8, addend: 0x0, symName: __ZNK5Eigen8internal14scalar_abs2_opIdE8packetOpI19__simd128_float64_tEEKT_RS6_, symObjAddr: 0xBB54, symBinAddr: 0xF65C, symSize: 0x2C }
  - { offsetInCU: 0x4A920, offset: 0x4A920, size: 0x8, addend: 0x0, symName: __ZNK5Eigen8internal16binary_evaluatorINS_13CwiseBinaryOpINS0_20scalar_difference_opIddEEKNS_6MatrixIdLi3ELi1ELi0ELi3ELi1EEES7_EENS0_10IndexBasedES9_ddE6packetILi0E19__simd128_float64_tEET0_ll, symObjAddr: 0xBB80, symBinAddr: 0xF688, symSize: 0x7C }
  - { offsetInCU: 0x4A977, offset: 0x4A977, size: 0x8, addend: 0x0, symName: __ZNK5Eigen8internal16binary_evaluatorINS_13CwiseBinaryOpINS0_20scalar_difference_opIddEEKNS_6MatrixIdLi3ELi1ELi0ELi3ELi1EEES7_EENS0_10IndexBasedES9_ddE4Data4funcEv, symObjAddr: 0xBC3C, symBinAddr: 0xF744, symSize: 0x14 }
  - { offsetInCU: 0x4A99D, offset: 0x4A99D, size: 0x8, addend: 0x0, symName: __ZNK5Eigen8internal20scalar_difference_opIddE8packetOpI19__simd128_float64_tEEKT_RS6_S7_, symObjAddr: 0xBC50, symBinAddr: 0xF758, symSize: 0x30 }
  - { offsetInCU: 0x4A9F4, offset: 0x4A9F4, size: 0x8, addend: 0x0, symName: __ZNK5Eigen8internal9evaluatorINS_15PlainObjectBaseINS_6MatrixIdLi3ELi1ELi0ELi3ELi1EEEEEE6packetILi0E19__simd128_float64_tEET0_ll, symObjAddr: 0xBC80, symBinAddr: 0xF788, symSize: 0x60 }
  - { offsetInCU: 0x4AA67, offset: 0x4AA67, size: 0x8, addend: 0x0, symName: __ZNK5Eigen8internal30plainobjectbase_evaluator_dataIdLi0EE11outerStrideEv, symObjAddr: 0xBD20, symBinAddr: 0xF828, symSize: 0x14 }
  - { offsetInCU: 0x4AA8D, offset: 0x4AA8D, size: 0x8, addend: 0x0, symName: __ZNK5Eigen8internal15redux_evaluatorINS_12CwiseUnaryOpINS0_14scalar_abs2_opIdEEKNS_13CwiseBinaryOpINS0_20scalar_difference_opIddEEKNS_6MatrixIdLi3ELi1ELi0ELi3ELi1EEESA_EEEEE17coeffByOuterInnerEll, symObjAddr: 0xBD5C, symBinAddr: 0xF864, symSize: 0x34 }
  - { offsetInCU: 0x4AAD1, offset: 0x4AAD1, size: 0x8, addend: 0x0, symName: __ZNK5Eigen8internal15unary_evaluatorINS_12CwiseUnaryOpINS0_14scalar_abs2_opIdEEKNS_13CwiseBinaryOpINS0_20scalar_difference_opIddEEKNS_6MatrixIdLi3ELi1ELi0ELi3ELi1EEESA_EEEENS0_10IndexBasedEdE5coeffEll, symObjAddr: 0xBD90, symBinAddr: 0xF898, symSize: 0x58 }
  - { offsetInCU: 0x4AB15, offset: 0x4AB15, size: 0x8, addend: 0x0, symName: __ZNK5Eigen8internal14scalar_abs2_opIdEclERKd, symObjAddr: 0xBDE8, symBinAddr: 0xF8F0, symSize: 0x28 }
  - { offsetInCU: 0x4AB49, offset: 0x4AB49, size: 0x8, addend: 0x0, symName: __ZNK5Eigen8internal16binary_evaluatorINS_13CwiseBinaryOpINS0_20scalar_difference_opIddEEKNS_6MatrixIdLi3ELi1ELi0ELi3ELi1EEES7_EENS0_10IndexBasedES9_ddE5coeffEll, symObjAddr: 0xBE10, symBinAddr: 0xF918, symSize: 0x70 }
  - { offsetInCU: 0x4AB8D, offset: 0x4AB8D, size: 0x8, addend: 0x0, symName: __ZN5Eigen8internal9abs2_implIdE3runERKd, symObjAddr: 0xBEA4, symBinAddr: 0xF9AC, symSize: 0x24 }
  - { offsetInCU: 0x4ABB1, offset: 0x4ABB1, size: 0x8, addend: 0x0, symName: __ZN5Eigen8internal17abs2_impl_defaultIdLb0EE3runERKd, symObjAddr: 0xBEC8, symBinAddr: 0xF9D0, symSize: 0x24 }
  - { offsetInCU: 0x4ABD5, offset: 0x4ABD5, size: 0x8, addend: 0x0, symName: __ZNK5Eigen8internal20scalar_difference_opIddEclERKdS4_, symObjAddr: 0xBEEC, symBinAddr: 0xF9F4, symSize: 0x2C }
  - { offsetInCU: 0x4AC19, offset: 0x4AC19, size: 0x8, addend: 0x0, symName: __ZNK5Eigen8internal9evaluatorINS_15PlainObjectBaseINS_6MatrixIdLi3ELi1ELi0ELi3ELi1EEEEEE5coeffEll, symObjAddr: 0xBF18, symBinAddr: 0xFA20, symSize: 0x5C }
  - { offsetInCU: 0x4AC5B, offset: 0x4AC5B, size: 0x8, addend: 0x0, symName: __ZN5Eigen8internal15redux_evaluatorINS_12CwiseUnaryOpINS0_14scalar_abs2_opIdEEKNS_13CwiseBinaryOpINS0_20scalar_difference_opIddEEKNS_6MatrixIdLi3ELi1ELi0ELi3ELi1EEESA_EEEEED2Ev, symObjAddr: 0xBF74, symBinAddr: 0xFA7C, symSize: 0x2C }
  - { offsetInCU: 0x4AC88, offset: 0x4AC88, size: 0x8, addend: 0x0, symName: __ZN5Eigen8internal9evaluatorINS_12CwiseUnaryOpINS0_14scalar_abs2_opIdEEKNS_13CwiseBinaryOpINS0_20scalar_difference_opIddEEKNS_6MatrixIdLi3ELi1ELi0ELi3ELi1EEESA_EEEEED2Ev, symObjAddr: 0xBFA0, symBinAddr: 0xFAA8, symSize: 0x2C }
  - { offsetInCU: 0x4ACB4, offset: 0x4ACB4, size: 0x8, addend: 0x0, symName: __ZN5Eigen8internal15unary_evaluatorINS_12CwiseUnaryOpINS0_14scalar_abs2_opIdEEKNS_13CwiseBinaryOpINS0_20scalar_difference_opIddEEKNS_6MatrixIdLi3ELi1ELi0ELi3ELi1EEESA_EEEENS0_10IndexBasedEdED2Ev, symObjAddr: 0xBFCC, symBinAddr: 0xFAD4, symSize: 0x34 }
  - { offsetInCU: 0x4ACE0, offset: 0x4ACE0, size: 0x8, addend: 0x0, symName: __ZN5Eigen8internal15unary_evaluatorINS_12CwiseUnaryOpINS0_14scalar_abs2_opIdEEKNS_13CwiseBinaryOpINS0_20scalar_difference_opIddEEKNS_6MatrixIdLi3ELi1ELi0ELi3ELi1EEESA_EEEENS0_10IndexBasedEdE4DataD1Ev, symObjAddr: 0xC000, symBinAddr: 0xFB08, symSize: 0x2C }
  - { offsetInCU: 0x4AD0D, offset: 0x4AD0D, size: 0x8, addend: 0x0, symName: __ZN5Eigen8internal15unary_evaluatorINS_12CwiseUnaryOpINS0_14scalar_abs2_opIdEEKNS_13CwiseBinaryOpINS0_20scalar_difference_opIddEEKNS_6MatrixIdLi3ELi1ELi0ELi3ELi1EEESA_EEEENS0_10IndexBasedEdE4DataD2Ev, symObjAddr: 0xC02C, symBinAddr: 0xFB34, symSize: 0x30 }
  - { offsetInCU: 0x4AD3A, offset: 0x4AD3A, size: 0x8, addend: 0x0, symName: __ZN5Eigen8internal9evaluatorIKNS_13CwiseBinaryOpINS0_20scalar_difference_opIddEEKNS_6MatrixIdLi3ELi1ELi0ELi3ELi1EEES7_EEED1Ev, symObjAddr: 0xC05C, symBinAddr: 0xFB64, symSize: 0x2C }
  - { offsetInCU: 0x4AD66, offset: 0x4AD66, size: 0x8, addend: 0x0, symName: __ZN5Eigen8internal9evaluatorIKNS_13CwiseBinaryOpINS0_20scalar_difference_opIddEEKNS_6MatrixIdLi3ELi1ELi0ELi3ELi1EEES7_EEED2Ev, symObjAddr: 0xC088, symBinAddr: 0xFB90, symSize: 0x2C }
  - { offsetInCU: 0x4AD92, offset: 0x4AD92, size: 0x8, addend: 0x0, symName: __ZN5Eigen8internal9evaluatorINS_13CwiseBinaryOpINS0_20scalar_difference_opIddEEKNS_6MatrixIdLi3ELi1ELi0ELi3ELi1EEES7_EEED2Ev, symObjAddr: 0xC0B4, symBinAddr: 0xFBBC, symSize: 0x2C }
  - { offsetInCU: 0x4ADBF, offset: 0x4ADBF, size: 0x8, addend: 0x0, symName: __ZN5Eigen8internal16binary_evaluatorINS_13CwiseBinaryOpINS0_20scalar_difference_opIddEEKNS_6MatrixIdLi3ELi1ELi0ELi3ELi1EEES7_EENS0_10IndexBasedES9_ddED2Ev, symObjAddr: 0xC0E0, symBinAddr: 0xFBE8, symSize: 0x34 }
  - { offsetInCU: 0x4ADEB, offset: 0x4ADEB, size: 0x8, addend: 0x0, symName: __ZN5Eigen8internal16binary_evaluatorINS_13CwiseBinaryOpINS0_20scalar_difference_opIddEEKNS_6MatrixIdLi3ELi1ELi0ELi3ELi1EEES7_EENS0_10IndexBasedES9_ddE4DataD1Ev, symObjAddr: 0xC114, symBinAddr: 0xFC1C, symSize: 0x2C }
  - { offsetInCU: 0x4AE18, offset: 0x4AE18, size: 0x8, addend: 0x0, symName: __ZN5Eigen8internal16binary_evaluatorINS_13CwiseBinaryOpINS0_20scalar_difference_opIddEEKNS_6MatrixIdLi3ELi1ELi0ELi3ELi1EEES7_EENS0_10IndexBasedES9_ddE4DataD2Ev, symObjAddr: 0xC140, symBinAddr: 0xFC48, symSize: 0x3C }
  - { offsetInCU: 0x4AE45, offset: 0x4AE45, size: 0x8, addend: 0x0, symName: __ZN5Eigen8internal13scalar_sum_opIddEC2Ev, symObjAddr: 0xC17C, symBinAddr: 0xFC84, symSize: 0x14 }
  - { offsetInCU: 0x4AE6F, offset: 0x4AE6F, size: 0x8, addend: 0x0, symName: __ZNSt3__16vectorIN5Eigen6MatrixIdLi3ELi1ELi0ELi3ELi1EEENS_9allocatorIS3_EEE11__make_iterB7v160006EPS3_, symObjAddr: 0xC190, symBinAddr: 0xFC98, symSize: 0x34 }
  - { offsetInCU: 0x4AEA4, offset: 0x4AEA4, size: 0x8, addend: 0x0, symName: __ZNSt3__111__wrap_iterIPN5Eigen6MatrixIdLi3ELi1ELi0ELi3ELi1EEEEC1B7v160006EPKvS4_, symObjAddr: 0xC1C4, symBinAddr: 0xFCCC, symSize: 0x3C }
  - { offsetInCU: 0x4AEEA, offset: 0x4AEEA, size: 0x8, addend: 0x0, symName: __ZNSt3__111__wrap_iterIPN5Eigen6MatrixIdLi3ELi1ELi0ELi3ELi1EEEEC2B7v160006EPKvS4_, symObjAddr: 0xC200, symBinAddr: 0xFD08, symSize: 0x24 }
  - { offsetInCU: 0x4AF30, offset: 0x4AF30, size: 0x8, addend: 0x0, symName: __ZNKSt3__16vectorIN5Eigen6MatrixIdLi3ELi1ELi0ELi3ELi1EEENS_9allocatorIS3_EEE6cbeginB7v160006Ev, symObjAddr: 0xC26C, symBinAddr: 0xFD74, symSize: 0x2C }
  - { offsetInCU: 0x4AF56, offset: 0x4AF56, size: 0x8, addend: 0x0, symName: __ZNSt3__16vectorIN5Eigen6MatrixIdLi3ELi1ELi0ELi3ELi1EEENS_9allocatorIS3_EEE17__destruct_at_endB7v160006EPS3_, symObjAddr: 0xC298, symBinAddr: 0xFDA0, symSize: 0x60 }
  - { offsetInCU: 0x4AF9A, offset: 0x4AF9A, size: 0x8, addend: 0x0, symName: __ZNSt3__16vectorIN5Eigen6MatrixIdLi3ELi1ELi0ELi3ELi1EEENS_9allocatorIS3_EEE27__invalidate_iterators_pastB7v160006EPS3_, symObjAddr: 0xC338, symBinAddr: 0xFE40, symSize: 0x14 }
  - { offsetInCU: 0x4AFD1, offset: 0x4AFD1, size: 0x8, addend: 0x0, symName: __ZNKSt3__111__wrap_iterIPKN5Eigen6MatrixIdLi3ELi1ELi0ELi3ELi1EEEE4baseB7v160006Ev, symObjAddr: 0xC34C, symBinAddr: 0xFE54, symSize: 0x18 }
  - { offsetInCU: 0x4AFF7, offset: 0x4AFF7, size: 0x8, addend: 0x0, symName: __ZNKSt3__16vectorIN5Eigen6MatrixIdLi3ELi1ELi0ELi3ELi1EEENS_9allocatorIS3_EEE5beginB7v160006Ev, symObjAddr: 0xC364, symBinAddr: 0xFE6C, symSize: 0x30 }
  - { offsetInCU: 0x4B01F, offset: 0x4B01F, size: 0x8, addend: 0x0, symName: __ZNKSt3__16vectorIN5Eigen6MatrixIdLi3ELi1ELi0ELi3ELi1EEENS_9allocatorIS3_EEE11__make_iterB7v160006EPKS3_, symObjAddr: 0xC394, symBinAddr: 0xFE9C, symSize: 0x34 }
  - { offsetInCU: 0x4B054, offset: 0x4B054, size: 0x8, addend: 0x0, symName: __ZNSt3__111__wrap_iterIPKN5Eigen6MatrixIdLi3ELi1ELi0ELi3ELi1EEEEC1B7v160006EPKvS5_, symObjAddr: 0xC3C8, symBinAddr: 0xFED0, symSize: 0x3C }
  - { offsetInCU: 0x4B09A, offset: 0x4B09A, size: 0x8, addend: 0x0, symName: __ZNSt3__111__wrap_iterIPKN5Eigen6MatrixIdLi3ELi1ELi0ELi3ELi1EEEEC2B7v160006EPKvS5_, symObjAddr: 0xC404, symBinAddr: 0xFF0C, symSize: 0x24 }
  - { offsetInCU: 0x4B0E0, offset: 0x4B0E0, size: 0x8, addend: 0x0, symName: __ZNSt3__16vectorIN5Eigen6MatrixIdLi3ELi1ELi0ELi3ELi1EEENS_9allocatorIS3_EEE22__base_destruct_at_endB7v160006EPS3_, symObjAddr: 0xC428, symBinAddr: 0xFF30, symSize: 0x8C }
  - { offsetInCU: 0x4B124, offset: 0x4B124, size: 0x8, addend: 0x0, symName: __ZNKSt3__16vectorIN5Eigen6MatrixIdLi3ELi1ELi0ELi3ELi1EEENS_9allocatorIS3_EEE17__annotate_shrinkB7v160006Em, symObjAddr: 0xC4B4, symBinAddr: 0xFFBC, symSize: 0xD0 }
  - { offsetInCU: 0x4B159, offset: 0x4B159, size: 0x8, addend: 0x0, symName: __ZNSt3__116allocator_traitsINS_9allocatorIN5Eigen6MatrixIdLi3ELi1ELi0ELi3ELi1EEEEEE7destroyB7v160006IS4_vEEvRS5_PT_, symObjAddr: 0xC584, symBinAddr: 0x1008C, symSize: 0x2C }
  - { offsetInCU: 0x4B196, offset: 0x4B196, size: 0x8, addend: 0x0, symName: __ZNSt3__16vectorIN5Eigen6MatrixIdLi3ELi1ELi0ELi3ELi1EEENS_9allocatorIS3_EEE7__allocB7v160006Ev, symObjAddr: 0xC5B0, symBinAddr: 0x100B8, symSize: 0x28 }
  - { offsetInCU: 0x4B1BC, offset: 0x4B1BC, size: 0x8, addend: 0x0, symName: __ZNSt3__19allocatorIN5Eigen6MatrixIdLi3ELi1ELi0ELi3ELi1EEEE7destroyB7v160006EPS3_, symObjAddr: 0xC5EC, symBinAddr: 0x100F4, symSize: 0x14 }
  - { offsetInCU: 0x4B1F0, offset: 0x4B1F0, size: 0x8, addend: 0x0, symName: __ZNSt3__117__compressed_pairIPN5Eigen6MatrixIdLi3ELi1ELi0ELi3ELi1EEENS_9allocatorIS3_EEE6secondB7v160006Ev, symObjAddr: 0xC600, symBinAddr: 0x10108, symSize: 0x24 }
  - { offsetInCU: 0x4B216, offset: 0x4B216, size: 0x8, addend: 0x0, symName: __ZNSt3__122__compressed_pair_elemINS_9allocatorIN5Eigen6MatrixIdLi3ELi1ELi0ELi3ELi1EEEEELi1ELb1EE5__getB7v160006Ev, symObjAddr: 0xC624, symBinAddr: 0x1012C, symSize: 0x14 }
  - { offsetInCU: 0x4B23C, offset: 0x4B23C, size: 0x8, addend: 0x0, symName: __ZNKSt3__16vectorIN5Eigen6MatrixIdLi3ELi1ELi0ELi3ELi1EEENS_9allocatorIS3_EEE31__annotate_contiguous_containerB7v160006EPKvS8_S8_S8_, symObjAddr: 0xC638, symBinAddr: 0x10140, symSize: 0x20 }
  - { offsetInCU: 0x4B28E, offset: 0x4B28E, size: 0x8, addend: 0x0, symName: __ZNKSt3__16vectorIN5Eigen6MatrixIdLi3ELi1ELi0ELi3ELi1EEENS_9allocatorIS3_EEE4dataB7v160006Ev, symObjAddr: 0xC658, symBinAddr: 0x10160, symSize: 0x28 }
  - { offsetInCU: 0x4B2B4, offset: 0x4B2B4, size: 0x8, addend: 0x0, symName: __ZNKSt3__16vectorIN5Eigen6MatrixIdLi3ELi1ELi0ELi3ELi1EEENS_9allocatorIS3_EEE8capacityB7v160006Ev, symObjAddr: 0xC680, symBinAddr: 0x10188, symSize: 0x40 }
  - { offsetInCU: 0x4B2DA, offset: 0x4B2DA, size: 0x8, addend: 0x0, symName: __ZNKSt3__16vectorIN5Eigen6MatrixIdLi3ELi1ELi0ELi3ELi1EEENS_9allocatorIS3_EEE9__end_capB7v160006Ev, symObjAddr: 0xC6C0, symBinAddr: 0x101C8, symSize: 0x28 }
  - { offsetInCU: 0x4B300, offset: 0x4B300, size: 0x8, addend: 0x0, symName: __ZNKSt3__117__compressed_pairIPN5Eigen6MatrixIdLi3ELi1ELi0ELi3ELi1EEENS_9allocatorIS3_EEE5firstB7v160006Ev, symObjAddr: 0xC6E8, symBinAddr: 0x101F0, symSize: 0x24 }
  - { offsetInCU: 0x4B326, offset: 0x4B326, size: 0x8, addend: 0x0, symName: __ZNKSt3__122__compressed_pair_elemIPN5Eigen6MatrixIdLi3ELi1ELi0ELi3ELi1EEELi0ELb0EE5__getB7v160006Ev, symObjAddr: 0xC70C, symBinAddr: 0x10214, symSize: 0x14 }
  - { offsetInCU: 0x4B366, offset: 0x4B366, size: 0x8, addend: 0x0, symName: __ZNKSt3__111__move_loopINS_17_ClassicAlgPolicyEEclB7v160006IPN5Eigen6MatrixIdLi3ELi1ELi0ELi3ELi1EEES7_S7_EENS_4pairIT_T1_EES9_T0_SA_, symObjAddr: 0xC8BC, symBinAddr: 0x103C4, symSize: 0x90 }
  - { offsetInCU: 0x4B3D1, offset: 0x4B3D1, size: 0x8, addend: 0x0, symName: __ZNSt3__18_IterOpsINS_17_ClassicAlgPolicyEE11__iter_moveB7v160006IRPN5Eigen6MatrixIdLi3ELi1ELi0ELi3ELi1EEEEENS_9enable_ifIXsr12is_referenceIDTdeclsr3stdE7declvalIRT_EEEEE5valueEDTclsr3stdE4movedeclsr3stdE7declvalISB_EEEEE4typeEOSA_, symObjAddr: 0xCA10, symBinAddr: 0x10518, symSize: 0x28 }
  - { offsetInCU: 0x4B3FD, offset: 0x4B3FD, size: 0x8, addend: 0x0, symName: __ZN5Eigen6MatrixIdLi3ELi1ELi0ELi3ELi1EEaSEOS1_, symObjAddr: 0xCA38, symBinAddr: 0x10540, symSize: 0x34 }
  - { offsetInCU: 0x4B432, offset: 0x4B432, size: 0x8, addend: 0x0, symName: __ZNSt3__18_IterOpsINS_17_ClassicAlgPolicyEE25__validate_iter_referenceB7v160006IRPN5Eigen6MatrixIdLi3ELi1ELi0ELi3ELi1EEEEEvv, symObjAddr: 0xCA6C, symBinAddr: 0x10574, symSize: 0x4 }
  - { offsetInCU: 0x4B450, offset: 0x4B450, size: 0x8, addend: 0x0, symName: __ZN5Eigen15PlainObjectBaseINS_6MatrixIdLi3ELi1ELi0ELi3ELi1EEEEaSEOS3_, symObjAddr: 0xCA70, symBinAddr: 0x10578, symSize: 0x44 }
  - { offsetInCU: 0x4B485, offset: 0x4B485, size: 0x8, addend: 0x0, symName: __ZNSt3__118__unwrap_iter_implIPN5Eigen6MatrixIdLi3ELi1ELi0ELi3ELi1EEELb1EE8__unwrapB7v160006ES4_, symObjAddr: 0xCAB4, symBinAddr: 0x105BC, symSize: 0x24 }
  - { offsetInCU: 0x4B4AE, offset: 0x4B4AE, size: 0x8, addend: 0x0, symName: __ZNSt3__14pairIPN5Eigen6MatrixIdLi3ELi1ELi0ELi3ELi1EEES4_EC1B7v160006IS4_S4_LPv0EEEOT_OT0_, symObjAddr: 0xCAD8, symBinAddr: 0x105E0, symSize: 0x3C }
  - { offsetInCU: 0x4B50C, offset: 0x4B50C, size: 0x8, addend: 0x0, symName: __ZNSt3__14pairIPN5Eigen6MatrixIdLi3ELi1ELi0ELi3ELi1EEES4_EC2B7v160006IS4_S4_LPv0EEEOT_OT0_, symObjAddr: 0xCB14, symBinAddr: 0x1061C, symSize: 0x34 }
  - { offsetInCU: 0x4B56A, offset: 0x4B56A, size: 0x8, addend: 0x0, symName: __ZNSt3__118__unwrap_iter_implIPN5Eigen6MatrixIdLi3ELi1ELi0ELi3ELi1EEELb1EE8__rewrapB7v160006ES4_S4_, symObjAddr: 0xCB48, symBinAddr: 0x10650, symSize: 0x58 }
  - { offsetInCU: 0x4B59B, offset: 0x4B59B, size: 0x8, addend: 0x0, symName: __ZN5Eigen15DenseCoeffsBaseINS_6MatrixIdLin1ELi1ELi0ELin1ELi1EEELi1EE8coeffRefEl, symObjAddr: 0xCBA0, symBinAddr: 0x106A8, symSize: 0x78 }
  - { offsetInCU: 0x4B5D0, offset: 0x4B5D0, size: 0x8, addend: 0x0, symName: __ZN5Eigen8internal9evaluatorINS_6MatrixIdLin1ELi1ELi0ELin1ELi1EEEEC1ERKS3_, symObjAddr: 0xCC18, symBinAddr: 0x10720, symSize: 0x34 }
  - { offsetInCU: 0x4B609, offset: 0x4B609, size: 0x8, addend: 0x0, symName: __ZN5Eigen8internal9evaluatorINS_15PlainObjectBaseINS_6MatrixIdLin1ELi1ELi0ELin1ELi1EEEEEE8coeffRefEl, symObjAddr: 0xCC4C, symBinAddr: 0x10754, symSize: 0x24 }
  - { offsetInCU: 0x4B63D, offset: 0x4B63D, size: 0x8, addend: 0x0, symName: __ZN5Eigen8internal9evaluatorINS_6MatrixIdLin1ELi1ELi0ELin1ELi1EEEED1Ev, symObjAddr: 0xCC70, symBinAddr: 0x10778, symSize: 0x2C }
  - { offsetInCU: 0x4B66A, offset: 0x4B66A, size: 0x8, addend: 0x0, symName: __ZN5Eigen8internal9evaluatorINS_6MatrixIdLin1ELi1ELi0ELin1ELi1EEEEC2ERKS3_, symObjAddr: 0xCC9C, symBinAddr: 0x107A4, symSize: 0x34 }
  - { offsetInCU: 0x4B6A3, offset: 0x4B6A3, size: 0x8, addend: 0x0, symName: __ZN5Eigen8internal9evaluatorINS_15PlainObjectBaseINS_6MatrixIdLin1ELi1ELi0ELin1ELi1EEEEEEC2ERKS5_, symObjAddr: 0xCCD0, symBinAddr: 0x107D8, symSize: 0x78 }
  - { offsetInCU: 0x4B6DB, offset: 0x4B6DB, size: 0x8, addend: 0x0, symName: __ZN5Eigen8internal14evaluator_baseINS_6MatrixIdLin1ELi1ELi0ELin1ELi1EEEEC2Ev, symObjAddr: 0xCD48, symBinAddr: 0x10850, symSize: 0x14 }
  - { offsetInCU: 0x4B705, offset: 0x4B705, size: 0x8, addend: 0x0, symName: __ZNK5Eigen15PlainObjectBaseINS_6MatrixIdLin1ELi1ELi0ELin1ELi1EEEE4dataEv, symObjAddr: 0xCD5C, symBinAddr: 0x10864, symSize: 0x24 }
  - { offsetInCU: 0x4B72B, offset: 0x4B72B, size: 0x8, addend: 0x0, symName: __ZN5Eigen8internal14evaluator_baseINS_6MatrixIdLin1ELi1ELi0ELin1ELi1EEEED2Ev, symObjAddr: 0xCD80, symBinAddr: 0x10888, symSize: 0x14 }
  - { offsetInCU: 0x4B755, offset: 0x4B755, size: 0x8, addend: 0x0, symName: __ZNK5Eigen12DenseStorageIdLin1ELin1ELi1ELi0EE4dataEv, symObjAddr: 0xCD94, symBinAddr: 0x1089C, symSize: 0x18 }
  - { offsetInCU: 0x4B77B, offset: 0x4B77B, size: 0x8, addend: 0x0, symName: __ZN5Eigen8internal9evaluatorINS_6MatrixIdLin1ELi1ELi0ELin1ELi1EEEED2Ev, symObjAddr: 0xCDAC, symBinAddr: 0x108B4, symSize: 0x2C }
  - { offsetInCU: 0x4B7A8, offset: 0x4B7A8, size: 0x8, addend: 0x0, symName: __ZN5Eigen8internal9evaluatorINS_15PlainObjectBaseINS_6MatrixIdLin1ELi1ELi0ELin1ELi1EEEEEED2Ev, symObjAddr: 0xCDD8, symBinAddr: 0x108E0, symSize: 0x2C }
  - { offsetInCU: 0x4B7D4, offset: 0x4B7D4, size: 0x8, addend: 0x0, symName: __ZN5Eigen9DenseBaseINS_6MatrixIdLin1ELin1ELi0ELin1ELin1EEEE8ConstantEllRKd, symObjAddr: 0xCE04, symBinAddr: 0x1090C, symSize: 0x60 }
  - { offsetInCU: 0x4B818, offset: 0x4B818, size: 0x8, addend: 0x0, symName: __ZN5Eigen9DenseBaseINS_6MatrixIdLin1ELin1ELi0ELin1ELin1EEEE11NullaryExprINS_8internal18scalar_constant_opIdEEEEKNS_14CwiseNullaryOpIT_S2_EEllRKS9_, symObjAddr: 0xCE64, symBinAddr: 0x1096C, symSize: 0x48 }
  - { offsetInCU: 0x4B865, offset: 0x4B865, size: 0x8, addend: 0x0, symName: __ZN5Eigen14CwiseNullaryOpINS_8internal18scalar_constant_opIdEENS_6MatrixIdLin1ELin1ELi0ELin1ELin1EEEEC1EllRKS3_, symObjAddr: 0xCEAC, symBinAddr: 0x109B4, symSize: 0x44 }
  - { offsetInCU: 0x4B8B9, offset: 0x4B8B9, size: 0x8, addend: 0x0, symName: __ZN5Eigen14CwiseNullaryOpINS_8internal18scalar_constant_opIdEENS_6MatrixIdLin1ELin1ELi0ELin1ELin1EEEEC2EllRKS3_, symObjAddr: 0xCEF0, symBinAddr: 0x109F8, symSize: 0xDC }
  - { offsetInCU: 0x4B90D, offset: 0x4B90D, size: 0x8, addend: 0x0, symName: __ZN5Eigen10MatrixBaseINS_14CwiseNullaryOpINS_8internal18scalar_constant_opIdEENS_6MatrixIdLin1ELin1ELi0ELin1ELin1EEEEEEC2Ev, symObjAddr: 0xCFCC, symBinAddr: 0x10AD4, symSize: 0x2C }
  - { offsetInCU: 0x4B937, offset: 0x4B937, size: 0x8, addend: 0x0, symName: __ZN5Eigen9DenseBaseINS_14CwiseNullaryOpINS_8internal18scalar_constant_opIdEENS_6MatrixIdLin1ELin1ELi0ELin1ELin1EEEEEEC2Ev, symObjAddr: 0xCFF8, symBinAddr: 0x10B00, symSize: 0x14 }
  - { offsetInCU: 0x4B961, offset: 0x4B961, size: 0x8, addend: 0x0, symName: __ZN5Eigen6MatrixIdLin1ELin1ELi0ELin1ELin1EEC2INS_14CwiseNullaryOpINS_8internal18scalar_constant_opIdEES1_EEEERKNS_9EigenBaseIT_EE, symObjAddr: 0xD00C, symBinAddr: 0x10B14, symSize: 0x40 }
  - { offsetInCU: 0x4B9A3, offset: 0x4B9A3, size: 0x8, addend: 0x0, symName: __ZNK5Eigen9EigenBaseINS_14CwiseNullaryOpINS_8internal18scalar_constant_opIdEENS_6MatrixIdLin1ELin1ELi0ELin1ELin1EEEEEE7derivedEv, symObjAddr: 0xD04C, symBinAddr: 0x10B54, symSize: 0x14 }
  - { offsetInCU: 0x4B9C9, offset: 0x4B9C9, size: 0x8, addend: 0x0, symName: __ZN5Eigen15PlainObjectBaseINS_6MatrixIdLin1ELin1ELi0ELin1ELin1EEEEC2INS_14CwiseNullaryOpINS_8internal18scalar_constant_opIdEES2_EEEERKNS_9DenseBaseIT_EE, symObjAddr: 0xD060, symBinAddr: 0x10B68, symSize: 0x80 }
  - { offsetInCU: 0x4BA0B, offset: 0x4BA0B, size: 0x8, addend: 0x0, symName: __ZN5Eigen15PlainObjectBaseINS_6MatrixIdLin1ELin1ELi0ELin1ELin1EEEE10resizeLikeINS_14CwiseNullaryOpINS_8internal18scalar_constant_opIdEES2_EEEEvRKNS_9EigenBaseIT_EE, symObjAddr: 0xD0E0, symBinAddr: 0x10BE8, symSize: 0x11C }
  - { offsetInCU: 0x4BA9F, offset: 0x4BA9F, size: 0x8, addend: 0x0, symName: __ZN5Eigen15PlainObjectBaseINS_6MatrixIdLin1ELin1ELi0ELin1ELin1EEEE12_set_noaliasINS_14CwiseNullaryOpINS_8internal18scalar_constant_opIdEES2_EEEERS2_RKNS_9DenseBaseIT_EE, symObjAddr: 0xD1FC, symBinAddr: 0x10D04, symSize: 0x60 }
  - { offsetInCU: 0x4BADD, offset: 0x4BADD, size: 0x8, addend: 0x0, symName: __ZNK5Eigen14CwiseNullaryOpINS_8internal18scalar_constant_opIdEENS_6MatrixIdLin1ELin1ELi0ELin1ELin1EEEE4rowsEv, symObjAddr: 0xD25C, symBinAddr: 0x10D64, symSize: 0x24 }
  - { offsetInCU: 0x4BB03, offset: 0x4BB03, size: 0x8, addend: 0x0, symName: __ZNK5Eigen14CwiseNullaryOpINS_8internal18scalar_constant_opIdEENS_6MatrixIdLin1ELin1ELi0ELin1ELin1EEEE4colsEv, symObjAddr: 0xD280, symBinAddr: 0x10D88, symSize: 0x28 }
  - { offsetInCU: 0x4BB29, offset: 0x4BB29, size: 0x8, addend: 0x0, symName: __ZN5Eigen8internal10AssignmentINS_6MatrixIdLin1ELin1ELi0ELin1ELin1EEENS_14CwiseNullaryOpINS0_18scalar_constant_opIdEES3_EENS0_9assign_opIddEENS0_11Dense2DenseEvE3runERS3_RKS7_RKS9_, symObjAddr: 0xD2E4, symBinAddr: 0x10DEC, symSize: 0x40 }
  - { offsetInCU: 0x4BB6B, offset: 0x4BB6B, size: 0x8, addend: 0x0, symName: __ZN5Eigen8internal27checkTransposeAliasing_implINS_6MatrixIdLin1ELin1ELi0ELin1ELin1EEENS_14CwiseNullaryOpINS0_18scalar_constant_opIdEES3_EELb0EE3runERKS3_RKS7_, symObjAddr: 0xD3F0, symBinAddr: 0x10EF8, symSize: 0x14 }
  - { offsetInCU: 0x4BB96, offset: 0x4BB96, size: 0x8, addend: 0x0, symName: __ZNK5Eigen14CwiseNullaryOpINS_8internal18scalar_constant_opIdEENS_6MatrixIdLin1ELin1ELi0ELin1ELin1EEEE7functorEv, symObjAddr: 0xD4FC, symBinAddr: 0x11004, symSize: 0x18 }
  - { offsetInCU: 0x4BBBC, offset: 0x4BBBC, size: 0x8, addend: 0x0, symName: __ZN5Eigen15DenseCoeffsBaseINS_6MatrixIdLin1ELin1ELi0ELin1ELin1EEELi1EE8coeffRefEll, symObjAddr: 0xD514, symBinAddr: 0x1101C, symSize: 0x80 }
  - { offsetInCU: 0x4BC00, offset: 0x4BC00, size: 0x8, addend: 0x0, symName: __ZN5Eigen8internal9evaluatorINS_6MatrixIdLin1ELin1ELi0ELin1ELin1EEEEC1ERKS3_, symObjAddr: 0xD594, symBinAddr: 0x1109C, symSize: 0x34 }
  - { offsetInCU: 0x4BC39, offset: 0x4BC39, size: 0x8, addend: 0x0, symName: __ZN5Eigen8internal9evaluatorINS_15PlainObjectBaseINS_6MatrixIdLin1ELin1ELi0ELin1ELin1EEEEEE8coeffRefEll, symObjAddr: 0xD5C8, symBinAddr: 0x110D0, symSize: 0x5C }
  - { offsetInCU: 0x4BC7B, offset: 0x4BC7B, size: 0x8, addend: 0x0, symName: __ZN5Eigen8internal9evaluatorINS_6MatrixIdLin1ELin1ELi0ELin1ELin1EEEED1Ev, symObjAddr: 0xD624, symBinAddr: 0x1112C, symSize: 0x2C }
  - { offsetInCU: 0x4BCA8, offset: 0x4BCA8, size: 0x8, addend: 0x0, symName: __ZN5Eigen8internal9evaluatorINS_6MatrixIdLin1ELin1ELi0ELin1ELin1EEEEC2ERKS3_, symObjAddr: 0xD650, symBinAddr: 0x11158, symSize: 0x34 }
  - { offsetInCU: 0x4BCE1, offset: 0x4BCE1, size: 0x8, addend: 0x0, symName: __ZN5Eigen8internal9evaluatorINS_15PlainObjectBaseINS_6MatrixIdLin1ELin1ELi0ELin1ELin1EEEEEEC2ERKS5_, symObjAddr: 0xD684, symBinAddr: 0x1118C, symSize: 0x80 }
  - { offsetInCU: 0x4BD19, offset: 0x4BD19, size: 0x8, addend: 0x0, symName: __ZN5Eigen8internal14evaluator_baseINS_6MatrixIdLin1ELin1ELi0ELin1ELin1EEEEC2Ev, symObjAddr: 0xD704, symBinAddr: 0x1120C, symSize: 0x14 }
  - { offsetInCU: 0x4BD43, offset: 0x4BD43, size: 0x8, addend: 0x0, symName: __ZNK5Eigen15PlainObjectBaseINS_6MatrixIdLin1ELin1ELi0ELin1ELin1EEEE4dataEv, symObjAddr: 0xD718, symBinAddr: 0x11220, symSize: 0x24 }
  - { offsetInCU: 0x4BD69, offset: 0x4BD69, size: 0x8, addend: 0x0, symName: __ZNK5Eigen15DenseCoeffsBaseINS_6MatrixIdLin1ELin1ELi0ELin1ELin1EEELi3EE11outerStrideEv, symObjAddr: 0xD73C, symBinAddr: 0x11244, symSize: 0x28 }
  - { offsetInCU: 0x4BD8F, offset: 0x4BD8F, size: 0x8, addend: 0x0, symName: __ZN5Eigen8internal30plainobjectbase_evaluator_dataIdLin1EEC1EPKdl, symObjAddr: 0xD764, symBinAddr: 0x1126C, symSize: 0x3C }
  - { offsetInCU: 0x4BDD5, offset: 0x4BDD5, size: 0x8, addend: 0x0, symName: __ZN5Eigen8internal14evaluator_baseINS_6MatrixIdLin1ELin1ELi0ELin1ELin1EEEED2Ev, symObjAddr: 0xD7A0, symBinAddr: 0x112A8, symSize: 0x14 }
  - { offsetInCU: 0x4BDFF, offset: 0x4BDFF, size: 0x8, addend: 0x0, symName: __ZNK5Eigen12DenseStorageIdLin1ELin1ELin1ELi0EE4dataEv, symObjAddr: 0xD7B4, symBinAddr: 0x112BC, symSize: 0x18 }
  - { offsetInCU: 0x4BE25, offset: 0x4BE25, size: 0x8, addend: 0x0, symName: __ZN5Eigen8internal30plainobjectbase_evaluator_dataIdLin1EEC2EPKdl, symObjAddr: 0xD7CC, symBinAddr: 0x112D4, symSize: 0x2C }
  - { offsetInCU: 0x4BE6B, offset: 0x4BE6B, size: 0x8, addend: 0x0, symName: __ZNK5Eigen8internal30plainobjectbase_evaluator_dataIdLin1EE11outerStrideEv, symObjAddr: 0xD7F8, symBinAddr: 0x11300, symSize: 0x18 }
  - { offsetInCU: 0x4BE91, offset: 0x4BE91, size: 0x8, addend: 0x0, symName: __ZN5Eigen8internal9evaluatorINS_6MatrixIdLin1ELin1ELi0ELin1ELin1EEEED2Ev, symObjAddr: 0xD810, symBinAddr: 0x11318, symSize: 0x2C }
  - { offsetInCU: 0x4BEBE, offset: 0x4BEBE, size: 0x8, addend: 0x0, symName: __ZN5Eigen8internal9evaluatorINS_15PlainObjectBaseINS_6MatrixIdLin1ELin1ELi0ELin1ELin1EEEEEED2Ev, symObjAddr: 0xD83C, symBinAddr: 0x11344, symSize: 0x2C }
  - { offsetInCU: 0x4BEEA, offset: 0x4BEEA, size: 0x8, addend: 0x0, symName: __ZN5Eigen15DenseCoeffsBaseINS_6MatrixIdLi2ELi1ELi0ELi2ELi1EEELi1EEixEl, symObjAddr: 0xD868, symBinAddr: 0x11370, symSize: 0xA4 }
  - { offsetInCU: 0x4BF1F, offset: 0x4BF1F, size: 0x8, addend: 0x0, symName: __ZNK5Eigen9EigenBaseINS_6MatrixIdLi2ELi1ELi0ELi2ELi1EEEE4sizeEv, symObjAddr: 0xD90C, symBinAddr: 0x11414, symSize: 0x44 }
  - { offsetInCU: 0x4BF45, offset: 0x4BF45, size: 0x8, addend: 0x0, symName: __ZN5Eigen15DenseCoeffsBaseINS_6MatrixIdLi2ELi1ELi0ELi2ELi1EEELi1EE8coeffRefEl, symObjAddr: 0xD950, symBinAddr: 0x11458, symSize: 0x78 }
  - { offsetInCU: 0x4BF7A, offset: 0x4BF7A, size: 0x8, addend: 0x0, symName: __ZNK5Eigen9EigenBaseINS_6MatrixIdLi2ELi1ELi0ELi2ELi1EEEE4rowsEv, symObjAddr: 0xD9C8, symBinAddr: 0x114D0, symSize: 0x38 }
  - { offsetInCU: 0x4BFA0, offset: 0x4BFA0, size: 0x8, addend: 0x0, symName: __ZNK5Eigen9EigenBaseINS_6MatrixIdLi2ELi1ELi0ELi2ELi1EEEE4colsEv, symObjAddr: 0xDA00, symBinAddr: 0x11508, symSize: 0x28 }
  - { offsetInCU: 0x4BFC6, offset: 0x4BFC6, size: 0x8, addend: 0x0, symName: __ZNK5Eigen9EigenBaseINS_6MatrixIdLi2ELi1ELi0ELi2ELi1EEEE7derivedEv, symObjAddr: 0xDA28, symBinAddr: 0x11530, symSize: 0x14 }
  - { offsetInCU: 0x4BFEC, offset: 0x4BFEC, size: 0x8, addend: 0x0, symName: __ZNK5Eigen15PlainObjectBaseINS_6MatrixIdLi2ELi1ELi0ELi2ELi1EEEE4rowsEv, symObjAddr: 0xDA3C, symBinAddr: 0x11544, symSize: 0x20 }
  - { offsetInCU: 0x4C012, offset: 0x4C012, size: 0x8, addend: 0x0, symName: __ZN5Eigen12DenseStorageIdLi2ELi2ELi1ELi0EE4rowsEv, symObjAddr: 0xDA5C, symBinAddr: 0x11564, symSize: 0x8 }
  - { offsetInCU: 0x4C026, offset: 0x4C026, size: 0x8, addend: 0x0, symName: __ZNK5Eigen15PlainObjectBaseINS_6MatrixIdLi2ELi1ELi0ELi2ELi1EEEE4colsEv, symObjAddr: 0xDA64, symBinAddr: 0x1156C, symSize: 0x20 }
  - { offsetInCU: 0x4C04C, offset: 0x4C04C, size: 0x8, addend: 0x0, symName: __ZN5Eigen12DenseStorageIdLi2ELi2ELi1ELi0EE4colsEv, symObjAddr: 0xDA84, symBinAddr: 0x1158C, symSize: 0x8 }
  - { offsetInCU: 0x4C060, offset: 0x4C060, size: 0x8, addend: 0x0, symName: __ZN5Eigen9EigenBaseINS_6MatrixIdLi2ELi1ELi0ELi2ELi1EEEE7derivedEv, symObjAddr: 0xDA8C, symBinAddr: 0x11594, symSize: 0x14 }
  - { offsetInCU: 0x4C086, offset: 0x4C086, size: 0x8, addend: 0x0, symName: __ZN5Eigen8internal9evaluatorINS_6MatrixIdLi2ELi1ELi0ELi2ELi1EEEEC1ERKS3_, symObjAddr: 0xDAA0, symBinAddr: 0x115A8, symSize: 0x34 }
  - { offsetInCU: 0x4C0BF, offset: 0x4C0BF, size: 0x8, addend: 0x0, symName: __ZN5Eigen8internal9evaluatorINS_15PlainObjectBaseINS_6MatrixIdLi2ELi1ELi0ELi2ELi1EEEEEE8coeffRefEl, symObjAddr: 0xDAD4, symBinAddr: 0x115DC, symSize: 0x24 }
  - { offsetInCU: 0x4C0F3, offset: 0x4C0F3, size: 0x8, addend: 0x0, symName: __ZN5Eigen8internal9evaluatorINS_6MatrixIdLi2ELi1ELi0ELi2ELi1EEEED1Ev, symObjAddr: 0xDAF8, symBinAddr: 0x11600, symSize: 0x2C }
  - { offsetInCU: 0x4C120, offset: 0x4C120, size: 0x8, addend: 0x0, symName: __ZN5Eigen8internal9evaluatorINS_6MatrixIdLi2ELi1ELi0ELi2ELi1EEEEC2ERKS3_, symObjAddr: 0xDB24, symBinAddr: 0x1162C, symSize: 0x34 }
  - { offsetInCU: 0x4C159, offset: 0x4C159, size: 0x8, addend: 0x0, symName: __ZN5Eigen8internal9evaluatorINS_15PlainObjectBaseINS_6MatrixIdLi2ELi1ELi0ELi2ELi1EEEEEEC2ERKS5_, symObjAddr: 0xDB58, symBinAddr: 0x11660, symSize: 0x78 }
  - { offsetInCU: 0x4C191, offset: 0x4C191, size: 0x8, addend: 0x0, symName: __ZN5Eigen8internal14evaluator_baseINS_6MatrixIdLi2ELi1ELi0ELi2ELi1EEEEC2Ev, symObjAddr: 0xDBD0, symBinAddr: 0x116D8, symSize: 0x14 }
  - { offsetInCU: 0x4C1BB, offset: 0x4C1BB, size: 0x8, addend: 0x0, symName: __ZNK5Eigen15PlainObjectBaseINS_6MatrixIdLi2ELi1ELi0ELi2ELi1EEEE4dataEv, symObjAddr: 0xDBE4, symBinAddr: 0x116EC, symSize: 0x24 }
  - { offsetInCU: 0x4C1E1, offset: 0x4C1E1, size: 0x8, addend: 0x0, symName: __ZN5Eigen8internal14evaluator_baseINS_6MatrixIdLi2ELi1ELi0ELi2ELi1EEEED2Ev, symObjAddr: 0xDC08, symBinAddr: 0x11710, symSize: 0x14 }
  - { offsetInCU: 0x4C20B, offset: 0x4C20B, size: 0x8, addend: 0x0, symName: __ZNK5Eigen12DenseStorageIdLi2ELi2ELi1ELi0EE4dataEv, symObjAddr: 0xDC1C, symBinAddr: 0x11724, symSize: 0x14 }
  - { offsetInCU: 0x4C231, offset: 0x4C231, size: 0x8, addend: 0x0, symName: __ZN5Eigen8internal9evaluatorINS_6MatrixIdLi2ELi1ELi0ELi2ELi1EEEED2Ev, symObjAddr: 0xDC30, symBinAddr: 0x11738, symSize: 0x2C }
  - { offsetInCU: 0x4C25E, offset: 0x4C25E, size: 0x8, addend: 0x0, symName: __ZN5Eigen8internal9evaluatorINS_15PlainObjectBaseINS_6MatrixIdLi2ELi1ELi0ELi2ELi1EEEEEED2Ev, symObjAddr: 0xDC5C, symBinAddr: 0x11764, symSize: 0x2C }
  - { offsetInCU: 0x4C28A, offset: 0x4C28A, size: 0x8, addend: 0x0, symName: __ZN5Eigen5BlockIKNS_6MatrixIdLin1ELin1ELi0ELin1ELin1EEELi1ELin1ELb0EEC1ERS3_l, symObjAddr: 0xDC88, symBinAddr: 0x11790, symSize: 0x3C }
  - { offsetInCU: 0x4C2D0, offset: 0x4C2D0, size: 0x8, addend: 0x0, symName: __ZN5Eigen5BlockIKNS_6MatrixIdLin1ELin1ELi0ELin1ELin1EEELi1ELin1ELb0EEC2ERS3_l, symObjAddr: 0xDCC4, symBinAddr: 0x117CC, symSize: 0xCC }
  - { offsetInCU: 0x4C316, offset: 0x4C316, size: 0x8, addend: 0x0, symName: __ZN5Eigen9BlockImplIKNS_6MatrixIdLin1ELin1ELi0ELin1ELin1EEELi1ELin1ELb0ENS_5DenseEEC2ERS3_l, symObjAddr: 0xDD90, symBinAddr: 0x11898, symSize: 0x3C }
  - { offsetInCU: 0x4C35C, offset: 0x4C35C, size: 0x8, addend: 0x0, symName: __ZN5Eigen8internal15BlockImpl_denseIKNS_6MatrixIdLin1ELin1ELi0ELin1ELin1EEELi1ELin1ELb0ELb1EEC2ERS4_l, symObjAddr: 0xDDCC, symBinAddr: 0x118D4, symSize: 0xAC }
  - { offsetInCU: 0x4C3A4, offset: 0x4C3A4, size: 0x8, addend: 0x0, symName: __ZN5Eigen7MapBaseINS_5BlockIKNS_6MatrixIdLin1ELin1ELi0ELin1ELin1EEELi1ELin1ELb0EEELi0EEC2EPKdll, symObjAddr: 0xDE78, symBinAddr: 0x11980, symSize: 0x130 }
  - { offsetInCU: 0x4C3F8, offset: 0x4C3F8, size: 0x8, addend: 0x0, symName: __ZN5Eigen8internal15BlockImpl_denseIKNS_6MatrixIdLin1ELin1ELi0ELin1ELin1EEELi1ELin1ELb0ELb1EE4initEv, symObjAddr: 0xDFA8, symBinAddr: 0x11AB0, symSize: 0x34 }
  - { offsetInCU: 0x4C41E, offset: 0x4C41E, size: 0x8, addend: 0x0, symName: __ZN5Eigen10MatrixBaseINS_5BlockIKNS_6MatrixIdLin1ELin1ELi0ELin1ELin1EEELi1ELin1ELb0EEEEC2Ev, symObjAddr: 0xDFDC, symBinAddr: 0x11AE4, symSize: 0x2C }
  - { offsetInCU: 0x4C448, offset: 0x4C448, size: 0x8, addend: 0x0, symName: __ZNK5Eigen7MapBaseINS_5BlockIKNS_6MatrixIdLin1ELin1ELi0ELin1ELin1EEELi1ELin1ELb0EEELi0EE11checkSanityIS5_EEvNS_8internal9enable_ifIXeqsr8internal6traitsIT_EE9AlignmentLi0EEPvE4typeE, symObjAddr: 0xE008, symBinAddr: 0x11B10, symSize: 0x14 }
  - { offsetInCU: 0x4C482, offset: 0x4C482, size: 0x8, addend: 0x0, symName: __ZN5Eigen9DenseBaseINS_5BlockIKNS_6MatrixIdLin1ELin1ELi0ELin1ELin1EEELi1ELin1ELb0EEEEC2Ev, symObjAddr: 0xE01C, symBinAddr: 0x11B24, symSize: 0x14 }
  - { offsetInCU: 0x4C4AC, offset: 0x4C4AC, size: 0x8, addend: 0x0, symName: __ZN5Eigen6MatrixIdLi3ELi1ELi0ELi3ELi1EEC2INS_5BlockIKNS0_IdLin1ELin1ELi0ELin1ELin1EEELi1ELin1ELb0EEEEERKNS_9EigenBaseIT_EE, symObjAddr: 0xE030, symBinAddr: 0x11B38, symSize: 0x40 }
  - { offsetInCU: 0x4C4EE, offset: 0x4C4EE, size: 0x8, addend: 0x0, symName: __ZNK5Eigen9EigenBaseINS_5BlockIKNS_6MatrixIdLin1ELin1ELi0ELin1ELin1EEELi1ELin1ELb0EEEE7derivedEv, symObjAddr: 0xE070, symBinAddr: 0x11B78, symSize: 0x14 }
  - { offsetInCU: 0x4C514, offset: 0x4C514, size: 0x8, addend: 0x0, symName: __ZN5Eigen15PlainObjectBaseINS_6MatrixIdLi3ELi1ELi0ELi3ELi1EEEEC2INS_5BlockIKNS1_IdLin1ELin1ELi0ELin1ELin1EEELi1ELin1ELb0EEEEERKNS_9DenseBaseIT_EE, symObjAddr: 0xE084, symBinAddr: 0x11B8C, symSize: 0x54 }
  - { offsetInCU: 0x4C556, offset: 0x4C556, size: 0x8, addend: 0x0, symName: __ZN5Eigen15PlainObjectBaseINS_6MatrixIdLi3ELi1ELi0ELi3ELi1EEEE10resizeLikeINS_5BlockIKNS1_IdLin1ELin1ELi0ELin1ELin1EEELi1ELin1ELb0EEEEEvRKNS_9EigenBaseIT_EE, symObjAddr: 0xE0D8, symBinAddr: 0x11BE0, symSize: 0xF0 }
  - { offsetInCU: 0x4C5B2, offset: 0x4C5B2, size: 0x8, addend: 0x0, symName: __ZN5Eigen15PlainObjectBaseINS_6MatrixIdLi3ELi1ELi0ELi3ELi1EEEE12_set_noaliasINS_5BlockIKNS1_IdLin1ELin1ELi0ELin1ELin1EEELi1ELin1ELb0EEEEERS2_RKNS_9DenseBaseIT_EE, symObjAddr: 0xE1C8, symBinAddr: 0x11CD0, symSize: 0x60 }
  - { offsetInCU: 0x4C5F0, offset: 0x4C5F0, size: 0x8, addend: 0x0, symName: __ZNK5Eigen7MapBaseINS_5BlockIKNS_6MatrixIdLin1ELin1ELi0ELin1ELin1EEELi1ELin1ELb0EEELi0EE4rowsEv, symObjAddr: 0xE228, symBinAddr: 0x11D30, symSize: 0x20 }
  - { offsetInCU: 0x4C616, offset: 0x4C616, size: 0x8, addend: 0x0, symName: __ZNK5Eigen7MapBaseINS_5BlockIKNS_6MatrixIdLin1ELin1ELi0ELin1ELin1EEELi1ELin1ELb0EEELi0EE4colsEv, symObjAddr: 0xE248, symBinAddr: 0x11D50, symSize: 0x28 }
  - { offsetInCU: 0x4C63C, offset: 0x4C63C, size: 0x8, addend: 0x0, symName: __ZN5Eigen8internal10AssignmentINS_9TransposeINS_6MatrixIdLi3ELi1ELi0ELi3ELi1EEEEENS_5BlockIKNS3_IdLin1ELin1ELi0ELin1ELin1EEELi1ELin1ELb0EEENS0_9assign_opIddEENS0_11Dense2DenseEvE3runERS5_RKS9_RKSB_, symObjAddr: 0xE2B4, symBinAddr: 0x11DBC, symSize: 0x40 }
  - { offsetInCU: 0x4C69C, offset: 0x4C69C, size: 0x8, addend: 0x0, symName: __ZN5Eigen8internal9evaluatorINS_5BlockIKNS_6MatrixIdLin1ELin1ELi0ELin1ELin1EEELi1ELin1ELb0EEEEC1ERKS6_, symObjAddr: 0xE3E0, symBinAddr: 0x11EE8, symSize: 0x34 }
  - { offsetInCU: 0x4C702, offset: 0x4C702, size: 0x8, addend: 0x0, symName: __ZN5Eigen8internal31generic_dense_assignment_kernelINS0_9evaluatorINS_9TransposeINS_6MatrixIdLi3ELi1ELi0ELi3ELi1EEEEEEENS2_INS_5BlockIKNS4_IdLin1ELin1ELi0ELin1ELin1EEELi1ELin1ELb0EEEEENS0_9assign_opIddEELi0EEC1ERS7_RKSC_RKSE_RS6_, symObjAddr: 0xE50C, symBinAddr: 0x12014, symSize: 0x4C }
  - { offsetInCU: 0x4C76D, offset: 0x4C76D, size: 0x8, addend: 0x0, symName: __ZN5Eigen8internal21dense_assignment_loopINS0_31generic_dense_assignment_kernelINS0_9evaluatorINS_9TransposeINS_6MatrixIdLi3ELi1ELi0ELi3ELi1EEEEEEENS3_INS_5BlockIKNS5_IdLin1ELin1ELi0ELin1ELin1EEELi1ELin1ELb0EEEEENS0_9assign_opIddEELi0EEELi1ELi2EE3runERSG_, symObjAddr: 0xE558, symBinAddr: 0x12060, symSize: 0x24 }
  - { offsetInCU: 0x4C791, offset: 0x4C791, size: 0x8, addend: 0x0, symName: __ZN5Eigen8internal9evaluatorINS_5BlockIKNS_6MatrixIdLin1ELin1ELi0ELin1ELin1EEELi1ELin1ELb0EEEED1Ev, symObjAddr: 0xE57C, symBinAddr: 0x12084, symSize: 0x2C }
  - { offsetInCU: 0x4C7BE, offset: 0x4C7BE, size: 0x8, addend: 0x0, symName: __ZN5Eigen8internal9evaluatorINS_5BlockIKNS_6MatrixIdLin1ELin1ELi0ELin1ELin1EEELi1ELin1ELb0EEEEC2ERKS6_, symObjAddr: 0xE5A8, symBinAddr: 0x120B0, symSize: 0x34 }
  - { offsetInCU: 0x4C7F7, offset: 0x4C7F7, size: 0x8, addend: 0x0, symName: __ZN5Eigen8internal15block_evaluatorIKNS_6MatrixIdLin1ELin1ELi0ELin1ELin1EEELi1ELin1ELb0ELb1EEC2ERKNS_5BlockIS4_Li1ELin1ELb0EEE, symObjAddr: 0xE5DC, symBinAddr: 0x120E4, symSize: 0xDC }
  - { offsetInCU: 0x4C830, offset: 0x4C830, size: 0x8, addend: 0x0, symName: __ZN5Eigen8internal17mapbase_evaluatorINS_5BlockIKNS_6MatrixIdLin1ELin1ELi0ELin1ELin1EEELi1ELin1ELb0EEENS3_IdLi1ELin1ELi1ELi1ELin1EEEEC2ERKS6_, symObjAddr: 0xE6B8, symBinAddr: 0x121C0, symSize: 0xB0 }
  - { offsetInCU: 0x4C869, offset: 0x4C869, size: 0x8, addend: 0x0, symName: __ZNK5Eigen7MapBaseINS_5BlockIKNS_6MatrixIdLin1ELin1ELi0ELin1ELin1EEELi1ELin1ELb0EEELi0EE4dataEv, symObjAddr: 0xE768, symBinAddr: 0x12270, symSize: 0x18 }
  - { offsetInCU: 0x4C88F, offset: 0x4C88F, size: 0x8, addend: 0x0, symName: __ZN5Eigen8internal17mapbase_evaluatorINS_5BlockIKNS_6MatrixIdLin1ELin1ELi0ELin1ELin1EEELi1ELin1ELb0EEENS3_IdLi1ELin1ELi1ELi1ELin1EEEED2Ev, symObjAddr: 0xE780, symBinAddr: 0x12288, symSize: 0x2C }
  - { offsetInCU: 0x4C8BC, offset: 0x4C8BC, size: 0x8, addend: 0x0, symName: __ZN5Eigen8internal14evaluator_baseINS_5BlockIKNS_6MatrixIdLin1ELin1ELi0ELin1ELin1EEELi1ELin1ELb0EEEEC2Ev, symObjAddr: 0xE7AC, symBinAddr: 0x122B4, symSize: 0x14 }
  - { offsetInCU: 0x4C8E6, offset: 0x4C8E6, size: 0x8, addend: 0x0, symName: __ZNK5Eigen8internal15BlockImpl_denseIKNS_6MatrixIdLin1ELin1ELi0ELin1ELin1EEELi1ELin1ELb0ELb1EE11innerStrideEv, symObjAddr: 0xE7C0, symBinAddr: 0x122C8, symSize: 0x28 }
  - { offsetInCU: 0x4C90C, offset: 0x4C90C, size: 0x8, addend: 0x0, symName: __ZNK5Eigen8internal15BlockImpl_denseIKNS_6MatrixIdLin1ELin1ELi0ELin1ELin1EEELi1ELin1ELb0ELb1EE11outerStrideEv, symObjAddr: 0xE7E8, symBinAddr: 0x122F0, symSize: 0x28 }
  - { offsetInCU: 0x4C932, offset: 0x4C932, size: 0x8, addend: 0x0, symName: __ZN5Eigen8internal14evaluator_baseINS_5BlockIKNS_6MatrixIdLin1ELin1ELi0ELin1ELin1EEELi1ELin1ELb0EEEED2Ev, symObjAddr: 0xE810, symBinAddr: 0x12318, symSize: 0x14 }
  - { offsetInCU: 0x4C95C, offset: 0x4C95C, size: 0x8, addend: 0x0, symName: __ZN5Eigen8internal31generic_dense_assignment_kernelINS0_9evaluatorINS_9TransposeINS_6MatrixIdLi3ELi1ELi0ELi3ELi1EEEEEEENS2_INS_5BlockIKNS4_IdLin1ELin1ELi0ELin1ELin1EEELi1ELin1ELb0EEEEENS0_9assign_opIddEELi0EEC2ERS7_RKSC_RKSE_RS6_, symObjAddr: 0xE824, symBinAddr: 0x1232C, symSize: 0x44 }
  - { offsetInCU: 0x4C9C2, offset: 0x4C9C2, size: 0x8, addend: 0x0, symName: __ZN5Eigen8internal54copy_using_evaluator_LinearTraversal_CompleteUnrollingINS0_31generic_dense_assignment_kernelINS0_9evaluatorINS_9TransposeINS_6MatrixIdLi3ELi1ELi0ELi3ELi1EEEEEEENS3_INS_5BlockIKNS5_IdLin1ELin1ELi0ELin1ELin1EEELi1ELin1ELb0EEEEENS0_9assign_opIddEELi0EEELi0ELi3EE3runERSG_, symObjAddr: 0xE868, symBinAddr: 0x12370, symSize: 0x30 }
  - { offsetInCU: 0x4C9E5, offset: 0x4C9E5, size: 0x8, addend: 0x0, symName: __ZN5Eigen8internal31generic_dense_assignment_kernelINS0_9evaluatorINS_9TransposeINS_6MatrixIdLi3ELi1ELi0ELi3ELi1EEEEEEENS2_INS_5BlockIKNS4_IdLin1ELin1ELi0ELin1ELin1EEELi1ELin1ELb0EEEEENS0_9assign_opIddEELi0EE11assignCoeffEl, symObjAddr: 0xE898, symBinAddr: 0x123A0, symSize: 0x64 }
  - { offsetInCU: 0x4CA1A, offset: 0x4CA1A, size: 0x8, addend: 0x0, symName: __ZN5Eigen8internal54copy_using_evaluator_LinearTraversal_CompleteUnrollingINS0_31generic_dense_assignment_kernelINS0_9evaluatorINS_9TransposeINS_6MatrixIdLi3ELi1ELi0ELi3ELi1EEEEEEENS3_INS_5BlockIKNS5_IdLin1ELin1ELi0ELin1ELin1EEELi1ELin1ELb0EEEEENS0_9assign_opIddEELi0EEELi1ELi3EE3runERSG_, symObjAddr: 0xE8FC, symBinAddr: 0x12404, symSize: 0x30 }
  - { offsetInCU: 0x4CA3D, offset: 0x4CA3D, size: 0x8, addend: 0x0, symName: __ZNK5Eigen8internal17mapbase_evaluatorINS_5BlockIKNS_6MatrixIdLin1ELin1ELi0ELin1ELin1EEELi1ELin1ELb0EEENS3_IdLi1ELin1ELi1ELi1ELin1EEEE5coeffEl, symObjAddr: 0xE92C, symBinAddr: 0x12434, symSize: 0x4C }
  - { offsetInCU: 0x4CA72, offset: 0x4CA72, size: 0x8, addend: 0x0, symName: __ZN5Eigen8internal54copy_using_evaluator_LinearTraversal_CompleteUnrollingINS0_31generic_dense_assignment_kernelINS0_9evaluatorINS_9TransposeINS_6MatrixIdLi3ELi1ELi0ELi3ELi1EEEEEEENS3_INS_5BlockIKNS5_IdLin1ELin1ELi0ELin1ELin1EEELi1ELin1ELb0EEEEENS0_9assign_opIddEELi0EEELi2ELi3EE3runERSG_, symObjAddr: 0xE978, symBinAddr: 0x12480, symSize: 0x30 }
  - { offsetInCU: 0x4CA95, offset: 0x4CA95, size: 0x8, addend: 0x0, symName: __ZN5Eigen8internal54copy_using_evaluator_LinearTraversal_CompleteUnrollingINS0_31generic_dense_assignment_kernelINS0_9evaluatorINS_9TransposeINS_6MatrixIdLi3ELi1ELi0ELi3ELi1EEEEEEENS3_INS_5BlockIKNS5_IdLin1ELin1ELi0ELin1ELin1EEELi1ELin1ELb0EEEEENS0_9assign_opIddEELi0EEELi3ELi3EE3runERSG_, symObjAddr: 0xE9A8, symBinAddr: 0x124B0, symSize: 0x10 }
  - { offsetInCU: 0x4CAB5, offset: 0x4CAB5, size: 0x8, addend: 0x0, symName: __ZN5Eigen8internal9evaluatorINS_5BlockIKNS_6MatrixIdLin1ELin1ELi0ELin1ELin1EEELi1ELin1ELb0EEEED2Ev, symObjAddr: 0xE9B8, symBinAddr: 0x124C0, symSize: 0x2C }
  - { offsetInCU: 0x4CAE2, offset: 0x4CAE2, size: 0x8, addend: 0x0, symName: __ZN5Eigen8internal15block_evaluatorIKNS_6MatrixIdLin1ELin1ELi0ELin1ELin1EEELi1ELin1ELb0ELb1EED2Ev, symObjAddr: 0xE9E4, symBinAddr: 0x124EC, symSize: 0x2C }
  - { offsetInCU: 0x4CB0F, offset: 0x4CB0F, size: 0x8, addend: 0x0, symName: __ZN5Eigen6MatrixIdLi3ELi1ELi0ELi3ELi1EEC2INS_13CwiseBinaryOpINS_8internal20scalar_difference_opIddEEKS1_S7_EEEERKNS_9EigenBaseIT_EE, symObjAddr: 0xEA10, symBinAddr: 0x12518, symSize: 0x40 }
  - { offsetInCU: 0x4CB51, offset: 0x4CB51, size: 0x8, addend: 0x0, symName: __ZN5Eigen15PlainObjectBaseINS_6MatrixIdLi3ELi1ELi0ELi3ELi1EEEEC2INS_13CwiseBinaryOpINS_8internal20scalar_difference_opIddEEKS2_S9_EEEERKNS_9DenseBaseIT_EE, symObjAddr: 0xEA50, symBinAddr: 0x12558, symSize: 0x54 }
  - { offsetInCU: 0x4CB93, offset: 0x4CB93, size: 0x8, addend: 0x0, symName: __ZN5Eigen15PlainObjectBaseINS_6MatrixIdLi3ELi1ELi0ELi3ELi1EEEE10resizeLikeINS_13CwiseBinaryOpINS_8internal20scalar_difference_opIddEEKS2_S9_EEEEvRKNS_9EigenBaseIT_EE, symObjAddr: 0xEAA4, symBinAddr: 0x125AC, symSize: 0xF0 }
  - { offsetInCU: 0x4CBEF, offset: 0x4CBEF, size: 0x8, addend: 0x0, symName: __ZN5Eigen15PlainObjectBaseINS_6MatrixIdLi3ELi1ELi0ELi3ELi1EEEE12_set_noaliasINS_13CwiseBinaryOpINS_8internal20scalar_difference_opIddEEKS2_S9_EEEERS2_RKNS_9DenseBaseIT_EE, symObjAddr: 0xEB94, symBinAddr: 0x1269C, symSize: 0x60 }
  - { offsetInCU: 0x4CC2D, offset: 0x4CC2D, size: 0x8, addend: 0x0, symName: __ZN5Eigen8internal10AssignmentINS_6MatrixIdLi3ELi1ELi0ELi3ELi1EEENS_13CwiseBinaryOpINS0_20scalar_difference_opIddEEKS3_S7_EENS0_9assign_opIddEENS0_11Dense2DenseEvE3runERS3_RKS8_RKSA_, symObjAddr: 0xEC30, symBinAddr: 0x12738, symSize: 0x40 }
  - { offsetInCU: 0x4CC6F, offset: 0x4CC6F, size: 0x8, addend: 0x0, symName: __ZN5Eigen8internal9evaluatorINS_13CwiseBinaryOpINS0_20scalar_difference_opIddEEKNS_6MatrixIdLi3ELi1ELi0ELi3ELi1EEES7_EEEC1ERKS8_, symObjAddr: 0xED64, symBinAddr: 0x1286C, symSize: 0x34 }
  - { offsetInCU: 0x4CCA8, offset: 0x4CCA8, size: 0x8, addend: 0x0, symName: __ZNK5Eigen9EigenBaseINS_6MatrixIdLi3ELi1ELi0ELi3ELi1EEEE18const_cast_derivedEv, symObjAddr: 0xEE90, symBinAddr: 0x12998, symSize: 0x14 }
  - { offsetInCU: 0x4CCCE, offset: 0x4CCCE, size: 0x8, addend: 0x0, symName: __ZN5Eigen8internal31generic_dense_assignment_kernelINS0_9evaluatorINS_6MatrixIdLi3ELi1ELi0ELi3ELi1EEEEENS2_INS_13CwiseBinaryOpINS0_20scalar_difference_opIddEEKS4_S9_EEEENS0_9assign_opIddEELi0EEC1ERS5_RKSB_RKSD_RS4_, symObjAddr: 0xEEA4, symBinAddr: 0x129AC, symSize: 0x4C }
  - { offsetInCU: 0x4CD34, offset: 0x4CD34, size: 0x8, addend: 0x0, symName: __ZN5Eigen8internal21dense_assignment_loopINS0_31generic_dense_assignment_kernelINS0_9evaluatorINS_6MatrixIdLi3ELi1ELi0ELi3ELi1EEEEENS3_INS_13CwiseBinaryOpINS0_20scalar_difference_opIddEEKS5_SA_EEEENS0_9assign_opIddEELi0EEELi3ELi2EE3runERSF_, symObjAddr: 0xEEF0, symBinAddr: 0x129F8, symSize: 0x2C }
  - { offsetInCU: 0x4CD58, offset: 0x4CD58, size: 0x8, addend: 0x0, symName: __ZN5Eigen8internal9evaluatorINS_13CwiseBinaryOpINS0_20scalar_difference_opIddEEKNS_6MatrixIdLi3ELi1ELi0ELi3ELi1EEES7_EEED1Ev, symObjAddr: 0xEF1C, symBinAddr: 0x12A24, symSize: 0x2C }
  - { offsetInCU: 0x4CD85, offset: 0x4CD85, size: 0x8, addend: 0x0, symName: __ZN5Eigen8internal31generic_dense_assignment_kernelINS0_9evaluatorINS_6MatrixIdLi3ELi1ELi0ELi3ELi1EEEEENS2_INS_13CwiseBinaryOpINS0_20scalar_difference_opIddEEKS4_S9_EEEENS0_9assign_opIddEELi0EEC2ERS5_RKSB_RKSD_RS4_, symObjAddr: 0xEF48, symBinAddr: 0x12A50, symSize: 0x44 }
  - { offsetInCU: 0x4CDEB, offset: 0x4CDEB, size: 0x8, addend: 0x0, symName: __ZN5Eigen8internal47copy_using_evaluator_innervec_CompleteUnrollingINS0_31generic_dense_assignment_kernelINS0_9evaluatorINS_6MatrixIdLi3ELi1ELi0ELi3ELi1EEEEENS3_INS_13CwiseBinaryOpINS0_20scalar_difference_opIddEEKS5_SA_EEEENS0_9assign_opIddEELi0EEELi0ELi2EE3runERSF_, symObjAddr: 0xEF8C, symBinAddr: 0x12A94, symSize: 0x34 }
  - { offsetInCU: 0x4CE0F, offset: 0x4CE0F, size: 0x8, addend: 0x0, symName: __ZN5Eigen8internal55copy_using_evaluator_DefaultTraversal_CompleteUnrollingINS0_31generic_dense_assignment_kernelINS0_9evaluatorINS_6MatrixIdLi3ELi1ELi0ELi3ELi1EEEEENS3_INS_13CwiseBinaryOpINS0_20scalar_difference_opIddEEKS5_SA_EEEENS0_9assign_opIddEELi0EEELi2ELi3EE3runERSF_, symObjAddr: 0xEFC0, symBinAddr: 0x12AC8, symSize: 0x34 }
  - { offsetInCU: 0x4CE32, offset: 0x4CE32, size: 0x8, addend: 0x0, symName: __ZN5Eigen8internal31generic_dense_assignment_kernelINS0_9evaluatorINS_6MatrixIdLi3ELi1ELi0ELi3ELi1EEEEENS2_INS_13CwiseBinaryOpINS0_20scalar_difference_opIddEEKS4_S9_EEEENS0_9assign_opIddEELi0EE24assignPacketByOuterInnerILi0ELi0E19__simd128_float64_tEEvll, symObjAddr: 0xEFF4, symBinAddr: 0x12AFC, symSize: 0x60 }
  - { offsetInCU: 0x4CEB1, offset: 0x4CEB1, size: 0x8, addend: 0x0, symName: __ZN5Eigen8internal47copy_using_evaluator_innervec_CompleteUnrollingINS0_31generic_dense_assignment_kernelINS0_9evaluatorINS_6MatrixIdLi3ELi1ELi0ELi3ELi1EEEEENS3_INS_13CwiseBinaryOpINS0_20scalar_difference_opIddEEKS5_SA_EEEENS0_9assign_opIddEELi0EEELi2ELi2EE3runERSF_, symObjAddr: 0xF054, symBinAddr: 0x12B5C, symSize: 0x10 }
  - { offsetInCU: 0x4CED1, offset: 0x4CED1, size: 0x8, addend: 0x0, symName: __ZN5Eigen8internal31generic_dense_assignment_kernelINS0_9evaluatorINS_6MatrixIdLi3ELi1ELi0ELi3ELi1EEEEENS2_INS_13CwiseBinaryOpINS0_20scalar_difference_opIddEEKS4_S9_EEEENS0_9assign_opIddEELi0EE20rowIndexByOuterInnerEll, symObjAddr: 0xF064, symBinAddr: 0x12B6C, symSize: 0x18 }
  - { offsetInCU: 0x4CF04, offset: 0x4CF04, size: 0x8, addend: 0x0, symName: __ZN5Eigen8internal31generic_dense_assignment_kernelINS0_9evaluatorINS_6MatrixIdLi3ELi1ELi0ELi3ELi1EEEEENS2_INS_13CwiseBinaryOpINS0_20scalar_difference_opIddEEKS4_S9_EEEENS0_9assign_opIddEELi0EE20colIndexByOuterInnerEll, symObjAddr: 0xF07C, symBinAddr: 0x12B84, symSize: 0x18 }
  - { offsetInCU: 0x4CF37, offset: 0x4CF37, size: 0x8, addend: 0x0, symName: __ZN5Eigen8internal31generic_dense_assignment_kernelINS0_9evaluatorINS_6MatrixIdLi3ELi1ELi0ELi3ELi1EEEEENS2_INS_13CwiseBinaryOpINS0_20scalar_difference_opIddEEKS4_S9_EEEENS0_9assign_opIddEELi0EE12assignPacketILi0ELi0E19__simd128_float64_tEEvll, symObjAddr: 0xF094, symBinAddr: 0x12B9C, symSize: 0x70 }
  - { offsetInCU: 0x4CF98, offset: 0x4CF98, size: 0x8, addend: 0x0, symName: __ZNK5Eigen8internal9assign_opIddE12assignPacketILi0E19__simd128_float64_tEEvPdRKT0_, symObjAddr: 0xF104, symBinAddr: 0x12C0C, symSize: 0x40 }
  - { offsetInCU: 0x4D013, offset: 0x4D013, size: 0x8, addend: 0x0, symName: __ZN5Eigen8internal9evaluatorINS_15PlainObjectBaseINS_6MatrixIdLi3ELi1ELi0ELi3ELi1EEEEEE8coeffRefEll, symObjAddr: 0xF144, symBinAddr: 0x12C4C, symSize: 0x5C }
  - { offsetInCU: 0x4D055, offset: 0x4D055, size: 0x8, addend: 0x0, symName: __ZN5Eigen8internal31generic_dense_assignment_kernelINS0_9evaluatorINS_6MatrixIdLi3ELi1ELi0ELi3ELi1EEEEENS2_INS_13CwiseBinaryOpINS0_20scalar_difference_opIddEEKS4_S9_EEEENS0_9assign_opIddEELi0EE23assignCoeffByOuterInnerEll, symObjAddr: 0xF1CC, symBinAddr: 0x12CD4, symSize: 0x60 }
  - { offsetInCU: 0x4D0B7, offset: 0x4D0B7, size: 0x8, addend: 0x0, symName: __ZN5Eigen8internal55copy_using_evaluator_DefaultTraversal_CompleteUnrollingINS0_31generic_dense_assignment_kernelINS0_9evaluatorINS_6MatrixIdLi3ELi1ELi0ELi3ELi1EEEEENS3_INS_13CwiseBinaryOpINS0_20scalar_difference_opIddEEKS5_SA_EEEENS0_9assign_opIddEELi0EEELi3ELi3EE3runERSF_, symObjAddr: 0xF22C, symBinAddr: 0x12D34, symSize: 0x10 }
  - { offsetInCU: 0x4D0D7, offset: 0x4D0D7, size: 0x8, addend: 0x0, symName: __ZN5Eigen8internal31generic_dense_assignment_kernelINS0_9evaluatorINS_6MatrixIdLi3ELi1ELi0ELi3ELi1EEEEENS2_INS_13CwiseBinaryOpINS0_20scalar_difference_opIddEEKS4_S9_EEEENS0_9assign_opIddEELi0EE11assignCoeffEll, symObjAddr: 0xF23C, symBinAddr: 0x12D44, symSize: 0x70 }
  - { offsetInCU: 0x4D11B, offset: 0x4D11B, size: 0x8, addend: 0x0, symName: __ZN5Eigen15DenseCoeffsBaseINS_6MatrixIdLi3ELi1ELi0ELi3ELi1EEELi1EEixEl, symObjAddr: 0xF2AC, symBinAddr: 0x12DB4, symSize: 0xA4 }
  - { offsetInCU: 0x4D150, offset: 0x4D150, size: 0x8, addend: 0x0, symName: __ZNK5Eigen9EigenBaseINS_6MatrixIdLi3ELi1ELi0ELi3ELi1EEEE4sizeEv, symObjAddr: 0xF350, symBinAddr: 0x12E58, symSize: 0x44 }
  - { offsetInCU: 0x4D176, offset: 0x4D176, size: 0x8, addend: 0x0, symName: __ZN5Eigen15DenseCoeffsBaseINS_6MatrixIdLi3ELi1ELi0ELi3ELi1EEELi1EE8coeffRefEl, symObjAddr: 0xF394, symBinAddr: 0x12E9C, symSize: 0x58 }
  - { offsetInCU: 0x4D1AB, offset: 0x4D1AB, size: 0x8, addend: 0x0, symName: __ZNK5Eigen9EigenBaseINS_6MatrixIdLi3ELi1ELi0ELi3ELi1EEEE4rowsEv, symObjAddr: 0xF3EC, symBinAddr: 0x12EF4, symSize: 0x28 }
  - { offsetInCU: 0x4D1D1, offset: 0x4D1D1, size: 0x8, addend: 0x0, symName: __ZNK5Eigen9EigenBaseINS_6MatrixIdLi3ELi1ELi0ELi3ELi1EEEE4colsEv, symObjAddr: 0xF414, symBinAddr: 0x12F1C, symSize: 0x28 }
  - { offsetInCU: 0x4D1F7, offset: 0x4D1F7, size: 0x8, addend: 0x0, symName: __ZN5Eigen6MatrixIdLi2ELi1ELi0ELi2ELi1EEC2IddEERKT_RKT0_, symObjAddr: 0xF43C, symBinAddr: 0x12F44, symSize: 0x4C }
  - { offsetInCU: 0x4D251, offset: 0x4D251, size: 0x8, addend: 0x0, symName: __ZN5Eigen15PlainObjectBaseINS_6MatrixIdLi2ELi1ELi0ELi2ELi1EEEEC2Ev, symObjAddr: 0xF488, symBinAddr: 0x12F90, symSize: 0x34 }
  - { offsetInCU: 0x4D27B, offset: 0x4D27B, size: 0x8, addend: 0x0, symName: __ZN5Eigen15PlainObjectBaseINS_6MatrixIdLi2ELi1ELi0ELi2ELi1EEEE22_check_template_paramsEv, symObjAddr: 0xF4BC, symBinAddr: 0x12FC4, symSize: 0x4 }
  - { offsetInCU: 0x4D294, offset: 0x4D294, size: 0x8, addend: 0x0, symName: __ZN5Eigen15PlainObjectBaseINS_6MatrixIdLi2ELi1ELi0ELi2ELi1EEEE6_init2IddEEvRKT_RKT0_PNS_8internal9enable_ifILb1ES5_E4typeE, symObjAddr: 0xF4C0, symBinAddr: 0x12FC8, symSize: 0x68 }
  - { offsetInCU: 0x4D2F5, offset: 0x4D2F5, size: 0x8, addend: 0x0, symName: __ZN5Eigen10MatrixBaseINS_6MatrixIdLi2ELi1ELi0ELi2ELi1EEEEC2Ev, symObjAddr: 0xF528, symBinAddr: 0x13030, symSize: 0x2C }
  - { offsetInCU: 0x4D31F, offset: 0x4D31F, size: 0x8, addend: 0x0, symName: __ZN5Eigen12DenseStorageIdLi2ELi2ELi1ELi0EEC1Ev, symObjAddr: 0xF554, symBinAddr: 0x1305C, symSize: 0x2C }
  - { offsetInCU: 0x4D349, offset: 0x4D349, size: 0x8, addend: 0x0, symName: __ZN5Eigen9DenseBaseINS_6MatrixIdLi2ELi1ELi0ELi2ELi1EEEEC2Ev, symObjAddr: 0xF580, symBinAddr: 0x13088, symSize: 0x14 }
  - { offsetInCU: 0x4D373, offset: 0x4D373, size: 0x8, addend: 0x0, symName: __ZN5Eigen12DenseStorageIdLi2ELi2ELi1ELi0EEC2Ev, symObjAddr: 0xF594, symBinAddr: 0x1309C, symSize: 0x2C }
  - { offsetInCU: 0x4D39D, offset: 0x4D39D, size: 0x8, addend: 0x0, symName: __ZN5Eigen8internal11plain_arrayIdLi2ELi0ELi16EEC1Ev, symObjAddr: 0xF5C0, symBinAddr: 0x130C8, symSize: 0x2C }
  - { offsetInCU: 0x4D3C7, offset: 0x4D3C7, size: 0x8, addend: 0x0, symName: __ZN5Eigen8internal11plain_arrayIdLi2ELi0ELi16EEC2Ev, symObjAddr: 0xF5EC, symBinAddr: 0x130F4, symSize: 0x80 }
  - { offsetInCU: 0x4D3F1, offset: 0x4D3F1, size: 0x8, addend: 0x0, symName: __ZN5Eigen12DenseStorageIdLi2ELi2ELi1ELi0EE4dataEv, symObjAddr: 0xF670, symBinAddr: 0x13178, symSize: 0x14 }
  - { offsetInCU: 0x4D417, offset: 0x4D417, size: 0x8, addend: 0x0, symName: __ZNK5Eigen15DenseCoeffsBaseINS_6MatrixIdLin1ELin1ELi0ELin1ELin1EEELi0EE5coeffEll, symObjAddr: 0xF684, symBinAddr: 0x1318C, symSize: 0x80 }
  - { offsetInCU: 0x4D459, offset: 0x4D459, size: 0x8, addend: 0x0, symName: __ZNK5Eigen8internal9evaluatorINS_15PlainObjectBaseINS_6MatrixIdLin1ELin1ELi0ELin1ELin1EEEEEE5coeffEll, symObjAddr: 0xF704, symBinAddr: 0x1320C, symSize: 0x5C }
  - { offsetInCU: 0x4D49B, offset: 0x4D49B, size: 0x8, addend: 0x0, symName: __ZNKSt3__16vectorINS0_IN5Eigen6MatrixIdLi3ELi1ELi0ELi3ELi1EEENS_9allocatorIS3_EEEENS4_IS6_EEE17__annotate_shrinkB7v160006Em, symObjAddr: 0xF760, symBinAddr: 0x13268, symSize: 0xD0 }
  - { offsetInCU: 0x4D4D0, offset: 0x4D4D0, size: 0x8, addend: 0x0, symName: __ZNSt3__16vectorIN5Eigen6MatrixIdLi3ELi1ELi0ELi3ELi1EEENS_9allocatorIS3_EEEC2B7v160006Ev, symObjAddr: 0xF840, symBinAddr: 0x13348, symSize: 0x58 }
  - { offsetInCU: 0x4D4FA, offset: 0x4D4FA, size: 0x8, addend: 0x0, symName: __ZNSt3__117__compressed_pairIPN5Eigen6MatrixIdLi3ELi1ELi0ELi3ELi1EEENS_9allocatorIS3_EEEC1B7v160006IDnNS_18__default_init_tagEEEOT_OT0_, symObjAddr: 0xF898, symBinAddr: 0x133A0, symSize: 0x3C }
  - { offsetInCU: 0x4D552, offset: 0x4D552, size: 0x8, addend: 0x0, symName: __ZNSt3__117__compressed_pairIPN5Eigen6MatrixIdLi3ELi1ELi0ELi3ELi1EEENS_9allocatorIS3_EEEC2B7v160006IDnNS_18__default_init_tagEEEOT_OT0_, symObjAddr: 0xF8E4, symBinAddr: 0x133EC, symSize: 0x40 }
  - { offsetInCU: 0x4D5AA, offset: 0x4D5AA, size: 0x8, addend: 0x0, symName: __ZNSt3__122__compressed_pair_elemIPN5Eigen6MatrixIdLi3ELi1ELi0ELi3ELi1EEELi0ELb0EEC2B7v160006IDnvEEOT_, symObjAddr: 0xF924, symBinAddr: 0x1342C, symSize: 0x1C }
  - { offsetInCU: 0x4D5EC, offset: 0x4D5EC, size: 0x8, addend: 0x0, symName: __ZNSt3__122__compressed_pair_elemINS_9allocatorIN5Eigen6MatrixIdLi3ELi1ELi0ELi3ELi1EEEEELi1ELb1EEC2B7v160006ENS_18__default_init_tagE, symObjAddr: 0xF940, symBinAddr: 0x13448, symSize: 0x2C }
  - { offsetInCU: 0x4D621, offset: 0x4D621, size: 0x8, addend: 0x0, symName: __ZNSt3__19allocatorIN5Eigen6MatrixIdLi3ELi1ELi0ELi3ELi1EEEEC2B7v160006Ev, symObjAddr: 0xF96C, symBinAddr: 0x13474, symSize: 0x2C }
  - { offsetInCU: 0x4D64B, offset: 0x4D64B, size: 0x8, addend: 0x0, symName: __ZNSt3__116__non_trivial_ifILb1ENS_9allocatorIN5Eigen6MatrixIdLi3ELi1ELi0ELi3ELi1EEEEEEC2B7v160006Ev, symObjAddr: 0xF998, symBinAddr: 0x134A0, symSize: 0x14 }
  - { offsetInCU: 0x4D675, offset: 0x4D675, size: 0x8, addend: 0x0, symName: __ZNSt3__16vectorIN5Eigen6MatrixIdLi3ELi1ELi0ELi3ELi1EEENS_9allocatorIS3_EEED2B7v160006Ev, symObjAddr: 0xF9AC, symBinAddr: 0x134B4, symSize: 0x44 }
  - { offsetInCU: 0x4D69F, offset: 0x4D69F, size: 0x8, addend: 0x0, symName: __ZNSt3__16vectorIN5Eigen6MatrixIdLi3ELi1ELi0ELi3ELi1EEENS_9allocatorIS3_EEE16__destroy_vectorC1ERS6_, symObjAddr: 0xF9F0, symBinAddr: 0x134F8, symSize: 0x34 }
  - { offsetInCU: 0x4D6D8, offset: 0x4D6D8, size: 0x8, addend: 0x0, symName: __ZNSt3__16vectorIN5Eigen6MatrixIdLi3ELi1ELi0ELi3ELi1EEENS_9allocatorIS3_EEE16__destroy_vectorclB7v160006Ev, symObjAddr: 0xFA24, symBinAddr: 0x1352C, symSize: 0x9C }
  - { offsetInCU: 0x4D6FE, offset: 0x4D6FE, size: 0x8, addend: 0x0, symName: __ZNSt3__16vectorIN5Eigen6MatrixIdLi3ELi1ELi0ELi3ELi1EEENS_9allocatorIS3_EEE16__destroy_vectorC2ERS6_, symObjAddr: 0xFAC0, symBinAddr: 0x135C8, symSize: 0x20 }
  - { offsetInCU: 0x4D737, offset: 0x4D737, size: 0x8, addend: 0x0, symName: __ZNKSt3__16vectorIN5Eigen6MatrixIdLi3ELi1ELi0ELi3ELi1EEENS_9allocatorIS3_EEE17__annotate_deleteB7v160006Ev, symObjAddr: 0xFAE0, symBinAddr: 0x135E8, symSize: 0xD4 }
  - { offsetInCU: 0x4D75D, offset: 0x4D75D, size: 0x8, addend: 0x0, symName: __ZNSt3__16vectorIN5Eigen6MatrixIdLi3ELi1ELi0ELi3ELi1EEENS_9allocatorIS3_EEE7__clearB7v160006Ev, symObjAddr: 0xFBC4, symBinAddr: 0x136CC, symSize: 0x28 }
  - { offsetInCU: 0x4D783, offset: 0x4D783, size: 0x8, addend: 0x0, symName: __ZNSt3__116allocator_traitsINS_9allocatorIN5Eigen6MatrixIdLi3ELi1ELi0ELi3ELi1EEEEEE10deallocateB7v160006ERS5_PS4_m, symObjAddr: 0xFBEC, symBinAddr: 0x136F4, symSize: 0x34 }
  - { offsetInCU: 0x4D7C5, offset: 0x4D7C5, size: 0x8, addend: 0x0, symName: __ZNSt3__19allocatorIN5Eigen6MatrixIdLi3ELi1ELi0ELi3ELi1EEEE10deallocateB7v160006EPS3_m, symObjAddr: 0xFC20, symBinAddr: 0x13728, symSize: 0x44 }
  - { offsetInCU: 0x4D807, offset: 0x4D807, size: 0x8, addend: 0x0, symName: __ZN5Eigen14CwiseNullaryOpINS_8internal18scalar_constant_opIdEEKNS_6MatrixIdLi3ELi1ELi0ELi3ELi1EEEEC1EllRKS3_, symObjAddr: 0xFC64, symBinAddr: 0x1376C, symSize: 0x44 }
  - { offsetInCU: 0x4D85B, offset: 0x4D85B, size: 0x8, addend: 0x0, symName: __ZN5Eigen8internal17scalar_product_opIddEC1Ev, symObjAddr: 0xFCA8, symBinAddr: 0x137B0, symSize: 0x2C }
  - { offsetInCU: 0x4D885, offset: 0x4D885, size: 0x8, addend: 0x0, symName: __ZN5Eigen13CwiseBinaryOpINS_8internal17scalar_product_opIddEEKNS_14CwiseNullaryOpINS1_18scalar_constant_opIdEEKNS_6MatrixIdLi3ELi1ELi0ELi3ELi1EEEEEKNS0_INS1_20scalar_difference_opIddEES9_S9_EEEC1ERSB_RSF_RKS3_, symObjAddr: 0xFCD4, symBinAddr: 0x137DC, symSize: 0x44 }
  - { offsetInCU: 0x4D8D9, offset: 0x4D8D9, size: 0x8, addend: 0x0, symName: __ZN5Eigen14CwiseNullaryOpINS_8internal18scalar_constant_opIdEEKNS_6MatrixIdLi3ELi1ELi0ELi3ELi1EEEEC2EllRKS3_, symObjAddr: 0xFD18, symBinAddr: 0x13820, symSize: 0x108 }
  - { offsetInCU: 0x4D92D, offset: 0x4D92D, size: 0x8, addend: 0x0, symName: __ZN5Eigen10MatrixBaseINS_14CwiseNullaryOpINS_8internal18scalar_constant_opIdEEKNS_6MatrixIdLi3ELi1ELi0ELi3ELi1EEEEEEC2Ev, symObjAddr: 0xFE20, symBinAddr: 0x13928, symSize: 0x2C }
  - { offsetInCU: 0x4D957, offset: 0x4D957, size: 0x8, addend: 0x0, symName: __ZN5Eigen8internal19variable_if_dynamicIlLi3EEC1El, symObjAddr: 0xFE4C, symBinAddr: 0x13954, symSize: 0x34 }
  - { offsetInCU: 0x4D98F, offset: 0x4D98F, size: 0x8, addend: 0x0, symName: __ZN5Eigen9DenseBaseINS_14CwiseNullaryOpINS_8internal18scalar_constant_opIdEEKNS_6MatrixIdLi3ELi1ELi0ELi3ELi1EEEEEEC2Ev, symObjAddr: 0xFE80, symBinAddr: 0x13988, symSize: 0x14 }
  - { offsetInCU: 0x4D9B9, offset: 0x4D9B9, size: 0x8, addend: 0x0, symName: __ZN5Eigen8internal19variable_if_dynamicIlLi3EEC2El, symObjAddr: 0xFE94, symBinAddr: 0x1399C, symSize: 0x64 }
  - { offsetInCU: 0x4D9F1, offset: 0x4D9F1, size: 0x8, addend: 0x0, symName: __ZN5Eigen8internal17scalar_product_opIddEC2Ev, symObjAddr: 0xFEF8, symBinAddr: 0x13A00, symSize: 0x14 }
  - { offsetInCU: 0x4DA1B, offset: 0x4DA1B, size: 0x8, addend: 0x0, symName: __ZN5Eigen13CwiseBinaryOpINS_8internal17scalar_product_opIddEEKNS_14CwiseNullaryOpINS1_18scalar_constant_opIdEEKNS_6MatrixIdLi3ELi1ELi0ELi3ELi1EEEEEKNS0_INS1_20scalar_difference_opIddEES9_S9_EEEC2ERSB_RSF_RKS3_, symObjAddr: 0xFF0C, symBinAddr: 0x13A14, symSize: 0xFC }
  - { offsetInCU: 0x4DA74, offset: 0x4DA74, size: 0x8, addend: 0x0, symName: __ZN5Eigen17CwiseBinaryOpImplINS_8internal17scalar_product_opIddEEKNS_14CwiseNullaryOpINS1_18scalar_constant_opIdEEKNS_6MatrixIdLi3ELi1ELi0ELi3ELi1EEEEEKNS_13CwiseBinaryOpINS1_20scalar_difference_opIddEES9_S9_EENS_5DenseEEC2Ev, symObjAddr: 0x10008, symBinAddr: 0x13B10, symSize: 0x2C }
  - { offsetInCU: 0x4DAA0, offset: 0x4DAA0, size: 0x8, addend: 0x0, symName: __ZN5Eigen14CwiseNullaryOpINS_8internal18scalar_constant_opIdEEKNS_6MatrixIdLi3ELi1ELi0ELi3ELi1EEEEC1ERKS7_, symObjAddr: 0x10034, symBinAddr: 0x13B3C, symSize: 0x34 }
  - { offsetInCU: 0x4DAD5, offset: 0x4DAD5, size: 0x8, addend: 0x0, symName: __ZN5Eigen8internal17scalar_product_opIddEC1ERKS2_, symObjAddr: 0x10068, symBinAddr: 0x13B70, symSize: 0x34 }
  - { offsetInCU: 0x4DB0A, offset: 0x4DB0A, size: 0x8, addend: 0x0, symName: __ZNK5Eigen14CwiseNullaryOpINS_8internal18scalar_constant_opIdEEKNS_6MatrixIdLi3ELi1ELi0ELi3ELi1EEEE4rowsEv, symObjAddr: 0x1009C, symBinAddr: 0x13BA4, symSize: 0x20 }
  - { offsetInCU: 0x4DB30, offset: 0x4DB30, size: 0x8, addend: 0x0, symName: __ZNK5Eigen14CwiseNullaryOpINS_8internal18scalar_constant_opIdEEKNS_6MatrixIdLi3ELi1ELi0ELi3ELi1EEEE4colsEv, symObjAddr: 0x100BC, symBinAddr: 0x13BC4, symSize: 0x20 }
  - { offsetInCU: 0x4DB56, offset: 0x4DB56, size: 0x8, addend: 0x0, symName: __ZN5Eigen10MatrixBaseINS_13CwiseBinaryOpINS_8internal17scalar_product_opIddEEKNS_14CwiseNullaryOpINS2_18scalar_constant_opIdEEKNS_6MatrixIdLi3ELi1ELi0ELi3ELi1EEEEEKNS1_INS2_20scalar_difference_opIddEESA_SA_EEEEEC2Ev, symObjAddr: 0x100DC, symBinAddr: 0x13BE4, symSize: 0x2C }
  - { offsetInCU: 0x4DB80, offset: 0x4DB80, size: 0x8, addend: 0x0, symName: __ZN5Eigen9DenseBaseINS_13CwiseBinaryOpINS_8internal17scalar_product_opIddEEKNS_14CwiseNullaryOpINS2_18scalar_constant_opIdEEKNS_6MatrixIdLi3ELi1ELi0ELi3ELi1EEEEEKNS1_INS2_20scalar_difference_opIddEESA_SA_EEEEEC2Ev, symObjAddr: 0x10108, symBinAddr: 0x13C10, symSize: 0x14 }
  - { offsetInCU: 0x4DBAA, offset: 0x4DBAA, size: 0x8, addend: 0x0, symName: __ZN5Eigen14CwiseNullaryOpINS_8internal18scalar_constant_opIdEEKNS_6MatrixIdLi3ELi1ELi0ELi3ELi1EEEEC2ERKS7_, symObjAddr: 0x1011C, symBinAddr: 0x13C24, symSize: 0x48 }
  - { offsetInCU: 0x4DBDF, offset: 0x4DBDF, size: 0x8, addend: 0x0, symName: __ZN5Eigen8internal17scalar_product_opIddEC2ERKS2_, symObjAddr: 0x10164, symBinAddr: 0x13C6C, symSize: 0x18 }
  - { offsetInCU: 0x4DC14, offset: 0x4DC14, size: 0x8, addend: 0x0, symName: __ZN5Eigen8internal19variable_if_dynamicIlLi3EE5valueEv, symObjAddr: 0x1017C, symBinAddr: 0x13C84, symSize: 0x8 }
  - { offsetInCU: 0x4DC28, offset: 0x4DC28, size: 0x8, addend: 0x0, symName: __ZNK5Eigen9EigenBaseINS_13CwiseBinaryOpINS_8internal17scalar_product_opIddEEKNS_14CwiseNullaryOpINS2_18scalar_constant_opIdEEKNS_6MatrixIdLi3ELi1ELi0ELi3ELi1EEEEEKNS1_INS2_20scalar_difference_opIddEESA_SA_EEEEE7derivedEv, symObjAddr: 0x10184, symBinAddr: 0x13C8C, symSize: 0x14 }
  - { offsetInCU: 0x4DC4E, offset: 0x4DC4E, size: 0x8, addend: 0x0, symName: __ZN5Eigen13CwiseBinaryOpINS_8internal13scalar_sum_opIddEEKNS_6MatrixIdLi3ELi1ELi0ELi3ELi1EEEKNS0_INS1_17scalar_product_opIddEEKNS_14CwiseNullaryOpINS1_18scalar_constant_opIdEES6_EEKNS0_INS1_20scalar_difference_opIddEES6_S6_EEEEEC1ERS6_RSJ_RKS3_, symObjAddr: 0x10198, symBinAddr: 0x13CA0, symSize: 0x44 }
  - { offsetInCU: 0x4DCA2, offset: 0x4DCA2, size: 0x8, addend: 0x0, symName: __ZN5Eigen13CwiseBinaryOpINS_8internal13scalar_sum_opIddEEKNS_6MatrixIdLi3ELi1ELi0ELi3ELi1EEEKNS0_INS1_17scalar_product_opIddEEKNS_14CwiseNullaryOpINS1_18scalar_constant_opIdEES6_EEKNS0_INS1_20scalar_difference_opIddEES6_S6_EEEEEC2ERS6_RSJ_RKS3_, symObjAddr: 0x101DC, symBinAddr: 0x13CE4, symSize: 0xF8 }
  - { offsetInCU: 0x4DCFB, offset: 0x4DCFB, size: 0x8, addend: 0x0, symName: __ZN5Eigen17CwiseBinaryOpImplINS_8internal13scalar_sum_opIddEEKNS_6MatrixIdLi3ELi1ELi0ELi3ELi1EEEKNS_13CwiseBinaryOpINS1_17scalar_product_opIddEEKNS_14CwiseNullaryOpINS1_18scalar_constant_opIdEES6_EEKNS7_INS1_20scalar_difference_opIddEES6_S6_EEEENS_5DenseEEC2Ev, symObjAddr: 0x102D4, symBinAddr: 0x13DDC, symSize: 0x2C }
  - { offsetInCU: 0x4DD27, offset: 0x4DD27, size: 0x8, addend: 0x0, symName: __ZN5Eigen13CwiseBinaryOpINS_8internal17scalar_product_opIddEEKNS_14CwiseNullaryOpINS1_18scalar_constant_opIdEEKNS_6MatrixIdLi3ELi1ELi0ELi3ELi1EEEEEKNS0_INS1_20scalar_difference_opIddEES9_S9_EEEC1ERKSG_, symObjAddr: 0x10300, symBinAddr: 0x13E08, symSize: 0x34 }
  - { offsetInCU: 0x4DD5C, offset: 0x4DD5C, size: 0x8, addend: 0x0, symName: __ZN5Eigen8internal13scalar_sum_opIddEC1ERKS2_, symObjAddr: 0x10334, symBinAddr: 0x13E3C, symSize: 0x34 }
  - { offsetInCU: 0x4DD91, offset: 0x4DD91, size: 0x8, addend: 0x0, symName: __ZNK5Eigen13CwiseBinaryOpINS_8internal17scalar_product_opIddEEKNS_14CwiseNullaryOpINS1_18scalar_constant_opIdEEKNS_6MatrixIdLi3ELi1ELi0ELi3ELi1EEEEEKNS0_INS1_20scalar_difference_opIddEES9_S9_EEE4rowsEv, symObjAddr: 0x10368, symBinAddr: 0x13E70, symSize: 0x38 }
  - { offsetInCU: 0x4DDB7, offset: 0x4DDB7, size: 0x8, addend: 0x0, symName: __ZNK5Eigen13CwiseBinaryOpINS_8internal17scalar_product_opIddEEKNS_14CwiseNullaryOpINS1_18scalar_constant_opIdEEKNS_6MatrixIdLi3ELi1ELi0ELi3ELi1EEEEEKNS0_INS1_20scalar_difference_opIddEES9_S9_EEE4colsEv, symObjAddr: 0x103A0, symBinAddr: 0x13EA8, symSize: 0x28 }
  - { offsetInCU: 0x4DDDD, offset: 0x4DDDD, size: 0x8, addend: 0x0, symName: __ZN5Eigen10MatrixBaseINS_13CwiseBinaryOpINS_8internal13scalar_sum_opIddEEKNS_6MatrixIdLi3ELi1ELi0ELi3ELi1EEEKNS1_INS2_17scalar_product_opIddEEKNS_14CwiseNullaryOpINS2_18scalar_constant_opIdEES7_EEKNS1_INS2_20scalar_difference_opIddEES7_S7_EEEEEEEC2Ev, symObjAddr: 0x103C8, symBinAddr: 0x13ED0, symSize: 0x2C }
  - { offsetInCU: 0x4DE07, offset: 0x4DE07, size: 0x8, addend: 0x0, symName: __ZN5Eigen9DenseBaseINS_13CwiseBinaryOpINS_8internal13scalar_sum_opIddEEKNS_6MatrixIdLi3ELi1ELi0ELi3ELi1EEEKNS1_INS2_17scalar_product_opIddEEKNS_14CwiseNullaryOpINS2_18scalar_constant_opIdEES7_EEKNS1_INS2_20scalar_difference_opIddEES7_S7_EEEEEEEC2Ev, symObjAddr: 0x103F4, symBinAddr: 0x13EFC, symSize: 0x14 }
  - { offsetInCU: 0x4DE31, offset: 0x4DE31, size: 0x8, addend: 0x0, symName: __ZN5Eigen13CwiseBinaryOpINS_8internal17scalar_product_opIddEEKNS_14CwiseNullaryOpINS1_18scalar_constant_opIdEEKNS_6MatrixIdLi3ELi1ELi0ELi3ELi1EEEEEKNS0_INS1_20scalar_difference_opIddEES9_S9_EEEC2ERKSG_, symObjAddr: 0x10408, symBinAddr: 0x13F10, symSize: 0x64 }
  - { offsetInCU: 0x4DE66, offset: 0x4DE66, size: 0x8, addend: 0x0, symName: __ZN5Eigen8internal13scalar_sum_opIddEC2ERKS2_, symObjAddr: 0x1046C, symBinAddr: 0x13F74, symSize: 0x18 }
  - { offsetInCU: 0x4DE9B, offset: 0x4DE9B, size: 0x8, addend: 0x0, symName: __ZN5Eigen6MatrixIdLi3ELi1ELi0ELi3ELi1EEC2INS_13CwiseBinaryOpINS_8internal13scalar_sum_opIddEEKS1_KNS3_INS4_17scalar_product_opIddEEKNS_14CwiseNullaryOpINS4_18scalar_constant_opIdEES7_EEKNS3_INS4_20scalar_difference_opIddEES7_S7_EEEEEEEERKNS_9EigenBaseIT_EE, symObjAddr: 0x10484, symBinAddr: 0x13F8C, symSize: 0x40 }
  - { offsetInCU: 0x4DEDD, offset: 0x4DEDD, size: 0x8, addend: 0x0, symName: __ZNK5Eigen9EigenBaseINS_13CwiseBinaryOpINS_8internal13scalar_sum_opIddEEKNS_6MatrixIdLi3ELi1ELi0ELi3ELi1EEEKNS1_INS2_17scalar_product_opIddEEKNS_14CwiseNullaryOpINS2_18scalar_constant_opIdEES7_EEKNS1_INS2_20scalar_difference_opIddEES7_S7_EEEEEEE7derivedEv, symObjAddr: 0x104C4, symBinAddr: 0x13FCC, symSize: 0x14 }
  - { offsetInCU: 0x4DF03, offset: 0x4DF03, size: 0x8, addend: 0x0, symName: __ZN5Eigen15PlainObjectBaseINS_6MatrixIdLi3ELi1ELi0ELi3ELi1EEEEC2INS_13CwiseBinaryOpINS_8internal13scalar_sum_opIddEEKS2_KNS5_INS6_17scalar_product_opIddEEKNS_14CwiseNullaryOpINS6_18scalar_constant_opIdEES9_EEKNS5_INS6_20scalar_difference_opIddEES9_S9_EEEEEEEERKNS_9DenseBaseIT_EE, symObjAddr: 0x104D8, symBinAddr: 0x13FE0, symSize: 0x54 }
  - { offsetInCU: 0x4DF45, offset: 0x4DF45, size: 0x8, addend: 0x0, symName: __ZN5Eigen15PlainObjectBaseINS_6MatrixIdLi3ELi1ELi0ELi3ELi1EEEE10resizeLikeINS_13CwiseBinaryOpINS_8internal13scalar_sum_opIddEEKS2_KNS5_INS6_17scalar_product_opIddEEKNS_14CwiseNullaryOpINS6_18scalar_constant_opIdEES9_EEKNS5_INS6_20scalar_difference_opIddEES9_S9_EEEEEEEEvRKNS_9EigenBaseIT_EE, symObjAddr: 0x1052C, symBinAddr: 0x14034, symSize: 0xF0 }
  - { offsetInCU: 0x4DFA1, offset: 0x4DFA1, size: 0x8, addend: 0x0, symName: __ZN5Eigen15PlainObjectBaseINS_6MatrixIdLi3ELi1ELi0ELi3ELi1EEEE12_set_noaliasINS_13CwiseBinaryOpINS_8internal13scalar_sum_opIddEEKS2_KNS5_INS6_17scalar_product_opIddEEKNS_14CwiseNullaryOpINS6_18scalar_constant_opIdEES9_EEKNS5_INS6_20scalar_difference_opIddEES9_S9_EEEEEEEERS2_RKNS_9DenseBaseIT_EE, symObjAddr: 0x1061C, symBinAddr: 0x14124, symSize: 0x60 }
  - { offsetInCU: 0x4DFDF, offset: 0x4DFDF, size: 0x8, addend: 0x0, symName: __ZNK5Eigen13CwiseBinaryOpINS_8internal13scalar_sum_opIddEEKNS_6MatrixIdLi3ELi1ELi0ELi3ELi1EEEKNS0_INS1_17scalar_product_opIddEEKNS_14CwiseNullaryOpINS1_18scalar_constant_opIdEES6_EEKNS0_INS1_20scalar_difference_opIddEES6_S6_EEEEE4rowsEv, symObjAddr: 0x1067C, symBinAddr: 0x14184, symSize: 0x28 }
  - { offsetInCU: 0x4E005, offset: 0x4E005, size: 0x8, addend: 0x0, symName: __ZNK5Eigen13CwiseBinaryOpINS_8internal13scalar_sum_opIddEEKNS_6MatrixIdLi3ELi1ELi0ELi3ELi1EEEKNS0_INS1_17scalar_product_opIddEEKNS_14CwiseNullaryOpINS1_18scalar_constant_opIdEES6_EEKNS0_INS1_20scalar_difference_opIddEES6_S6_EEEEE4colsEv, symObjAddr: 0x106A4, symBinAddr: 0x141AC, symSize: 0x28 }
  - { offsetInCU: 0x4E02B, offset: 0x4E02B, size: 0x8, addend: 0x0, symName: __ZN5Eigen8internal10AssignmentINS_6MatrixIdLi3ELi1ELi0ELi3ELi1EEENS_13CwiseBinaryOpINS0_13scalar_sum_opIddEEKS3_KNS4_INS0_17scalar_product_opIddEEKNS_14CwiseNullaryOpINS0_18scalar_constant_opIdEES7_EEKNS4_INS0_20scalar_difference_opIddEES7_S7_EEEEEENS0_9assign_opIddEENS0_11Dense2DenseEvE3runERS3_RKSL_RKSN_, symObjAddr: 0x10708, symBinAddr: 0x14210, symSize: 0x40 }
  - { offsetInCU: 0x4E06D, offset: 0x4E06D, size: 0x8, addend: 0x0, symName: __ZN5Eigen8internal9evaluatorINS_13CwiseBinaryOpINS0_13scalar_sum_opIddEEKNS_6MatrixIdLi3ELi1ELi0ELi3ELi1EEEKNS2_INS0_17scalar_product_opIddEEKNS_14CwiseNullaryOpINS0_18scalar_constant_opIdEES7_EEKNS2_INS0_20scalar_difference_opIddEES7_S7_EEEEEEEC1ERKSL_, symObjAddr: 0x10834, symBinAddr: 0x1433C, symSize: 0x34 }
  - { offsetInCU: 0x4E0A6, offset: 0x4E0A6, size: 0x8, addend: 0x0, symName: __ZN5Eigen8internal31generic_dense_assignment_kernelINS0_9evaluatorINS_6MatrixIdLi3ELi1ELi0ELi3ELi1EEEEENS2_INS_13CwiseBinaryOpINS0_13scalar_sum_opIddEEKS4_KNS6_INS0_17scalar_product_opIddEEKNS_14CwiseNullaryOpINS0_18scalar_constant_opIdEES9_EEKNS6_INS0_20scalar_difference_opIddEES9_S9_EEEEEEEENS0_9assign_opIddEELi0EEC1ERS5_RKSO_RKSQ_RS4_, symObjAddr: 0x10960, symBinAddr: 0x14468, symSize: 0x4C }
  - { offsetInCU: 0x4E10C, offset: 0x4E10C, size: 0x8, addend: 0x0, symName: __ZN5Eigen8internal21dense_assignment_loopINS0_31generic_dense_assignment_kernelINS0_9evaluatorINS_6MatrixIdLi3ELi1ELi0ELi3ELi1EEEEENS3_INS_13CwiseBinaryOpINS0_13scalar_sum_opIddEEKS5_KNS7_INS0_17scalar_product_opIddEEKNS_14CwiseNullaryOpINS0_18scalar_constant_opIdEESA_EEKNS7_INS0_20scalar_difference_opIddEESA_SA_EEEEEEEENS0_9assign_opIddEELi0EEELi3ELi2EE3runERSS_, symObjAddr: 0x109AC, symBinAddr: 0x144B4, symSize: 0x2C }
  - { offsetInCU: 0x4E130, offset: 0x4E130, size: 0x8, addend: 0x0, symName: __ZN5Eigen8internal9evaluatorINS_13CwiseBinaryOpINS0_13scalar_sum_opIddEEKNS_6MatrixIdLi3ELi1ELi0ELi3ELi1EEEKNS2_INS0_17scalar_product_opIddEEKNS_14CwiseNullaryOpINS0_18scalar_constant_opIdEES7_EEKNS2_INS0_20scalar_difference_opIddEES7_S7_EEEEEEED1Ev, symObjAddr: 0x109D8, symBinAddr: 0x144E0, symSize: 0x2C }
  - { offsetInCU: 0x4E15D, offset: 0x4E15D, size: 0x8, addend: 0x0, symName: __ZN5Eigen8internal9evaluatorINS_13CwiseBinaryOpINS0_13scalar_sum_opIddEEKNS_6MatrixIdLi3ELi1ELi0ELi3ELi1EEEKNS2_INS0_17scalar_product_opIddEEKNS_14CwiseNullaryOpINS0_18scalar_constant_opIdEES7_EEKNS2_INS0_20scalar_difference_opIddEES7_S7_EEEEEEEC2ERKSL_, symObjAddr: 0x10A04, symBinAddr: 0x1450C, symSize: 0x34 }
  - { offsetInCU: 0x4E196, offset: 0x4E196, size: 0x8, addend: 0x0, symName: __ZN5Eigen8internal16binary_evaluatorINS_13CwiseBinaryOpINS0_13scalar_sum_opIddEEKNS_6MatrixIdLi3ELi1ELi0ELi3ELi1EEEKNS2_INS0_17scalar_product_opIddEEKNS_14CwiseNullaryOpINS0_18scalar_constant_opIdEES7_EEKNS2_INS0_20scalar_difference_opIddEES7_S7_EEEEEENS0_10IndexBasedESM_ddEC2ERKSL_, symObjAddr: 0x10A38, symBinAddr: 0x14540, symSize: 0x64 }
  - { offsetInCU: 0x4E1CF, offset: 0x4E1CF, size: 0x8, addend: 0x0, symName: __ZN5Eigen8internal14evaluator_baseINS_13CwiseBinaryOpINS0_13scalar_sum_opIddEEKNS_6MatrixIdLi3ELi1ELi0ELi3ELi1EEEKNS2_INS0_17scalar_product_opIddEEKNS_14CwiseNullaryOpINS0_18scalar_constant_opIdEES7_EEKNS2_INS0_20scalar_difference_opIddEES7_S7_EEEEEEEC2Ev, symObjAddr: 0x10A9C, symBinAddr: 0x145A4, symSize: 0x14 }
  - { offsetInCU: 0x4E1F9, offset: 0x4E1F9, size: 0x8, addend: 0x0, symName: __ZN5Eigen8internal16binary_evaluatorINS_13CwiseBinaryOpINS0_13scalar_sum_opIddEEKNS_6MatrixIdLi3ELi1ELi0ELi3ELi1EEEKNS2_INS0_17scalar_product_opIddEEKNS_14CwiseNullaryOpINS0_18scalar_constant_opIdEES7_EEKNS2_INS0_20scalar_difference_opIddEES7_S7_EEEEEENS0_10IndexBasedESM_ddE4DataC1ERKSL_, symObjAddr: 0x10AB0, symBinAddr: 0x145B8, symSize: 0x34 }
  - { offsetInCU: 0x4E232, offset: 0x4E232, size: 0x8, addend: 0x0, symName: __ZN5Eigen8internal14evaluator_baseINS_13CwiseBinaryOpINS0_13scalar_sum_opIddEEKNS_6MatrixIdLi3ELi1ELi0ELi3ELi1EEEKNS2_INS0_17scalar_product_opIddEEKNS_14CwiseNullaryOpINS0_18scalar_constant_opIdEES7_EEKNS2_INS0_20scalar_difference_opIddEES7_S7_EEEEEEED2Ev, symObjAddr: 0x10AE4, symBinAddr: 0x145EC, symSize: 0x14 }
  - { offsetInCU: 0x4E25C, offset: 0x4E25C, size: 0x8, addend: 0x0, symName: __ZN5Eigen8internal16binary_evaluatorINS_13CwiseBinaryOpINS0_13scalar_sum_opIddEEKNS_6MatrixIdLi3ELi1ELi0ELi3ELi1EEEKNS2_INS0_17scalar_product_opIddEEKNS_14CwiseNullaryOpINS0_18scalar_constant_opIdEES7_EEKNS2_INS0_20scalar_difference_opIddEES7_S7_EEEEEENS0_10IndexBasedESM_ddE4DataC2ERKSL_, symObjAddr: 0x10AF8, symBinAddr: 0x14600, symSize: 0xA8 }
  - { offsetInCU: 0x4E295, offset: 0x4E295, size: 0x8, addend: 0x0, symName: __ZNK5Eigen13CwiseBinaryOpINS_8internal13scalar_sum_opIddEEKNS_6MatrixIdLi3ELi1ELi0ELi3ELi1EEEKNS0_INS1_17scalar_product_opIddEEKNS_14CwiseNullaryOpINS1_18scalar_constant_opIdEES6_EEKNS0_INS1_20scalar_difference_opIddEES6_S6_EEEEE7functorEv, symObjAddr: 0x10BA0, symBinAddr: 0x146A8, symSize: 0x18 }
  - { offsetInCU: 0x4E2BB, offset: 0x4E2BB, size: 0x8, addend: 0x0, symName: __ZNK5Eigen13CwiseBinaryOpINS_8internal13scalar_sum_opIddEEKNS_6MatrixIdLi3ELi1ELi0ELi3ELi1EEEKNS0_INS1_17scalar_product_opIddEEKNS_14CwiseNullaryOpINS1_18scalar_constant_opIdEES6_EEKNS0_INS1_20scalar_difference_opIddEES6_S6_EEEEE3lhsEv, symObjAddr: 0x10BB8, symBinAddr: 0x146C0, symSize: 0x18 }
  - { offsetInCU: 0x4E2E1, offset: 0x4E2E1, size: 0x8, addend: 0x0, symName: __ZNK5Eigen13CwiseBinaryOpINS_8internal13scalar_sum_opIddEEKNS_6MatrixIdLi3ELi1ELi0ELi3ELi1EEEKNS0_INS1_17scalar_product_opIddEEKNS_14CwiseNullaryOpINS1_18scalar_constant_opIdEES6_EEKNS0_INS1_20scalar_difference_opIddEES6_S6_EEEEE3rhsEv, symObjAddr: 0x10BD0, symBinAddr: 0x146D8, symSize: 0x18 }
  - { offsetInCU: 0x4E307, offset: 0x4E307, size: 0x8, addend: 0x0, symName: __ZN5Eigen8internal9evaluatorIKNS_13CwiseBinaryOpINS0_17scalar_product_opIddEEKNS_14CwiseNullaryOpINS0_18scalar_constant_opIdEEKNS_6MatrixIdLi3ELi1ELi0ELi3ELi1EEEEEKNS2_INS0_20scalar_difference_opIddEESA_SA_EEEEEC1ERSI_, symObjAddr: 0x10BE8, symBinAddr: 0x146F0, symSize: 0x34 }
  - { offsetInCU: 0x4E33F, offset: 0x4E33F, size: 0x8, addend: 0x0, symName: __ZN5Eigen8internal9evaluatorIKNS_13CwiseBinaryOpINS0_17scalar_product_opIddEEKNS_14CwiseNullaryOpINS0_18scalar_constant_opIdEEKNS_6MatrixIdLi3ELi1ELi0ELi3ELi1EEEEEKNS2_INS0_20scalar_difference_opIddEESA_SA_EEEEEC2ERSI_, symObjAddr: 0x10C1C, symBinAddr: 0x14724, symSize: 0x34 }
  - { offsetInCU: 0x4E377, offset: 0x4E377, size: 0x8, addend: 0x0, symName: __ZN5Eigen8internal9evaluatorINS_13CwiseBinaryOpINS0_17scalar_product_opIddEEKNS_14CwiseNullaryOpINS0_18scalar_constant_opIdEEKNS_6MatrixIdLi3ELi1ELi0ELi3ELi1EEEEEKNS2_INS0_20scalar_difference_opIddEESA_SA_EEEEEC2ERKSH_, symObjAddr: 0x10C50, symBinAddr: 0x14758, symSize: 0x34 }
  - { offsetInCU: 0x4E3B0, offset: 0x4E3B0, size: 0x8, addend: 0x0, symName: __ZN5Eigen8internal16binary_evaluatorINS_13CwiseBinaryOpINS0_17scalar_product_opIddEEKNS_14CwiseNullaryOpINS0_18scalar_constant_opIdEEKNS_6MatrixIdLi3ELi1ELi0ELi3ELi1EEEEEKNS2_INS0_20scalar_difference_opIddEESA_SA_EEEENS0_10IndexBasedESI_ddEC2ERKSH_, symObjAddr: 0x10C84, symBinAddr: 0x1478C, symSize: 0x64 }
  - { offsetInCU: 0x4E3E9, offset: 0x4E3E9, size: 0x8, addend: 0x0, symName: __ZN5Eigen8internal14evaluator_baseINS_13CwiseBinaryOpINS0_17scalar_product_opIddEEKNS_14CwiseNullaryOpINS0_18scalar_constant_opIdEEKNS_6MatrixIdLi3ELi1ELi0ELi3ELi1EEEEEKNS2_INS0_20scalar_difference_opIddEESA_SA_EEEEEC2Ev, symObjAddr: 0x10CE8, symBinAddr: 0x147F0, symSize: 0x14 }
  - { offsetInCU: 0x4E413, offset: 0x4E413, size: 0x8, addend: 0x0, symName: __ZN5Eigen8internal16binary_evaluatorINS_13CwiseBinaryOpINS0_17scalar_product_opIddEEKNS_14CwiseNullaryOpINS0_18scalar_constant_opIdEEKNS_6MatrixIdLi3ELi1ELi0ELi3ELi1EEEEEKNS2_INS0_20scalar_difference_opIddEESA_SA_EEEENS0_10IndexBasedESI_ddE4DataC1ERKSH_, symObjAddr: 0x10CFC, symBinAddr: 0x14804, symSize: 0x34 }
  - { offsetInCU: 0x4E44C, offset: 0x4E44C, size: 0x8, addend: 0x0, symName: __ZN5Eigen8internal14evaluator_baseINS_13CwiseBinaryOpINS0_17scalar_product_opIddEEKNS_14CwiseNullaryOpINS0_18scalar_constant_opIdEEKNS_6MatrixIdLi3ELi1ELi0ELi3ELi1EEEEEKNS2_INS0_20scalar_difference_opIddEESA_SA_EEEEED2Ev, symObjAddr: 0x10D30, symBinAddr: 0x14838, symSize: 0x14 }
  - { offsetInCU: 0x4E476, offset: 0x4E476, size: 0x8, addend: 0x0, symName: __ZN5Eigen8internal16binary_evaluatorINS_13CwiseBinaryOpINS0_17scalar_product_opIddEEKNS_14CwiseNullaryOpINS0_18scalar_constant_opIdEEKNS_6MatrixIdLi3ELi1ELi0ELi3ELi1EEEEEKNS2_INS0_20scalar_difference_opIddEESA_SA_EEEENS0_10IndexBasedESI_ddE4DataC2ERKSH_, symObjAddr: 0x10D44, symBinAddr: 0x1484C, symSize: 0xA8 }
  - { offsetInCU: 0x4E4AF, offset: 0x4E4AF, size: 0x8, addend: 0x0, symName: __ZNK5Eigen13CwiseBinaryOpINS_8internal17scalar_product_opIddEEKNS_14CwiseNullaryOpINS1_18scalar_constant_opIdEEKNS_6MatrixIdLi3ELi1ELi0ELi3ELi1EEEEEKNS0_INS1_20scalar_difference_opIddEES9_S9_EEE7functorEv, symObjAddr: 0x10DEC, symBinAddr: 0x148F4, symSize: 0x18 }
  - { offsetInCU: 0x4E4D5, offset: 0x4E4D5, size: 0x8, addend: 0x0, symName: __ZNK5Eigen13CwiseBinaryOpINS_8internal17scalar_product_opIddEEKNS_14CwiseNullaryOpINS1_18scalar_constant_opIdEEKNS_6MatrixIdLi3ELi1ELi0ELi3ELi1EEEEEKNS0_INS1_20scalar_difference_opIddEES9_S9_EEE3lhsEv, symObjAddr: 0x10E04, symBinAddr: 0x1490C, symSize: 0x18 }
  - { offsetInCU: 0x4E4FB, offset: 0x4E4FB, size: 0x8, addend: 0x0, symName: __ZN5Eigen8internal9evaluatorIKNS_14CwiseNullaryOpINS0_18scalar_constant_opIdEEKNS_6MatrixIdLi3ELi1ELi0ELi3ELi1EEEEEEC1ERS9_, symObjAddr: 0x10E1C, symBinAddr: 0x14924, symSize: 0x34 }
  - { offsetInCU: 0x4E533, offset: 0x4E533, size: 0x8, addend: 0x0, symName: __ZNK5Eigen13CwiseBinaryOpINS_8internal17scalar_product_opIddEEKNS_14CwiseNullaryOpINS1_18scalar_constant_opIdEEKNS_6MatrixIdLi3ELi1ELi0ELi3ELi1EEEEEKNS0_INS1_20scalar_difference_opIddEES9_S9_EEE3rhsEv, symObjAddr: 0x10E50, symBinAddr: 0x14958, symSize: 0x18 }
  - { offsetInCU: 0x4E559, offset: 0x4E559, size: 0x8, addend: 0x0, symName: __ZN5Eigen8internal9evaluatorIKNS_14CwiseNullaryOpINS0_18scalar_constant_opIdEEKNS_6MatrixIdLi3ELi1ELi0ELi3ELi1EEEEEED1Ev, symObjAddr: 0x10E68, symBinAddr: 0x14970, symSize: 0x2C }
  - { offsetInCU: 0x4E585, offset: 0x4E585, size: 0x8, addend: 0x0, symName: __ZN5Eigen8internal9evaluatorIKNS_14CwiseNullaryOpINS0_18scalar_constant_opIdEEKNS_6MatrixIdLi3ELi1ELi0ELi3ELi1EEEEEEC2ERS9_, symObjAddr: 0x10E94, symBinAddr: 0x1499C, symSize: 0x34 }
  - { offsetInCU: 0x4E5BD, offset: 0x4E5BD, size: 0x8, addend: 0x0, symName: __ZN5Eigen8internal9evaluatorINS_14CwiseNullaryOpINS0_18scalar_constant_opIdEEKNS_6MatrixIdLi3ELi1ELi0ELi3ELi1EEEEEEC2ERKS8_, symObjAddr: 0x10EC8, symBinAddr: 0x149D0, symSize: 0x74 }
  - { offsetInCU: 0x4E5F6, offset: 0x4E5F6, size: 0x8, addend: 0x0, symName: __ZN5Eigen8internal14evaluator_baseINS_14CwiseNullaryOpINS0_18scalar_constant_opIdEEKNS_6MatrixIdLi3ELi1ELi0ELi3ELi1EEEEEEC2Ev, symObjAddr: 0x10F3C, symBinAddr: 0x14A44, symSize: 0x14 }
  - { offsetInCU: 0x4E620, offset: 0x4E620, size: 0x8, addend: 0x0, symName: __ZNK5Eigen14CwiseNullaryOpINS_8internal18scalar_constant_opIdEEKNS_6MatrixIdLi3ELi1ELi0ELi3ELi1EEEE7functorEv, symObjAddr: 0x10F50, symBinAddr: 0x14A58, symSize: 0x18 }
  - { offsetInCU: 0x4E646, offset: 0x4E646, size: 0x8, addend: 0x0, symName: __ZN5Eigen8internal14evaluator_baseINS_14CwiseNullaryOpINS0_18scalar_constant_opIdEEKNS_6MatrixIdLi3ELi1ELi0ELi3ELi1EEEEEED2Ev, symObjAddr: 0x10F68, symBinAddr: 0x14A70, symSize: 0x14 }
  - { offsetInCU: 0x4E670, offset: 0x4E670, size: 0x8, addend: 0x0, symName: __ZN5Eigen8internal9evaluatorIKNS_14CwiseNullaryOpINS0_18scalar_constant_opIdEEKNS_6MatrixIdLi3ELi1ELi0ELi3ELi1EEEEEED2Ev, symObjAddr: 0x10F7C, symBinAddr: 0x14A84, symSize: 0x2C }
  - { offsetInCU: 0x4E69C, offset: 0x4E69C, size: 0x8, addend: 0x0, symName: __ZN5Eigen8internal9evaluatorINS_14CwiseNullaryOpINS0_18scalar_constant_opIdEEKNS_6MatrixIdLi3ELi1ELi0ELi3ELi1EEEEEED2Ev, symObjAddr: 0x10FA8, symBinAddr: 0x14AB0, symSize: 0x2C }
  - { offsetInCU: 0x4E6C8, offset: 0x4E6C8, size: 0x8, addend: 0x0, symName: __ZN5Eigen8internal31generic_dense_assignment_kernelINS0_9evaluatorINS_6MatrixIdLi3ELi1ELi0ELi3ELi1EEEEENS2_INS_13CwiseBinaryOpINS0_13scalar_sum_opIddEEKS4_KNS6_INS0_17scalar_product_opIddEEKNS_14CwiseNullaryOpINS0_18scalar_constant_opIdEES9_EEKNS6_INS0_20scalar_difference_opIddEES9_S9_EEEEEEEENS0_9assign_opIddEELi0EEC2ERS5_RKSO_RKSQ_RS4_, symObjAddr: 0x10FD4, symBinAddr: 0x14ADC, symSize: 0x44 }
  - { offsetInCU: 0x4E72E, offset: 0x4E72E, size: 0x8, addend: 0x0, symName: __ZN5Eigen8internal47copy_using_evaluator_innervec_CompleteUnrollingINS0_31generic_dense_assignment_kernelINS0_9evaluatorINS_6MatrixIdLi3ELi1ELi0ELi3ELi1EEEEENS3_INS_13CwiseBinaryOpINS0_13scalar_sum_opIddEEKS5_KNS7_INS0_17scalar_product_opIddEEKNS_14CwiseNullaryOpINS0_18scalar_constant_opIdEESA_EEKNS7_INS0_20scalar_difference_opIddEESA_SA_EEEEEEEENS0_9assign_opIddEELi0EEELi0ELi2EE3runERSS_, symObjAddr: 0x11018, symBinAddr: 0x14B20, symSize: 0x34 }
  - { offsetInCU: 0x4E752, offset: 0x4E752, size: 0x8, addend: 0x0, symName: __ZN5Eigen8internal55copy_using_evaluator_DefaultTraversal_CompleteUnrollingINS0_31generic_dense_assignment_kernelINS0_9evaluatorINS_6MatrixIdLi3ELi1ELi0ELi3ELi1EEEEENS3_INS_13CwiseBinaryOpINS0_13scalar_sum_opIddEEKS5_KNS7_INS0_17scalar_product_opIddEEKNS_14CwiseNullaryOpINS0_18scalar_constant_opIdEESA_EEKNS7_INS0_20scalar_difference_opIddEESA_SA_EEEEEEEENS0_9assign_opIddEELi0EEELi2ELi3EE3runERSS_, symObjAddr: 0x1104C, symBinAddr: 0x14B54, symSize: 0x34 }
  - { offsetInCU: 0x4E775, offset: 0x4E775, size: 0x8, addend: 0x0, symName: __ZN5Eigen8internal31generic_dense_assignment_kernelINS0_9evaluatorINS_6MatrixIdLi3ELi1ELi0ELi3ELi1EEEEENS2_INS_13CwiseBinaryOpINS0_13scalar_sum_opIddEEKS4_KNS6_INS0_17scalar_product_opIddEEKNS_14CwiseNullaryOpINS0_18scalar_constant_opIdEES9_EEKNS6_INS0_20scalar_difference_opIddEES9_S9_EEEEEEEENS0_9assign_opIddEELi0EE24assignPacketByOuterInnerILi0ELi0E19__simd128_float64_tEEvll, symObjAddr: 0x11080, symBinAddr: 0x14B88, symSize: 0x60 }
  - { offsetInCU: 0x4E7F4, offset: 0x4E7F4, size: 0x8, addend: 0x0, symName: __ZN5Eigen8internal47copy_using_evaluator_innervec_CompleteUnrollingINS0_31generic_dense_assignment_kernelINS0_9evaluatorINS_6MatrixIdLi3ELi1ELi0ELi3ELi1EEEEENS3_INS_13CwiseBinaryOpINS0_13scalar_sum_opIddEEKS5_KNS7_INS0_17scalar_product_opIddEEKNS_14CwiseNullaryOpINS0_18scalar_constant_opIdEESA_EEKNS7_INS0_20scalar_difference_opIddEESA_SA_EEEEEEEENS0_9assign_opIddEELi0EEELi2ELi2EE3runERSS_, symObjAddr: 0x110E0, symBinAddr: 0x14BE8, symSize: 0x10 }
  - { offsetInCU: 0x4E814, offset: 0x4E814, size: 0x8, addend: 0x0, symName: __ZN5Eigen8internal31generic_dense_assignment_kernelINS0_9evaluatorINS_6MatrixIdLi3ELi1ELi0ELi3ELi1EEEEENS2_INS_13CwiseBinaryOpINS0_13scalar_sum_opIddEEKS4_KNS6_INS0_17scalar_product_opIddEEKNS_14CwiseNullaryOpINS0_18scalar_constant_opIdEES9_EEKNS6_INS0_20scalar_difference_opIddEES9_S9_EEEEEEEENS0_9assign_opIddEELi0EE20rowIndexByOuterInnerEll, symObjAddr: 0x110F0, symBinAddr: 0x14BF8, symSize: 0x18 }
  - { offsetInCU: 0x4E847, offset: 0x4E847, size: 0x8, addend: 0x0, symName: __ZN5Eigen8internal31generic_dense_assignment_kernelINS0_9evaluatorINS_6MatrixIdLi3ELi1ELi0ELi3ELi1EEEEENS2_INS_13CwiseBinaryOpINS0_13scalar_sum_opIddEEKS4_KNS6_INS0_17scalar_product_opIddEEKNS_14CwiseNullaryOpINS0_18scalar_constant_opIdEES9_EEKNS6_INS0_20scalar_difference_opIddEES9_S9_EEEEEEEENS0_9assign_opIddEELi0EE20colIndexByOuterInnerEll, symObjAddr: 0x11108, symBinAddr: 0x14C10, symSize: 0x18 }
  - { offsetInCU: 0x4E87A, offset: 0x4E87A, size: 0x8, addend: 0x0, symName: __ZN5Eigen8internal31generic_dense_assignment_kernelINS0_9evaluatorINS_6MatrixIdLi3ELi1ELi0ELi3ELi1EEEEENS2_INS_13CwiseBinaryOpINS0_13scalar_sum_opIddEEKS4_KNS6_INS0_17scalar_product_opIddEEKNS_14CwiseNullaryOpINS0_18scalar_constant_opIdEES9_EEKNS6_INS0_20scalar_difference_opIddEES9_S9_EEEEEEEENS0_9assign_opIddEELi0EE12assignPacketILi0ELi0E19__simd128_float64_tEEvll, symObjAddr: 0x11120, symBinAddr: 0x14C28, symSize: 0x70 }
  - { offsetInCU: 0x4E8DB, offset: 0x4E8DB, size: 0x8, addend: 0x0, symName: __ZNK5Eigen8internal16binary_evaluatorINS_13CwiseBinaryOpINS0_13scalar_sum_opIddEEKNS_6MatrixIdLi3ELi1ELi0ELi3ELi1EEEKNS2_INS0_17scalar_product_opIddEEKNS_14CwiseNullaryOpINS0_18scalar_constant_opIdEES7_EEKNS2_INS0_20scalar_difference_opIddEES7_S7_EEEEEENS0_10IndexBasedESM_ddE6packetILi0E19__simd128_float64_tEET0_ll, symObjAddr: 0x11190, symBinAddr: 0x14C98, symSize: 0x7C }
  - { offsetInCU: 0x4E932, offset: 0x4E932, size: 0x8, addend: 0x0, symName: __ZNK5Eigen8internal16binary_evaluatorINS_13CwiseBinaryOpINS0_13scalar_sum_opIddEEKNS_6MatrixIdLi3ELi1ELi0ELi3ELi1EEEKNS2_INS0_17scalar_product_opIddEEKNS_14CwiseNullaryOpINS0_18scalar_constant_opIdEES7_EEKNS2_INS0_20scalar_difference_opIddEES7_S7_EEEEEENS0_10IndexBasedESM_ddE4Data4funcEv, symObjAddr: 0x1120C, symBinAddr: 0x14D14, symSize: 0x14 }
  - { offsetInCU: 0x4E958, offset: 0x4E958, size: 0x8, addend: 0x0, symName: __ZNK5Eigen8internal13scalar_sum_opIddE8packetOpI19__simd128_float64_tEET_RKS5_S7_, symObjAddr: 0x11220, symBinAddr: 0x14D28, symSize: 0x30 }
  - { offsetInCU: 0x4E9A3, offset: 0x4E9A3, size: 0x8, addend: 0x0, symName: __ZNK5Eigen8internal16binary_evaluatorINS_13CwiseBinaryOpINS0_17scalar_product_opIddEEKNS_14CwiseNullaryOpINS0_18scalar_constant_opIdEEKNS_6MatrixIdLi3ELi1ELi0ELi3ELi1EEEEEKNS2_INS0_20scalar_difference_opIddEESA_SA_EEEENS0_10IndexBasedESI_ddE6packetILi0E19__simd128_float64_tEET0_ll, symObjAddr: 0x11250, symBinAddr: 0x14D58, symSize: 0x7C }
  - { offsetInCU: 0x4E9FA, offset: 0x4E9FA, size: 0x8, addend: 0x0, symName: __ZNK5Eigen8internal16binary_evaluatorINS_13CwiseBinaryOpINS0_17scalar_product_opIddEEKNS_14CwiseNullaryOpINS0_18scalar_constant_opIdEEKNS_6MatrixIdLi3ELi1ELi0ELi3ELi1EEEEEKNS2_INS0_20scalar_difference_opIddEESA_SA_EEEENS0_10IndexBasedESI_ddE4Data4funcEv, symObjAddr: 0x1130C, symBinAddr: 0x14E14, symSize: 0x14 }
  - { offsetInCU: 0x4EA20, offset: 0x4EA20, size: 0x8, addend: 0x0, symName: __ZNK5Eigen8internal17scalar_product_opIddE8packetOpI19__simd128_float64_tEET_RKS5_S7_, symObjAddr: 0x11320, symBinAddr: 0x14E28, symSize: 0x30 }
  - { offsetInCU: 0x4EA75, offset: 0x4EA75, size: 0x8, addend: 0x0, symName: __ZNK5Eigen8internal9evaluatorINS_14CwiseNullaryOpINS0_18scalar_constant_opIdEEKNS_6MatrixIdLi3ELi1ELi0ELi3ELi1EEEEEE6packetILi0E19__simd128_float64_tlEET0_T1_SD_, symObjAddr: 0x11350, symBinAddr: 0x14E58, symSize: 0x3C }
  - { offsetInCU: 0x4EADA, offset: 0x4EADA, size: 0x8, addend: 0x0, symName: __ZNK5Eigen8internal15nullary_wrapperIdNS0_18scalar_constant_opIdEELb1ELb0ELb0EE8packetOpI19__simd128_float64_tlEET_RKS3_T0_SA_, symObjAddr: 0x1138C, symBinAddr: 0x14E94, symSize: 0x30 }
  - { offsetInCU: 0x4EB37, offset: 0x4EB37, size: 0x8, addend: 0x0, symName: __ZNK5Eigen8internal18scalar_constant_opIdE8packetOpI19__simd128_float64_tEEKT_v, symObjAddr: 0x113BC, symBinAddr: 0x14EC4, symSize: 0x24 }
  - { offsetInCU: 0x4EB66, offset: 0x4EB66, size: 0x8, addend: 0x0, symName: __ZN5Eigen8internal31generic_dense_assignment_kernelINS0_9evaluatorINS_6MatrixIdLi3ELi1ELi0ELi3ELi1EEEEENS2_INS_13CwiseBinaryOpINS0_13scalar_sum_opIddEEKS4_KNS6_INS0_17scalar_product_opIddEEKNS_14CwiseNullaryOpINS0_18scalar_constant_opIdEES9_EEKNS6_INS0_20scalar_difference_opIddEES9_S9_EEEEEEEENS0_9assign_opIddEELi0EE23assignCoeffByOuterInnerEll, symObjAddr: 0x11424, symBinAddr: 0x14F2C, symSize: 0x60 }
  - { offsetInCU: 0x4EBC8, offset: 0x4EBC8, size: 0x8, addend: 0x0, symName: __ZN5Eigen8internal55copy_using_evaluator_DefaultTraversal_CompleteUnrollingINS0_31generic_dense_assignment_kernelINS0_9evaluatorINS_6MatrixIdLi3ELi1ELi0ELi3ELi1EEEEENS3_INS_13CwiseBinaryOpINS0_13scalar_sum_opIddEEKS5_KNS7_INS0_17scalar_product_opIddEEKNS_14CwiseNullaryOpINS0_18scalar_constant_opIdEESA_EEKNS7_INS0_20scalar_difference_opIddEESA_SA_EEEEEEEENS0_9assign_opIddEELi0EEELi3ELi3EE3runERSS_, symObjAddr: 0x11484, symBinAddr: 0x14F8C, symSize: 0x10 }
  - { offsetInCU: 0x4EBE8, offset: 0x4EBE8, size: 0x8, addend: 0x0, symName: __ZN5Eigen8internal31generic_dense_assignment_kernelINS0_9evaluatorINS_6MatrixIdLi3ELi1ELi0ELi3ELi1EEEEENS2_INS_13CwiseBinaryOpINS0_13scalar_sum_opIddEEKS4_KNS6_INS0_17scalar_product_opIddEEKNS_14CwiseNullaryOpINS0_18scalar_constant_opIdEES9_EEKNS6_INS0_20scalar_difference_opIddEES9_S9_EEEEEEEENS0_9assign_opIddEELi0EE11assignCoeffEll, symObjAddr: 0x11494, symBinAddr: 0x14F9C, symSize: 0x70 }
  - { offsetInCU: 0x4EC2C, offset: 0x4EC2C, size: 0x8, addend: 0x0, symName: __ZNK5Eigen8internal16binary_evaluatorINS_13CwiseBinaryOpINS0_13scalar_sum_opIddEEKNS_6MatrixIdLi3ELi1ELi0ELi3ELi1EEEKNS2_INS0_17scalar_product_opIddEEKNS_14CwiseNullaryOpINS0_18scalar_constant_opIdEES7_EEKNS2_INS0_20scalar_difference_opIddEES7_S7_EEEEEENS0_10IndexBasedESM_ddE5coeffEll, symObjAddr: 0x11504, symBinAddr: 0x1500C, symSize: 0x74 }
  - { offsetInCU: 0x4EC70, offset: 0x4EC70, size: 0x8, addend: 0x0, symName: __ZNK5Eigen8internal16binary_evaluatorINS_13CwiseBinaryOpINS0_17scalar_product_opIddEEKNS_14CwiseNullaryOpINS0_18scalar_constant_opIdEEKNS_6MatrixIdLi3ELi1ELi0ELi3ELi1EEEEEKNS2_INS0_20scalar_difference_opIddEESA_SA_EEEENS0_10IndexBasedESI_ddE5coeffEll, symObjAddr: 0x11578, symBinAddr: 0x15080, symSize: 0x7C }
  - { offsetInCU: 0x4ECB4, offset: 0x4ECB4, size: 0x8, addend: 0x0, symName: __ZNK5Eigen8internal17scalar_product_opIddEclERKdS4_, symObjAddr: 0x115F4, symBinAddr: 0x150FC, symSize: 0x2C }
  - { offsetInCU: 0x4ECF6, offset: 0x4ECF6, size: 0x8, addend: 0x0, symName: __ZNK5Eigen8internal9evaluatorINS_14CwiseNullaryOpINS0_18scalar_constant_opIdEEKNS_6MatrixIdLi3ELi1ELi0ELi3ELi1EEEEEE5coeffIlEEdT_SB_, symObjAddr: 0x11620, symBinAddr: 0x15128, symSize: 0x3C }
  - { offsetInCU: 0x4ED43, offset: 0x4ED43, size: 0x8, addend: 0x0, symName: __ZNK5Eigen8internal15nullary_wrapperIdNS0_18scalar_constant_opIdEELb1ELb0ELb0EEclIlEEdRKS3_T_S8_, symObjAddr: 0x1165C, symBinAddr: 0x15164, symSize: 0x30 }
  - { offsetInCU: 0x4ED97, offset: 0x4ED97, size: 0x8, addend: 0x0, symName: __ZN5Eigen8internal9evaluatorINS_13CwiseBinaryOpINS0_13scalar_sum_opIddEEKNS_6MatrixIdLi3ELi1ELi0ELi3ELi1EEEKNS2_INS0_17scalar_product_opIddEEKNS_14CwiseNullaryOpINS0_18scalar_constant_opIdEES7_EEKNS2_INS0_20scalar_difference_opIddEES7_S7_EEEEEEED2Ev, symObjAddr: 0x1168C, symBinAddr: 0x15194, symSize: 0x2C }
  - { offsetInCU: 0x4EDC4, offset: 0x4EDC4, size: 0x8, addend: 0x0, symName: __ZN5Eigen8internal16binary_evaluatorINS_13CwiseBinaryOpINS0_13scalar_sum_opIddEEKNS_6MatrixIdLi3ELi1ELi0ELi3ELi1EEEKNS2_INS0_17scalar_product_opIddEEKNS_14CwiseNullaryOpINS0_18scalar_constant_opIdEES7_EEKNS2_INS0_20scalar_difference_opIddEES7_S7_EEEEEENS0_10IndexBasedESM_ddED2Ev, symObjAddr: 0x116B8, symBinAddr: 0x151C0, symSize: 0x34 }
  - { offsetInCU: 0x4EDF0, offset: 0x4EDF0, size: 0x8, addend: 0x0, symName: __ZN5Eigen8internal16binary_evaluatorINS_13CwiseBinaryOpINS0_13scalar_sum_opIddEEKNS_6MatrixIdLi3ELi1ELi0ELi3ELi1EEEKNS2_INS0_17scalar_product_opIddEEKNS_14CwiseNullaryOpINS0_18scalar_constant_opIdEES7_EEKNS2_INS0_20scalar_difference_opIddEES7_S7_EEEEEENS0_10IndexBasedESM_ddE4DataD1Ev, symObjAddr: 0x116EC, symBinAddr: 0x151F4, symSize: 0x2C }
  - { offsetInCU: 0x4EE1D, offset: 0x4EE1D, size: 0x8, addend: 0x0, symName: __ZN5Eigen8internal16binary_evaluatorINS_13CwiseBinaryOpINS0_13scalar_sum_opIddEEKNS_6MatrixIdLi3ELi1ELi0ELi3ELi1EEEKNS2_INS0_17scalar_product_opIddEEKNS_14CwiseNullaryOpINS0_18scalar_constant_opIdEES7_EEKNS2_INS0_20scalar_difference_opIddEES7_S7_EEEEEENS0_10IndexBasedESM_ddE4DataD2Ev, symObjAddr: 0x11718, symBinAddr: 0x15220, symSize: 0x3C }
  - { offsetInCU: 0x4EE4A, offset: 0x4EE4A, size: 0x8, addend: 0x0, symName: __ZN5Eigen8internal9evaluatorIKNS_13CwiseBinaryOpINS0_17scalar_product_opIddEEKNS_14CwiseNullaryOpINS0_18scalar_constant_opIdEEKNS_6MatrixIdLi3ELi1ELi0ELi3ELi1EEEEEKNS2_INS0_20scalar_difference_opIddEESA_SA_EEEEED1Ev, symObjAddr: 0x11754, symBinAddr: 0x1525C, symSize: 0x2C }
  - { offsetInCU: 0x4EE76, offset: 0x4EE76, size: 0x8, addend: 0x0, symName: __ZN5Eigen8internal9evaluatorIKNS_13CwiseBinaryOpINS0_17scalar_product_opIddEEKNS_14CwiseNullaryOpINS0_18scalar_constant_opIdEEKNS_6MatrixIdLi3ELi1ELi0ELi3ELi1EEEEEKNS2_INS0_20scalar_difference_opIddEESA_SA_EEEEED2Ev, symObjAddr: 0x11780, symBinAddr: 0x15288, symSize: 0x2C }
  - { offsetInCU: 0x4EEA2, offset: 0x4EEA2, size: 0x8, addend: 0x0, symName: __ZN5Eigen8internal9evaluatorINS_13CwiseBinaryOpINS0_17scalar_product_opIddEEKNS_14CwiseNullaryOpINS0_18scalar_constant_opIdEEKNS_6MatrixIdLi3ELi1ELi0ELi3ELi1EEEEEKNS2_INS0_20scalar_difference_opIddEESA_SA_EEEEED2Ev, symObjAddr: 0x117AC, symBinAddr: 0x152B4, symSize: 0x2C }
  - { offsetInCU: 0x4EECF, offset: 0x4EECF, size: 0x8, addend: 0x0, symName: __ZN5Eigen8internal16binary_evaluatorINS_13CwiseBinaryOpINS0_17scalar_product_opIddEEKNS_14CwiseNullaryOpINS0_18scalar_constant_opIdEEKNS_6MatrixIdLi3ELi1ELi0ELi3ELi1EEEEEKNS2_INS0_20scalar_difference_opIddEESA_SA_EEEENS0_10IndexBasedESI_ddED2Ev, symObjAddr: 0x117D8, symBinAddr: 0x152E0, symSize: 0x34 }
  - { offsetInCU: 0x4EEFB, offset: 0x4EEFB, size: 0x8, addend: 0x0, symName: __ZN5Eigen8internal16binary_evaluatorINS_13CwiseBinaryOpINS0_17scalar_product_opIddEEKNS_14CwiseNullaryOpINS0_18scalar_constant_opIdEEKNS_6MatrixIdLi3ELi1ELi0ELi3ELi1EEEEEKNS2_INS0_20scalar_difference_opIddEESA_SA_EEEENS0_10IndexBasedESI_ddE4DataD1Ev, symObjAddr: 0x1180C, symBinAddr: 0x15314, symSize: 0x2C }
  - { offsetInCU: 0x4EF28, offset: 0x4EF28, size: 0x8, addend: 0x0, symName: __ZN5Eigen8internal16binary_evaluatorINS_13CwiseBinaryOpINS0_17scalar_product_opIddEEKNS_14CwiseNullaryOpINS0_18scalar_constant_opIdEEKNS_6MatrixIdLi3ELi1ELi0ELi3ELi1EEEEEKNS2_INS0_20scalar_difference_opIddEESA_SA_EEEENS0_10IndexBasedESI_ddE4DataD2Ev, symObjAddr: 0x11838, symBinAddr: 0x15340, symSize: 0x3C }
  - { offsetInCU: 0x4EF55, offset: 0x4EF55, size: 0x8, addend: 0x0, symName: __ZNSt3__16vectorIN5Eigen6MatrixIdLi3ELi1ELi0ELi3ELi1EEENS_9allocatorIS3_EEE9__end_capB7v160006Ev, symObjAddr: 0x11874, symBinAddr: 0x1537C, symSize: 0x28 }
  - { offsetInCU: 0x4EF7B, offset: 0x4EF7B, size: 0x8, addend: 0x0, symName: __ZNSt3__16vectorIN5Eigen6MatrixIdLi3ELi1ELi0ELi3ELi1EEENS_9allocatorIS3_EEE22__construct_one_at_endB7v160006IJRKS3_EEEvDpOT_, symObjAddr: 0x1189C, symBinAddr: 0x153A4, symSize: 0x90 }
  - { offsetInCU: 0x4EFCA, offset: 0x4EFCA, size: 0x8, addend: 0x0, symName: __ZNSt3__16vectorIN5Eigen6MatrixIdLi3ELi1ELi0ELi3ELi1EEENS_9allocatorIS3_EEE21__push_back_slow_pathIRKS3_EEvOT_, symObjAddr: 0x1192C, symBinAddr: 0x15434, symSize: 0xD8 }
  - { offsetInCU: 0x4F028, offset: 0x4F028, size: 0x8, addend: 0x0, symName: __ZNSt3__117__compressed_pairIPN5Eigen6MatrixIdLi3ELi1ELi0ELi3ELi1EEENS_9allocatorIS3_EEE5firstB7v160006Ev, symObjAddr: 0x11A04, symBinAddr: 0x1550C, symSize: 0x24 }
  - { offsetInCU: 0x4F04E, offset: 0x4F04E, size: 0x8, addend: 0x0, symName: __ZNSt3__122__compressed_pair_elemIPN5Eigen6MatrixIdLi3ELi1ELi0ELi3ELi1EEELi0ELb0EE5__getB7v160006Ev, symObjAddr: 0x11A28, symBinAddr: 0x15530, symSize: 0x14 }
  - { offsetInCU: 0x4F08D, offset: 0x4F08D, size: 0x8, addend: 0x0, symName: __ZNSt3__16vectorIN5Eigen6MatrixIdLi3ELi1ELi0ELi3ELi1EEENS_9allocatorIS3_EEE21_ConstructTransactionC1B7v160006ERS6_m, symObjAddr: 0x11A3C, symBinAddr: 0x15544, symSize: 0x3C }
  - { offsetInCU: 0x4F0D5, offset: 0x4F0D5, size: 0x8, addend: 0x0, symName: __ZNSt3__116allocator_traitsINS_9allocatorIN5Eigen6MatrixIdLi3ELi1ELi0ELi3ELi1EEEEEE9constructB7v160006IS4_JRKS4_EvEEvRS5_PT_DpOT0_, symObjAddr: 0x11A78, symBinAddr: 0x15580, symSize: 0x34 }
  - { offsetInCU: 0x4F12C, offset: 0x4F12C, size: 0x8, addend: 0x0, symName: __ZNSt3__16vectorIN5Eigen6MatrixIdLi3ELi1ELi0ELi3ELi1EEENS_9allocatorIS3_EEE21_ConstructTransactionD1B7v160006Ev, symObjAddr: 0x11AAC, symBinAddr: 0x155B4, symSize: 0x2C }
  - { offsetInCU: 0x4F156, offset: 0x4F156, size: 0x8, addend: 0x0, symName: __ZNSt3__16vectorIN5Eigen6MatrixIdLi3ELi1ELi0ELi3ELi1EEENS_9allocatorIS3_EEE21_ConstructTransactionC2B7v160006ERS6_m, symObjAddr: 0x11AD8, symBinAddr: 0x155E0, symSize: 0x4C }
  - { offsetInCU: 0x4F19E, offset: 0x4F19E, size: 0x8, addend: 0x0, symName: __ZNSt3__19allocatorIN5Eigen6MatrixIdLi3ELi1ELi0ELi3ELi1EEEE9constructB7v160006IS3_JRKS3_EEEvPT_DpOT0_, symObjAddr: 0x11B24, symBinAddr: 0x1562C, symSize: 0x30 }
  - { offsetInCU: 0x4F1F4, offset: 0x4F1F4, size: 0x8, addend: 0x0, symName: __ZN5Eigen6MatrixIdLi3ELi1ELi0ELi3ELi1EEC1ERKS1_, symObjAddr: 0x11B54, symBinAddr: 0x1565C, symSize: 0x34 }
  - { offsetInCU: 0x4F22D, offset: 0x4F22D, size: 0x8, addend: 0x0, symName: __ZN5Eigen6MatrixIdLi3ELi1ELi0ELi3ELi1EEC2ERKS1_, symObjAddr: 0x11B88, symBinAddr: 0x15690, symSize: 0x34 }
  - { offsetInCU: 0x4F266, offset: 0x4F266, size: 0x8, addend: 0x0, symName: __ZN5Eigen15PlainObjectBaseINS_6MatrixIdLi3ELi1ELi0ELi3ELi1EEEEC2ERKS3_, symObjAddr: 0x11BBC, symBinAddr: 0x156C4, symSize: 0x44 }
  - { offsetInCU: 0x4F29F, offset: 0x4F29F, size: 0x8, addend: 0x0, symName: __ZNSt3__16vectorIN5Eigen6MatrixIdLi3ELi1ELi0ELi3ELi1EEENS_9allocatorIS3_EEE21_ConstructTransactionD2B7v160006Ev, symObjAddr: 0x11C00, symBinAddr: 0x15708, symSize: 0x20 }
  - { offsetInCU: 0x4F2C9, offset: 0x4F2C9, size: 0x8, addend: 0x0, symName: __ZNKSt3__16vectorIN5Eigen6MatrixIdLi3ELi1ELi0ELi3ELi1EEENS_9allocatorIS3_EEE11__recommendB7v160006Em, symObjAddr: 0x11C20, symBinAddr: 0x15728, symSize: 0xB4 }
  - { offsetInCU: 0x4F31E, offset: 0x4F31E, size: 0x8, addend: 0x0, symName: __ZNSt3__114__split_bufferIN5Eigen6MatrixIdLi3ELi1ELi0ELi3ELi1EEERNS_9allocatorIS3_EEEC1EmmS6_, symObjAddr: 0x11CD4, symBinAddr: 0x157DC, symSize: 0x44 }
  - { offsetInCU: 0x4F374, offset: 0x4F374, size: 0x8, addend: 0x0, symName: __ZNSt3__114__split_bufferIN5Eigen6MatrixIdLi3ELi1ELi0ELi3ELi1EEERNS_9allocatorIS3_EEED1Ev, symObjAddr: 0x11E30, symBinAddr: 0x15938, symSize: 0x2C }
  - { offsetInCU: 0x4F3A0, offset: 0x4F3A0, size: 0x8, addend: 0x0, symName: __ZNKSt3__16vectorIN5Eigen6MatrixIdLi3ELi1ELi0ELi3ELi1EEENS_9allocatorIS3_EEE8max_sizeEv, symObjAddr: 0x11E5C, symBinAddr: 0x15964, symSize: 0x60 }
  - { offsetInCU: 0x4F3C8, offset: 0x4F3C8, size: 0x8, addend: 0x0, symName: __ZNKSt3__16vectorIN5Eigen6MatrixIdLi3ELi1ELi0ELi3ELi1EEENS_9allocatorIS3_EEE20__throw_length_errorB7v160006Ev, symObjAddr: 0x11EBC, symBinAddr: 0x159C4, symSize: 0x1C }
  - { offsetInCU: 0x4F3F8, offset: 0x4F3F8, size: 0x8, addend: 0x0, symName: __ZNSt3__116allocator_traitsINS_9allocatorIN5Eigen6MatrixIdLi3ELi1ELi0ELi3ELi1EEEEEE8max_sizeB7v160006IS5_vEEmRKS5_, symObjAddr: 0x11ED8, symBinAddr: 0x159E0, symSize: 0x24 }
  - { offsetInCU: 0x4F426, offset: 0x4F426, size: 0x8, addend: 0x0, symName: __ZNKSt3__16vectorIN5Eigen6MatrixIdLi3ELi1ELi0ELi3ELi1EEENS_9allocatorIS3_EEE7__allocB7v160006Ev, symObjAddr: 0x11EFC, symBinAddr: 0x15A04, symSize: 0x28 }
  - { offsetInCU: 0x4F44C, offset: 0x4F44C, size: 0x8, addend: 0x0, symName: __ZNKSt3__19allocatorIN5Eigen6MatrixIdLi3ELi1ELi0ELi3ELi1EEEE8max_sizeB7v160006Ev, symObjAddr: 0x11F24, symBinAddr: 0x15A2C, symSize: 0x18 }
  - { offsetInCU: 0x4F472, offset: 0x4F472, size: 0x8, addend: 0x0, symName: __ZNKSt3__117__compressed_pairIPN5Eigen6MatrixIdLi3ELi1ELi0ELi3ELi1EEENS_9allocatorIS3_EEE6secondB7v160006Ev, symObjAddr: 0x11F3C, symBinAddr: 0x15A44, symSize: 0x24 }
  - { offsetInCU: 0x4F498, offset: 0x4F498, size: 0x8, addend: 0x0, symName: __ZNKSt3__122__compressed_pair_elemINS_9allocatorIN5Eigen6MatrixIdLi3ELi1ELi0ELi3ELi1EEEEELi1ELb1EE5__getB7v160006Ev, symObjAddr: 0x11F60, symBinAddr: 0x15A68, symSize: 0x14 }
  - { offsetInCU: 0x4F4BE, offset: 0x4F4BE, size: 0x8, addend: 0x0, symName: __ZNSt3__114__split_bufferIN5Eigen6MatrixIdLi3ELi1ELi0ELi3ELi1EEERNS_9allocatorIS3_EEEC2EmmS6_, symObjAddr: 0x11F74, symBinAddr: 0x15A7C, symSize: 0xE0 }
  - { offsetInCU: 0x4F531, offset: 0x4F531, size: 0x8, addend: 0x0, symName: __ZNSt3__117__compressed_pairIPN5Eigen6MatrixIdLi3ELi1ELi0ELi3ELi1EEERNS_9allocatorIS3_EEEC1B7v160006IDnS7_EEOT_OT0_, symObjAddr: 0x12054, symBinAddr: 0x15B5C, symSize: 0x3C }
  - { offsetInCU: 0x4F589, offset: 0x4F589, size: 0x8, addend: 0x0, symName: __ZNSt3__114__split_bufferIN5Eigen6MatrixIdLi3ELi1ELi0ELi3ELi1EEERNS_9allocatorIS3_EEE7__allocB7v160006Ev, symObjAddr: 0x120D0, symBinAddr: 0x15BD8, symSize: 0x28 }
  - { offsetInCU: 0x4F5AF, offset: 0x4F5AF, size: 0x8, addend: 0x0, symName: __ZNSt3__114__split_bufferIN5Eigen6MatrixIdLi3ELi1ELi0ELi3ELi1EEERNS_9allocatorIS3_EEE9__end_capB7v160006Ev, symObjAddr: 0x120F8, symBinAddr: 0x15C00, symSize: 0x28 }
  - { offsetInCU: 0x4F5D5, offset: 0x4F5D5, size: 0x8, addend: 0x0, symName: __ZNSt3__117__compressed_pairIPN5Eigen6MatrixIdLi3ELi1ELi0ELi3ELi1EEERNS_9allocatorIS3_EEEC2B7v160006IDnS7_EEOT_OT0_, symObjAddr: 0x12120, symBinAddr: 0x15C28, symSize: 0x48 }
  - { offsetInCU: 0x4F62D, offset: 0x4F62D, size: 0x8, addend: 0x0, symName: __ZNSt3__122__compressed_pair_elemIRNS_9allocatorIN5Eigen6MatrixIdLi3ELi1ELi0ELi3ELi1EEEEELi1ELb0EEC2B7v160006IS6_vEEOT_, symObjAddr: 0x12168, symBinAddr: 0x15C70, symSize: 0x20 }
  - { offsetInCU: 0x4F66F, offset: 0x4F66F, size: 0x8, addend: 0x0, symName: __ZNSt3__19allocatorIN5Eigen6MatrixIdLi3ELi1ELi0ELi3ELi1EEEE8allocateB7v160006Em, symObjAddr: 0x12188, symBinAddr: 0x15C90, symSize: 0x5C }
  - { offsetInCU: 0x4F6A3, offset: 0x4F6A3, size: 0x8, addend: 0x0, symName: __ZNSt3__117__compressed_pairIPN5Eigen6MatrixIdLi3ELi1ELi0ELi3ELi1EEERNS_9allocatorIS3_EEE6secondB7v160006Ev, symObjAddr: 0x121E4, symBinAddr: 0x15CEC, symSize: 0x28 }
  - { offsetInCU: 0x4F6C9, offset: 0x4F6C9, size: 0x8, addend: 0x0, symName: __ZNSt3__122__compressed_pair_elemIRNS_9allocatorIN5Eigen6MatrixIdLi3ELi1ELi0ELi3ELi1EEEEELi1ELb0EE5__getB7v160006Ev, symObjAddr: 0x1220C, symBinAddr: 0x15D14, symSize: 0x18 }
  - { offsetInCU: 0x4F6EF, offset: 0x4F6EF, size: 0x8, addend: 0x0, symName: __ZNSt3__117__compressed_pairIPN5Eigen6MatrixIdLi3ELi1ELi0ELi3ELi1EEERNS_9allocatorIS3_EEE5firstB7v160006Ev, symObjAddr: 0x12224, symBinAddr: 0x15D2C, symSize: 0x24 }
  - { offsetInCU: 0x4F715, offset: 0x4F715, size: 0x8, addend: 0x0, symName: __ZNSt3__116reverse_iteratorIPN5Eigen6MatrixIdLi3ELi1ELi0ELi3ELi1EEEEC1B7v160006ES4_, symObjAddr: 0x12374, symBinAddr: 0x15E7C, symSize: 0x34 }
  - { offsetInCU: 0x4F74D, offset: 0x4F74D, size: 0x8, addend: 0x0, symName: __ZNKSt3__116reverse_iteratorIPN5Eigen6MatrixIdLi3ELi1ELi0ELi3ELi1EEEE4baseB7v160006Ev, symObjAddr: 0x123A8, symBinAddr: 0x15EB0, symSize: 0x18 }
  - { offsetInCU: 0x4F773, offset: 0x4F773, size: 0x8, addend: 0x0, symName: __ZNKSt3__16vectorIN5Eigen6MatrixIdLi3ELi1ELi0ELi3ELi1EEENS_9allocatorIS3_EEE14__annotate_newB7v160006Em, symObjAddr: 0x123FC, symBinAddr: 0x15F04, symSize: 0xC8 }
  - { offsetInCU: 0x4F7A8, offset: 0x4F7A8, size: 0x8, addend: 0x0, symName: __ZNSt3__129_AllocatorDestroyRangeReverseINS_9allocatorIN5Eigen6MatrixIdLi3ELi1ELi0ELi3ELi1EEEEENS_16reverse_iteratorIPS4_EEEC1B7v160006ERS5_RS8_SB_, symObjAddr: 0x12520, symBinAddr: 0x16028, symSize: 0x44 }
  - { offsetInCU: 0x4F7FF, offset: 0x4F7FF, size: 0x8, addend: 0x0, symName: __ZNSt3__116allocator_traitsINS_9allocatorIN5Eigen6MatrixIdLi3ELi1ELi0ELi3ELi1EEEEEE9constructB7v160006IS4_JS4_EvEEvRS5_PT_DpOT0_, symObjAddr: 0x125AC, symBinAddr: 0x160B4, symSize: 0x34 }
  - { offsetInCU: 0x4F856, offset: 0x4F856, size: 0x8, addend: 0x0, symName: __ZNKSt3__116reverse_iteratorIPN5Eigen6MatrixIdLi3ELi1ELi0ELi3ELi1EEEEdeB7v160006Ev, symObjAddr: 0x12604, symBinAddr: 0x1610C, symSize: 0x28 }
  - { offsetInCU: 0x4F88A, offset: 0x4F88A, size: 0x8, addend: 0x0, symName: __ZNSt3__116reverse_iteratorIPN5Eigen6MatrixIdLi3ELi1ELi0ELi3ELi1EEEEppB7v160006Ev, symObjAddr: 0x1262C, symBinAddr: 0x16134, symSize: 0x20 }
  - { offsetInCU: 0x4F8B0, offset: 0x4F8B0, size: 0x8, addend: 0x0, symName: __ZNSt3__128__exception_guard_exceptionsINS_29_AllocatorDestroyRangeReverseINS_9allocatorIN5Eigen6MatrixIdLi3ELi1ELi0ELi3ELi1EEEEENS_16reverse_iteratorIPS5_EEEEE10__completeB7v160006Ev, symObjAddr: 0x1264C, symBinAddr: 0x16154, symSize: 0x1C }
  - { offsetInCU: 0x4F8D6, offset: 0x4F8D6, size: 0x8, addend: 0x0, symName: __ZNSt3__128__exception_guard_exceptionsINS_29_AllocatorDestroyRangeReverseINS_9allocatorIN5Eigen6MatrixIdLi3ELi1ELi0ELi3ELi1EEEEENS_16reverse_iteratorIPS5_EEEEED1B7v160006Ev, symObjAddr: 0x12668, symBinAddr: 0x16170, symSize: 0x2C }
  - { offsetInCU: 0x4F900, offset: 0x4F900, size: 0x8, addend: 0x0, symName: __ZNSt3__128__exception_guard_exceptionsINS_29_AllocatorDestroyRangeReverseINS_9allocatorIN5Eigen6MatrixIdLi3ELi1ELi0ELi3ELi1EEEEENS_16reverse_iteratorIPS5_EEEEEC1B7v160006ESA_, symObjAddr: 0x12694, symBinAddr: 0x1619C, symSize: 0x34 }
  - { offsetInCU: 0x4F939, offset: 0x4F939, size: 0x8, addend: 0x0, symName: __ZNSt3__128__exception_guard_exceptionsINS_29_AllocatorDestroyRangeReverseINS_9allocatorIN5Eigen6MatrixIdLi3ELi1ELi0ELi3ELi1EEEEENS_16reverse_iteratorIPS5_EEEEEC2B7v160006ESA_, symObjAddr: 0x126C8, symBinAddr: 0x161D0, symSize: 0x30 }
  - { offsetInCU: 0x4F972, offset: 0x4F972, size: 0x8, addend: 0x0, symName: __ZNSt3__129_AllocatorDestroyRangeReverseINS_9allocatorIN5Eigen6MatrixIdLi3ELi1ELi0ELi3ELi1EEEEENS_16reverse_iteratorIPS4_EEEC2B7v160006ERS5_RS8_SB_, symObjAddr: 0x126F8, symBinAddr: 0x16200, symSize: 0x38 }
  - { offsetInCU: 0x4F9C9, offset: 0x4F9C9, size: 0x8, addend: 0x0, symName: __ZNSt3__19allocatorIN5Eigen6MatrixIdLi3ELi1ELi0ELi3ELi1EEEE9constructB7v160006IS3_JS3_EEEvPT_DpOT0_, symObjAddr: 0x12730, symBinAddr: 0x16238, symSize: 0x30 }
  - { offsetInCU: 0x4FA1F, offset: 0x4FA1F, size: 0x8, addend: 0x0, symName: __ZN5Eigen6MatrixIdLi3ELi1ELi0ELi3ELi1EEC1EOS1_, symObjAddr: 0x12760, symBinAddr: 0x16268, symSize: 0x34 }
  - { offsetInCU: 0x4FA58, offset: 0x4FA58, size: 0x8, addend: 0x0, symName: __ZN5Eigen6MatrixIdLi3ELi1ELi0ELi3ELi1EEC2EOS1_, symObjAddr: 0x12794, symBinAddr: 0x1629C, symSize: 0x38 }
  - { offsetInCU: 0x4FA91, offset: 0x4FA91, size: 0x8, addend: 0x0, symName: __ZN5Eigen15PlainObjectBaseINS_6MatrixIdLi3ELi1ELi0ELi3ELi1EEEEC2EOS3_, symObjAddr: 0x127CC, symBinAddr: 0x162D4, symSize: 0x4C }
  - { offsetInCU: 0x4FACF, offset: 0x4FACF, size: 0x8, addend: 0x0, symName: __ZNSt3__119__to_address_helperINS_16reverse_iteratorIPN5Eigen6MatrixIdLi3ELi1ELi0ELi3ELi1EEEEEvE6__callB7v160006ERKS6_, symObjAddr: 0x12818, symBinAddr: 0x16320, symSize: 0x38 }
  - { offsetInCU: 0x4FAF2, offset: 0x4FAF2, size: 0x8, addend: 0x0, symName: __ZNKSt3__116reverse_iteratorIPN5Eigen6MatrixIdLi3ELi1ELi0ELi3ELi1EEEEptB7v160006Ev, symObjAddr: 0x12850, symBinAddr: 0x16358, symSize: 0x24 }
  - { offsetInCU: 0x4FB18, offset: 0x4FB18, size: 0x8, addend: 0x0, symName: __ZNSt3__128__exception_guard_exceptionsINS_29_AllocatorDestroyRangeReverseINS_9allocatorIN5Eigen6MatrixIdLi3ELi1ELi0ELi3ELi1EEEEENS_16reverse_iteratorIPS5_EEEEED2B7v160006Ev, symObjAddr: 0x12874, symBinAddr: 0x1637C, symSize: 0x50 }
  - { offsetInCU: 0x4FB42, offset: 0x4FB42, size: 0x8, addend: 0x0, symName: __ZNKSt3__129_AllocatorDestroyRangeReverseINS_9allocatorIN5Eigen6MatrixIdLi3ELi1ELi0ELi3ELi1EEEEENS_16reverse_iteratorIPS4_EEEclB7v160006Ev, symObjAddr: 0x128C4, symBinAddr: 0x163CC, symSize: 0xB4 }
  - { offsetInCU: 0x4FB69, offset: 0x4FB69, size: 0x8, addend: 0x0, symName: __ZNSt3__116reverse_iteratorINS0_IPN5Eigen6MatrixIdLi3ELi1ELi0ELi3ELi1EEEEEEC1B7v160006ES5_, symObjAddr: 0x129E8, symBinAddr: 0x164F0, symSize: 0x3C }
  - { offsetInCU: 0x4FBA1, offset: 0x4FBA1, size: 0x8, addend: 0x0, symName: __ZNSt3__116reverse_iteratorINS0_IPN5Eigen6MatrixIdLi3ELi1ELi0ELi3ELi1EEEEEEppB7v160006Ev, symObjAddr: 0x12AA8, symBinAddr: 0x165B0, symSize: 0x30 }
  - { offsetInCU: 0x4FBC7, offset: 0x4FBC7, size: 0x8, addend: 0x0, symName: __ZNKSt3__116reverse_iteratorINS0_IPN5Eigen6MatrixIdLi3ELi1ELi0ELi3ELi1EEEEEE4baseB7v160006Ev, symObjAddr: 0x12AD8, symBinAddr: 0x165E0, symSize: 0x24 }
  - { offsetInCU: 0x4FBF2, offset: 0x4FBF2, size: 0x8, addend: 0x0, symName: __ZNSt3__119__to_address_helperINS_16reverse_iteratorINS1_IPN5Eigen6MatrixIdLi3ELi1ELi0ELi3ELi1EEEEEEEvE6__callB7v160006ERKS7_, symObjAddr: 0x12AFC, symBinAddr: 0x16604, symSize: 0x38 }
  - { offsetInCU: 0x4FC15, offset: 0x4FC15, size: 0x8, addend: 0x0, symName: __ZNKSt3__116reverse_iteratorINS0_IPN5Eigen6MatrixIdLi3ELi1ELi0ELi3ELi1EEEEEEptB7v160006Ev, symObjAddr: 0x12B34, symBinAddr: 0x1663C, symSize: 0x24 }
  - { offsetInCU: 0x4FC3B, offset: 0x4FC3B, size: 0x8, addend: 0x0, symName: __ZNKSt3__116reverse_iteratorINS0_IPN5Eigen6MatrixIdLi3ELi1ELi0ELi3ELi1EEEEEEdeB7v160006Ev, symObjAddr: 0x12B58, symBinAddr: 0x16660, symSize: 0x34 }
  - { offsetInCU: 0x4FC6F, offset: 0x4FC6F, size: 0x8, addend: 0x0, symName: __ZNSt3__116reverse_iteratorIPN5Eigen6MatrixIdLi3ELi1ELi0ELi3ELi1EEEEmmB7v160006Ev, symObjAddr: 0x12B8C, symBinAddr: 0x16694, symSize: 0x20 }
  - { offsetInCU: 0x4FC95, offset: 0x4FC95, size: 0x8, addend: 0x0, symName: __ZNSt3__116reverse_iteratorINS0_IPN5Eigen6MatrixIdLi3ELi1ELi0ELi3ELi1EEEEEEC2B7v160006ES5_, symObjAddr: 0x12BAC, symBinAddr: 0x166B4, symSize: 0x2C }
  - { offsetInCU: 0x4FCCD, offset: 0x4FCCD, size: 0x8, addend: 0x0, symName: __ZNSt3__116reverse_iteratorIPN5Eigen6MatrixIdLi3ELi1ELi0ELi3ELi1EEEEC2B7v160006ES4_, symObjAddr: 0x12BD8, symBinAddr: 0x166E0, symSize: 0x28 }
  - { offsetInCU: 0x4FD05, offset: 0x4FD05, size: 0x8, addend: 0x0, symName: __ZNSt3__114__split_bufferIN5Eigen6MatrixIdLi3ELi1ELi0ELi3ELi1EEERNS_9allocatorIS3_EEED2Ev, symObjAddr: 0x12C00, symBinAddr: 0x16708, symSize: 0x8C }
  - { offsetInCU: 0x4FD31, offset: 0x4FD31, size: 0x8, addend: 0x0, symName: __ZNSt3__114__split_bufferIN5Eigen6MatrixIdLi3ELi1ELi0ELi3ELi1EEERNS_9allocatorIS3_EEE5clearB7v160006Ev, symObjAddr: 0x12C8C, symBinAddr: 0x16794, symSize: 0x28 }
  - { offsetInCU: 0x4FD57, offset: 0x4FD57, size: 0x8, addend: 0x0, symName: __ZNKSt3__114__split_bufferIN5Eigen6MatrixIdLi3ELi1ELi0ELi3ELi1EEERNS_9allocatorIS3_EEE8capacityB7v160006Ev, symObjAddr: 0x12CB4, symBinAddr: 0x167BC, symSize: 0x40 }
  - { offsetInCU: 0x4FD7D, offset: 0x4FD7D, size: 0x8, addend: 0x0, symName: __ZNSt3__114__split_bufferIN5Eigen6MatrixIdLi3ELi1ELi0ELi3ELi1EEERNS_9allocatorIS3_EEE17__destruct_at_endB7v160006EPS3_, symObjAddr: 0x12CF4, symBinAddr: 0x167FC, symSize: 0x2C }
  - { offsetInCU: 0x4FDB1, offset: 0x4FDB1, size: 0x8, addend: 0x0, symName: __ZNSt3__114__split_bufferIN5Eigen6MatrixIdLi3ELi1ELi0ELi3ELi1EEERNS_9allocatorIS3_EEE17__destruct_at_endB7v160006EPS3_NS_17integral_constantIbLb0EEE, symObjAddr: 0x12D20, symBinAddr: 0x16828, symSize: 0x80 }
  - { offsetInCU: 0x4FDF2, offset: 0x4FDF2, size: 0x8, addend: 0x0, symName: __ZNKSt3__114__split_bufferIN5Eigen6MatrixIdLi3ELi1ELi0ELi3ELi1EEERNS_9allocatorIS3_EEE9__end_capB7v160006Ev, symObjAddr: 0x12DA0, symBinAddr: 0x168A8, symSize: 0x28 }
  - { offsetInCU: 0x4FE18, offset: 0x4FE18, size: 0x8, addend: 0x0, symName: __ZNKSt3__117__compressed_pairIPN5Eigen6MatrixIdLi3ELi1ELi0ELi3ELi1EEERNS_9allocatorIS3_EEE5firstB7v160006Ev, symObjAddr: 0x12DC8, symBinAddr: 0x168D0, symSize: 0x24 }
  - { offsetInCU: 0x4FE3E, offset: 0x4FE3E, size: 0x8, addend: 0x0, symName: __ZNSt3__16vectorINS0_IN5Eigen6MatrixIdLi3ELi1ELi0ELi3ELi1EEENS_9allocatorIS3_EEEENS4_IS6_EEE9__end_capB7v160006Ev, symObjAddr: 0x12DEC, symBinAddr: 0x168F4, symSize: 0x28 }
  - { offsetInCU: 0x4FE64, offset: 0x4FE64, size: 0x8, addend: 0x0, symName: __ZNSt3__16vectorINS0_IN5Eigen6MatrixIdLi3ELi1ELi0ELi3ELi1EEENS_9allocatorIS3_EEEENS4_IS6_EEE22__construct_one_at_endB7v160006IJRKS6_EEEvDpOT_, symObjAddr: 0x12E14, symBinAddr: 0x1691C, symSize: 0x90 }
  - { offsetInCU: 0x4FEB3, offset: 0x4FEB3, size: 0x8, addend: 0x0, symName: __ZNSt3__16vectorINS0_IN5Eigen6MatrixIdLi3ELi1ELi0ELi3ELi1EEENS_9allocatorIS3_EEEENS4_IS6_EEE21__push_back_slow_pathIRKS6_EEvOT_, symObjAddr: 0x12EA4, symBinAddr: 0x169AC, symSize: 0xD8 }
  - { offsetInCU: 0x4FF11, offset: 0x4FF11, size: 0x8, addend: 0x0, symName: __ZNSt3__117__compressed_pairIPNS_6vectorIN5Eigen6MatrixIdLi3ELi1ELi0ELi3ELi1EEENS_9allocatorIS4_EEEENS5_IS7_EEE5firstB7v160006Ev, symObjAddr: 0x12F7C, symBinAddr: 0x16A84, symSize: 0x24 }
  - { offsetInCU: 0x4FF37, offset: 0x4FF37, size: 0x8, addend: 0x0, symName: __ZNSt3__122__compressed_pair_elemIPNS_6vectorIN5Eigen6MatrixIdLi3ELi1ELi0ELi3ELi1EEENS_9allocatorIS4_EEEELi0ELb0EE5__getB7v160006Ev, symObjAddr: 0x12FA0, symBinAddr: 0x16AA8, symSize: 0x14 }
  - { offsetInCU: 0x4FF76, offset: 0x4FF76, size: 0x8, addend: 0x0, symName: __ZNSt3__16vectorINS0_IN5Eigen6MatrixIdLi3ELi1ELi0ELi3ELi1EEENS_9allocatorIS3_EEEENS4_IS6_EEE21_ConstructTransactionC1B7v160006ERS8_m, symObjAddr: 0x12FB4, symBinAddr: 0x16ABC, symSize: 0x3C }
  - { offsetInCU: 0x4FFBE, offset: 0x4FFBE, size: 0x8, addend: 0x0, symName: __ZNSt3__116allocator_traitsINS_9allocatorINS_6vectorIN5Eigen6MatrixIdLi3ELi1ELi0ELi3ELi1EEENS1_IS5_EEEEEEE9constructB7v160006IS7_JRKS7_EvEEvRS8_PT_DpOT0_, symObjAddr: 0x12FF0, symBinAddr: 0x16AF8, symSize: 0x34 }
  - { offsetInCU: 0x50015, offset: 0x50015, size: 0x8, addend: 0x0, symName: __ZNSt3__16vectorINS0_IN5Eigen6MatrixIdLi3ELi1ELi0ELi3ELi1EEENS_9allocatorIS3_EEEENS4_IS6_EEE21_ConstructTransactionD1B7v160006Ev, symObjAddr: 0x13024, symBinAddr: 0x16B2C, symSize: 0x2C }
  - { offsetInCU: 0x5003F, offset: 0x5003F, size: 0x8, addend: 0x0, symName: __ZNSt3__16vectorINS0_IN5Eigen6MatrixIdLi3ELi1ELi0ELi3ELi1EEENS_9allocatorIS3_EEEENS4_IS6_EEE21_ConstructTransactionC2B7v160006ERS8_m, symObjAddr: 0x13050, symBinAddr: 0x16B58, symSize: 0x4C }
  - { offsetInCU: 0x50087, offset: 0x50087, size: 0x8, addend: 0x0, symName: __ZNSt3__19allocatorINS_6vectorIN5Eigen6MatrixIdLi3ELi1ELi0ELi3ELi1EEENS0_IS4_EEEEE9constructB7v160006IS6_JRKS6_EEEvPT_DpOT0_, symObjAddr: 0x1309C, symBinAddr: 0x16BA4, symSize: 0x30 }
  - { offsetInCU: 0x500DD, offset: 0x500DD, size: 0x8, addend: 0x0, symName: __ZNSt3__16vectorIN5Eigen6MatrixIdLi3ELi1ELi0ELi3ELi1EEENS_9allocatorIS3_EEEC1ERKS6_, symObjAddr: 0x130CC, symBinAddr: 0x16BD4, symSize: 0x34 }
  - { offsetInCU: 0x50118, offset: 0x50118, size: 0x8, addend: 0x0, symName: __ZNSt3__16vectorIN5Eigen6MatrixIdLi3ELi1ELi0ELi3ELi1EEENS_9allocatorIS3_EEEC2ERKS6_, symObjAddr: 0x13100, symBinAddr: 0x16C08, symSize: 0x110 }
  - { offsetInCU: 0x50177, offset: 0x50177, size: 0x8, addend: 0x0, symName: __ZNSt3__116allocator_traitsINS_9allocatorIN5Eigen6MatrixIdLi3ELi1ELi0ELi3ELi1EEEEEE37select_on_container_copy_constructionB7v160006IS5_vvEES5_RKS5_, symObjAddr: 0x13210, symBinAddr: 0x16D18, symSize: 0x10 }
  - { offsetInCU: 0x501AC, offset: 0x501AC, size: 0x8, addend: 0x0, symName: __ZNSt3__117__compressed_pairIPN5Eigen6MatrixIdLi3ELi1ELi0ELi3ELi1EEENS_9allocatorIS3_EEEC1B7v160006IDnS6_EEOT_OT0_, symObjAddr: 0x13220, symBinAddr: 0x16D28, symSize: 0x3C }
  - { offsetInCU: 0x50204, offset: 0x50204, size: 0x8, addend: 0x0, symName: __ZNSt3__16vectorIN5Eigen6MatrixIdLi3ELi1ELi0ELi3ELi1EEENS_9allocatorIS3_EEE11__vallocateB7v160006Em, symObjAddr: 0x1329C, symBinAddr: 0x16DA4, symSize: 0xB4 }
  - { offsetInCU: 0x50248, offset: 0x50248, size: 0x8, addend: 0x0, symName: __ZNSt3__16vectorIN5Eigen6MatrixIdLi3ELi1ELi0ELi3ELi1EEENS_9allocatorIS3_EEE18__construct_at_endIPS3_Li0EEEvT_S9_m, symObjAddr: 0x13350, symBinAddr: 0x16E58, symSize: 0x8C }
  - { offsetInCU: 0x502BB, offset: 0x502BB, size: 0x8, addend: 0x0, symName: __ZNSt3__128__exception_guard_exceptionsINS_6vectorIN5Eigen6MatrixIdLi3ELi1ELi0ELi3ELi1EEENS_9allocatorIS4_EEE16__destroy_vectorEE10__completeB7v160006Ev, symObjAddr: 0x133DC, symBinAddr: 0x16EE4, symSize: 0x1C }
  - { offsetInCU: 0x502E1, offset: 0x502E1, size: 0x8, addend: 0x0, symName: __ZNSt3__128__exception_guard_exceptionsINS_6vectorIN5Eigen6MatrixIdLi3ELi1ELi0ELi3ELi1EEENS_9allocatorIS4_EEE16__destroy_vectorEED1B7v160006Ev, symObjAddr: 0x133F8, symBinAddr: 0x16F00, symSize: 0x2C }
  - { offsetInCU: 0x5030B, offset: 0x5030B, size: 0x8, addend: 0x0, symName: __ZNSt3__117__compressed_pairIPN5Eigen6MatrixIdLi3ELi1ELi0ELi3ELi1EEENS_9allocatorIS3_EEEC2B7v160006IDnS6_EEOT_OT0_, symObjAddr: 0x13424, symBinAddr: 0x16F2C, symSize: 0x44 }
  - { offsetInCU: 0x50363, offset: 0x50363, size: 0x8, addend: 0x0, symName: __ZNSt3__122__compressed_pair_elemINS_9allocatorIN5Eigen6MatrixIdLi3ELi1ELi0ELi3ELi1EEEEELi1ELb1EEC2B7v160006IS5_vEEOT_, symObjAddr: 0x13468, symBinAddr: 0x16F70, symSize: 0x18 }
  - { offsetInCU: 0x503A5, offset: 0x503A5, size: 0x8, addend: 0x0, symName: __ZNSt3__128__exception_guard_exceptionsINS_6vectorIN5Eigen6MatrixIdLi3ELi1ELi0ELi3ELi1EEENS_9allocatorIS4_EEE16__destroy_vectorEEC1B7v160006ES8_, symObjAddr: 0x13480, symBinAddr: 0x16F88, symSize: 0x34 }
  - { offsetInCU: 0x503DD, offset: 0x503DD, size: 0x8, addend: 0x0, symName: __ZNSt3__128__exception_guard_exceptionsINS_6vectorIN5Eigen6MatrixIdLi3ELi1ELi0ELi3ELi1EEENS_9allocatorIS4_EEE16__destroy_vectorEEC2B7v160006ES8_, symObjAddr: 0x134B4, symBinAddr: 0x16FBC, symSize: 0x24 }
  - { offsetInCU: 0x50415, offset: 0x50415, size: 0x8, addend: 0x0, symName: __ZNSt3__129_AllocatorDestroyRangeReverseINS_9allocatorIN5Eigen6MatrixIdLi3ELi1ELi0ELi3ELi1EEEEEPS4_EC1B7v160006ERS5_RS6_S9_, symObjAddr: 0x13618, symBinAddr: 0x17120, symSize: 0x44 }
  - { offsetInCU: 0x5046C, offset: 0x5046C, size: 0x8, addend: 0x0, symName: __ZNSt3__116allocator_traitsINS_9allocatorIN5Eigen6MatrixIdLi3ELi1ELi0ELi3ELi1EEEEEE9constructB7v160006IS4_JRS4_EvEEvRS5_PT_DpOT0_, symObjAddr: 0x1365C, symBinAddr: 0x17164, symSize: 0x34 }
  - { offsetInCU: 0x504C3, offset: 0x504C3, size: 0x8, addend: 0x0, symName: __ZNSt3__128__exception_guard_exceptionsINS_29_AllocatorDestroyRangeReverseINS_9allocatorIN5Eigen6MatrixIdLi3ELi1ELi0ELi3ELi1EEEEEPS5_EEE10__completeB7v160006Ev, symObjAddr: 0x13690, symBinAddr: 0x17198, symSize: 0x1C }
  - { offsetInCU: 0x504E9, offset: 0x504E9, size: 0x8, addend: 0x0, symName: __ZNSt3__128__exception_guard_exceptionsINS_29_AllocatorDestroyRangeReverseINS_9allocatorIN5Eigen6MatrixIdLi3ELi1ELi0ELi3ELi1EEEEEPS5_EEED1B7v160006Ev, symObjAddr: 0x136AC, symBinAddr: 0x171B4, symSize: 0x2C }
  - { offsetInCU: 0x50513, offset: 0x50513, size: 0x8, addend: 0x0, symName: __ZNSt3__128__exception_guard_exceptionsINS_29_AllocatorDestroyRangeReverseINS_9allocatorIN5Eigen6MatrixIdLi3ELi1ELi0ELi3ELi1EEEEEPS5_EEEC1B7v160006ES8_, symObjAddr: 0x136D8, symBinAddr: 0x171E0, symSize: 0x34 }
  - { offsetInCU: 0x5054C, offset: 0x5054C, size: 0x8, addend: 0x0, symName: __ZNSt3__128__exception_guard_exceptionsINS_29_AllocatorDestroyRangeReverseINS_9allocatorIN5Eigen6MatrixIdLi3ELi1ELi0ELi3ELi1EEEEEPS5_EEEC2B7v160006ES8_, symObjAddr: 0x1370C, symBinAddr: 0x17214, symSize: 0x30 }
  - { offsetInCU: 0x50585, offset: 0x50585, size: 0x8, addend: 0x0, symName: __ZNSt3__129_AllocatorDestroyRangeReverseINS_9allocatorIN5Eigen6MatrixIdLi3ELi1ELi0ELi3ELi1EEEEEPS4_EC2B7v160006ERS5_RS6_S9_, symObjAddr: 0x1373C, symBinAddr: 0x17244, symSize: 0x38 }
  - { offsetInCU: 0x505DC, offset: 0x505DC, size: 0x8, addend: 0x0, symName: __ZNSt3__19allocatorIN5Eigen6MatrixIdLi3ELi1ELi0ELi3ELi1EEEE9constructB7v160006IS3_JRS3_EEEvPT_DpOT0_, symObjAddr: 0x13774, symBinAddr: 0x1727C, symSize: 0x30 }
  - { offsetInCU: 0x50632, offset: 0x50632, size: 0x8, addend: 0x0, symName: __ZNSt3__128__exception_guard_exceptionsINS_29_AllocatorDestroyRangeReverseINS_9allocatorIN5Eigen6MatrixIdLi3ELi1ELi0ELi3ELi1EEEEEPS5_EEED2B7v160006Ev, symObjAddr: 0x137A4, symBinAddr: 0x172AC, symSize: 0x50 }
  - { offsetInCU: 0x5065C, offset: 0x5065C, size: 0x8, addend: 0x0, symName: __ZNKSt3__129_AllocatorDestroyRangeReverseINS_9allocatorIN5Eigen6MatrixIdLi3ELi1ELi0ELi3ELi1EEEEEPS4_EclB7v160006Ev, symObjAddr: 0x137F4, symBinAddr: 0x172FC, symSize: 0x68 }
  - { offsetInCU: 0x50682, offset: 0x50682, size: 0x8, addend: 0x0, symName: __ZNSt3__128__exception_guard_exceptionsINS_6vectorIN5Eigen6MatrixIdLi3ELi1ELi0ELi3ELi1EEENS_9allocatorIS4_EEE16__destroy_vectorEED2B7v160006Ev, symObjAddr: 0x138CC, symBinAddr: 0x173D4, symSize: 0x50 }
  - { offsetInCU: 0x506AC, offset: 0x506AC, size: 0x8, addend: 0x0, symName: __ZNSt3__16vectorINS0_IN5Eigen6MatrixIdLi3ELi1ELi0ELi3ELi1EEENS_9allocatorIS3_EEEENS4_IS6_EEE21_ConstructTransactionD2B7v160006Ev, symObjAddr: 0x1391C, symBinAddr: 0x17424, symSize: 0x20 }
  - { offsetInCU: 0x506D6, offset: 0x506D6, size: 0x8, addend: 0x0, symName: __ZNKSt3__16vectorINS0_IN5Eigen6MatrixIdLi3ELi1ELi0ELi3ELi1EEENS_9allocatorIS3_EEEENS4_IS6_EEE11__recommendB7v160006Em, symObjAddr: 0x1393C, symBinAddr: 0x17444, symSize: 0xB4 }
  - { offsetInCU: 0x5072B, offset: 0x5072B, size: 0x8, addend: 0x0, symName: __ZNSt3__114__split_bufferINS_6vectorIN5Eigen6MatrixIdLi3ELi1ELi0ELi3ELi1EEENS_9allocatorIS4_EEEERNS5_IS7_EEEC1EmmS9_, symObjAddr: 0x139F0, symBinAddr: 0x174F8, symSize: 0x44 }
  - { offsetInCU: 0x50781, offset: 0x50781, size: 0x8, addend: 0x0, symName: __ZNSt3__114__split_bufferINS_6vectorIN5Eigen6MatrixIdLi3ELi1ELi0ELi3ELi1EEENS_9allocatorIS4_EEEERNS5_IS7_EEED1Ev, symObjAddr: 0x13B4C, symBinAddr: 0x17654, symSize: 0x2C }
  - { offsetInCU: 0x507AD, offset: 0x507AD, size: 0x8, addend: 0x0, symName: __ZNKSt3__16vectorINS0_IN5Eigen6MatrixIdLi3ELi1ELi0ELi3ELi1EEENS_9allocatorIS3_EEEENS4_IS6_EEE8max_sizeEv, symObjAddr: 0x13B78, symBinAddr: 0x17680, symSize: 0x60 }
  - { offsetInCU: 0x507D5, offset: 0x507D5, size: 0x8, addend: 0x0, symName: __ZNKSt3__16vectorINS0_IN5Eigen6MatrixIdLi3ELi1ELi0ELi3ELi1EEENS_9allocatorIS3_EEEENS4_IS6_EEE20__throw_length_errorB7v160006Ev, symObjAddr: 0x13BD8, symBinAddr: 0x176E0, symSize: 0x1C }
  - { offsetInCU: 0x50805, offset: 0x50805, size: 0x8, addend: 0x0, symName: __ZNSt3__116allocator_traitsINS_9allocatorINS_6vectorIN5Eigen6MatrixIdLi3ELi1ELi0ELi3ELi1EEENS1_IS5_EEEEEEE8max_sizeB7v160006IS8_vEEmRKS8_, symObjAddr: 0x13BF4, symBinAddr: 0x176FC, symSize: 0x24 }
  - { offsetInCU: 0x50833, offset: 0x50833, size: 0x8, addend: 0x0, symName: __ZNKSt3__16vectorINS0_IN5Eigen6MatrixIdLi3ELi1ELi0ELi3ELi1EEENS_9allocatorIS3_EEEENS4_IS6_EEE7__allocB7v160006Ev, symObjAddr: 0x13C18, symBinAddr: 0x17720, symSize: 0x28 }
  - { offsetInCU: 0x50859, offset: 0x50859, size: 0x8, addend: 0x0, symName: __ZNKSt3__19allocatorINS_6vectorIN5Eigen6MatrixIdLi3ELi1ELi0ELi3ELi1EEENS0_IS4_EEEEE8max_sizeB7v160006Ev, symObjAddr: 0x13C40, symBinAddr: 0x17748, symSize: 0x18 }
  - { offsetInCU: 0x5087F, offset: 0x5087F, size: 0x8, addend: 0x0, symName: __ZNKSt3__117__compressed_pairIPNS_6vectorIN5Eigen6MatrixIdLi3ELi1ELi0ELi3ELi1EEENS_9allocatorIS4_EEEENS5_IS7_EEE6secondB7v160006Ev, symObjAddr: 0x13C58, symBinAddr: 0x17760, symSize: 0x24 }
  - { offsetInCU: 0x508A5, offset: 0x508A5, size: 0x8, addend: 0x0, symName: __ZNKSt3__122__compressed_pair_elemINS_9allocatorINS_6vectorIN5Eigen6MatrixIdLi3ELi1ELi0ELi3ELi1EEENS1_IS5_EEEEEELi1ELb1EE5__getB7v160006Ev, symObjAddr: 0x13C7C, symBinAddr: 0x17784, symSize: 0x14 }
  - { offsetInCU: 0x508CB, offset: 0x508CB, size: 0x8, addend: 0x0, symName: __ZNSt3__114__split_bufferINS_6vectorIN5Eigen6MatrixIdLi3ELi1ELi0ELi3ELi1EEENS_9allocatorIS4_EEEERNS5_IS7_EEEC2EmmS9_, symObjAddr: 0x13C90, symBinAddr: 0x17798, symSize: 0xE0 }
  - { offsetInCU: 0x5093E, offset: 0x5093E, size: 0x8, addend: 0x0, symName: __ZNSt3__117__compressed_pairIPNS_6vectorIN5Eigen6MatrixIdLi3ELi1ELi0ELi3ELi1EEENS_9allocatorIS4_EEEERNS5_IS7_EEEC1B7v160006IDnSA_EEOT_OT0_, symObjAddr: 0x13D70, symBinAddr: 0x17878, symSize: 0x3C }
  - { offsetInCU: 0x50996, offset: 0x50996, size: 0x8, addend: 0x0, symName: __ZNSt3__114__split_bufferINS_6vectorIN5Eigen6MatrixIdLi3ELi1ELi0ELi3ELi1EEENS_9allocatorIS4_EEEERNS5_IS7_EEE7__allocB7v160006Ev, symObjAddr: 0x13DEC, symBinAddr: 0x178F4, symSize: 0x28 }
  - { offsetInCU: 0x509BC, offset: 0x509BC, size: 0x8, addend: 0x0, symName: __ZNSt3__114__split_bufferINS_6vectorIN5Eigen6MatrixIdLi3ELi1ELi0ELi3ELi1EEENS_9allocatorIS4_EEEERNS5_IS7_EEE9__end_capB7v160006Ev, symObjAddr: 0x13E14, symBinAddr: 0x1791C, symSize: 0x28 }
  - { offsetInCU: 0x509E2, offset: 0x509E2, size: 0x8, addend: 0x0, symName: __ZNSt3__117__compressed_pairIPNS_6vectorIN5Eigen6MatrixIdLi3ELi1ELi0ELi3ELi1EEENS_9allocatorIS4_EEEERNS5_IS7_EEEC2B7v160006IDnSA_EEOT_OT0_, symObjAddr: 0x13E3C, symBinAddr: 0x17944, symSize: 0x48 }
  - { offsetInCU: 0x50A3A, offset: 0x50A3A, size: 0x8, addend: 0x0, symName: __ZNSt3__122__compressed_pair_elemIRNS_9allocatorINS_6vectorIN5Eigen6MatrixIdLi3ELi1ELi0ELi3ELi1EEENS1_IS5_EEEEEELi1ELb0EEC2B7v160006IS9_vEEOT_, symObjAddr: 0x13E84, symBinAddr: 0x1798C, symSize: 0x20 }
  - { offsetInCU: 0x50A7C, offset: 0x50A7C, size: 0x8, addend: 0x0, symName: __ZNSt3__19allocatorINS_6vectorIN5Eigen6MatrixIdLi3ELi1ELi0ELi3ELi1EEENS0_IS4_EEEEE8allocateB7v160006Em, symObjAddr: 0x13EA4, symBinAddr: 0x179AC, symSize: 0x5C }
  - { offsetInCU: 0x50AB0, offset: 0x50AB0, size: 0x8, addend: 0x0, symName: __ZNSt3__117__compressed_pairIPNS_6vectorIN5Eigen6MatrixIdLi3ELi1ELi0ELi3ELi1EEENS_9allocatorIS4_EEEERNS5_IS7_EEE6secondB7v160006Ev, symObjAddr: 0x13F00, symBinAddr: 0x17A08, symSize: 0x28 }
  - { offsetInCU: 0x50AD6, offset: 0x50AD6, size: 0x8, addend: 0x0, symName: __ZNSt3__122__compressed_pair_elemIRNS_9allocatorINS_6vectorIN5Eigen6MatrixIdLi3ELi1ELi0ELi3ELi1EEENS1_IS5_EEEEEELi1ELb0EE5__getB7v160006Ev, symObjAddr: 0x13F28, symBinAddr: 0x17A30, symSize: 0x18 }
  - { offsetInCU: 0x50AFC, offset: 0x50AFC, size: 0x8, addend: 0x0, symName: __ZNSt3__117__compressed_pairIPNS_6vectorIN5Eigen6MatrixIdLi3ELi1ELi0ELi3ELi1EEENS_9allocatorIS4_EEEERNS5_IS7_EEE5firstB7v160006Ev, symObjAddr: 0x13F40, symBinAddr: 0x17A48, symSize: 0x24 }
  - { offsetInCU: 0x50B22, offset: 0x50B22, size: 0x8, addend: 0x0, symName: __ZNSt3__116reverse_iteratorIPNS_6vectorIN5Eigen6MatrixIdLi3ELi1ELi0ELi3ELi1EEENS_9allocatorIS4_EEEEEC1B7v160006ES8_, symObjAddr: 0x14090, symBinAddr: 0x17B98, symSize: 0x34 }
  - { offsetInCU: 0x50B5A, offset: 0x50B5A, size: 0x8, addend: 0x0, symName: __ZNKSt3__116reverse_iteratorIPNS_6vectorIN5Eigen6MatrixIdLi3ELi1ELi0ELi3ELi1EEENS_9allocatorIS4_EEEEE4baseB7v160006Ev, symObjAddr: 0x140C4, symBinAddr: 0x17BCC, symSize: 0x18 }
  - { offsetInCU: 0x50B80, offset: 0x50B80, size: 0x8, addend: 0x0, symName: __ZNKSt3__16vectorINS0_IN5Eigen6MatrixIdLi3ELi1ELi0ELi3ELi1EEENS_9allocatorIS3_EEEENS4_IS6_EEE14__annotate_newB7v160006Em, symObjAddr: 0x14118, symBinAddr: 0x17C20, symSize: 0xC8 }
  - { offsetInCU: 0x50BB5, offset: 0x50BB5, size: 0x8, addend: 0x0, symName: __ZNSt3__129_AllocatorDestroyRangeReverseINS_9allocatorINS_6vectorIN5Eigen6MatrixIdLi3ELi1ELi0ELi3ELi1EEENS1_IS5_EEEEEENS_16reverse_iteratorIPS7_EEEC1B7v160006ERS8_RSB_SE_, symObjAddr: 0x1422C, symBinAddr: 0x17D34, symSize: 0x44 }
  - { offsetInCU: 0x50C0C, offset: 0x50C0C, size: 0x8, addend: 0x0, symName: __ZNSt3__116allocator_traitsINS_9allocatorINS_6vectorIN5Eigen6MatrixIdLi3ELi1ELi0ELi3ELi1EEENS1_IS5_EEEEEEE9constructB7v160006IS7_JS7_EvEEvRS8_PT_DpOT0_, symObjAddr: 0x142B8, symBinAddr: 0x17DC0, symSize: 0x34 }
  - { offsetInCU: 0x50C63, offset: 0x50C63, size: 0x8, addend: 0x0, symName: __ZNKSt3__116reverse_iteratorIPNS_6vectorIN5Eigen6MatrixIdLi3ELi1ELi0ELi3ELi1EEENS_9allocatorIS4_EEEEEdeB7v160006Ev, symObjAddr: 0x14310, symBinAddr: 0x17E18, symSize: 0x28 }
  - { offsetInCU: 0x50C97, offset: 0x50C97, size: 0x8, addend: 0x0, symName: __ZNSt3__116reverse_iteratorIPNS_6vectorIN5Eigen6MatrixIdLi3ELi1ELi0ELi3ELi1EEENS_9allocatorIS4_EEEEEppB7v160006Ev, symObjAddr: 0x14338, symBinAddr: 0x17E40, symSize: 0x20 }
  - { offsetInCU: 0x50CBD, offset: 0x50CBD, size: 0x8, addend: 0x0, symName: __ZNSt3__128__exception_guard_exceptionsINS_29_AllocatorDestroyRangeReverseINS_9allocatorINS_6vectorIN5Eigen6MatrixIdLi3ELi1ELi0ELi3ELi1EEENS2_IS6_EEEEEENS_16reverse_iteratorIPS8_EEEEE10__completeB7v160006Ev, symObjAddr: 0x14358, symBinAddr: 0x17E60, symSize: 0x1C }
  - { offsetInCU: 0x50CE3, offset: 0x50CE3, size: 0x8, addend: 0x0, symName: __ZNSt3__128__exception_guard_exceptionsINS_29_AllocatorDestroyRangeReverseINS_9allocatorINS_6vectorIN5Eigen6MatrixIdLi3ELi1ELi0ELi3ELi1EEENS2_IS6_EEEEEENS_16reverse_iteratorIPS8_EEEEED1B7v160006Ev, symObjAddr: 0x14374, symBinAddr: 0x17E7C, symSize: 0x2C }
  - { offsetInCU: 0x50D0D, offset: 0x50D0D, size: 0x8, addend: 0x0, symName: __ZNSt3__128__exception_guard_exceptionsINS_29_AllocatorDestroyRangeReverseINS_9allocatorINS_6vectorIN5Eigen6MatrixIdLi3ELi1ELi0ELi3ELi1EEENS2_IS6_EEEEEENS_16reverse_iteratorIPS8_EEEEEC1B7v160006ESD_, symObjAddr: 0x143A0, symBinAddr: 0x17EA8, symSize: 0x34 }
  - { offsetInCU: 0x50D46, offset: 0x50D46, size: 0x8, addend: 0x0, symName: __ZNSt3__128__exception_guard_exceptionsINS_29_AllocatorDestroyRangeReverseINS_9allocatorINS_6vectorIN5Eigen6MatrixIdLi3ELi1ELi0ELi3ELi1EEENS2_IS6_EEEEEENS_16reverse_iteratorIPS8_EEEEEC2B7v160006ESD_, symObjAddr: 0x143D4, symBinAddr: 0x17EDC, symSize: 0x30 }
  - { offsetInCU: 0x50D7F, offset: 0x50D7F, size: 0x8, addend: 0x0, symName: __ZNSt3__129_AllocatorDestroyRangeReverseINS_9allocatorINS_6vectorIN5Eigen6MatrixIdLi3ELi1ELi0ELi3ELi1EEENS1_IS5_EEEEEENS_16reverse_iteratorIPS7_EEEC2B7v160006ERS8_RSB_SE_, symObjAddr: 0x14404, symBinAddr: 0x17F0C, symSize: 0x38 }
  - { offsetInCU: 0x50DD6, offset: 0x50DD6, size: 0x8, addend: 0x0, symName: __ZNSt3__19allocatorINS_6vectorIN5Eigen6MatrixIdLi3ELi1ELi0ELi3ELi1EEENS0_IS4_EEEEE9constructB7v160006IS6_JS6_EEEvPT_DpOT0_, symObjAddr: 0x1443C, symBinAddr: 0x17F44, symSize: 0x30 }
  - { offsetInCU: 0x50E2C, offset: 0x50E2C, size: 0x8, addend: 0x0, symName: __ZNSt3__16vectorIN5Eigen6MatrixIdLi3ELi1ELi0ELi3ELi1EEENS_9allocatorIS3_EEEC1B7v160006EOS6_, symObjAddr: 0x1446C, symBinAddr: 0x17F74, symSize: 0x34 }
  - { offsetInCU: 0x50E67, offset: 0x50E67, size: 0x8, addend: 0x0, symName: __ZNSt3__16vectorIN5Eigen6MatrixIdLi3ELi1ELi0ELi3ELi1EEENS_9allocatorIS3_EEEC2B7v160006EOS6_, symObjAddr: 0x144A0, symBinAddr: 0x17FA8, symSize: 0xDC }
  - { offsetInCU: 0x50EA7, offset: 0x50EA7, size: 0x8, addend: 0x0, symName: __ZNSt3__119__to_address_helperINS_16reverse_iteratorIPNS_6vectorIN5Eigen6MatrixIdLi3ELi1ELi0ELi3ELi1EEENS_9allocatorIS5_EEEEEEvE6__callB7v160006ERKSA_, symObjAddr: 0x14590, symBinAddr: 0x18098, symSize: 0x38 }
  - { offsetInCU: 0x50ECA, offset: 0x50ECA, size: 0x8, addend: 0x0, symName: __ZNKSt3__116reverse_iteratorIPNS_6vectorIN5Eigen6MatrixIdLi3ELi1ELi0ELi3ELi1EEENS_9allocatorIS4_EEEEEptB7v160006Ev, symObjAddr: 0x145C8, symBinAddr: 0x180D0, symSize: 0x24 }
  - { offsetInCU: 0x50EF0, offset: 0x50EF0, size: 0x8, addend: 0x0, symName: __ZNSt3__128__exception_guard_exceptionsINS_29_AllocatorDestroyRangeReverseINS_9allocatorINS_6vectorIN5Eigen6MatrixIdLi3ELi1ELi0ELi3ELi1EEENS2_IS6_EEEEEENS_16reverse_iteratorIPS8_EEEEED2B7v160006Ev, symObjAddr: 0x145EC, symBinAddr: 0x180F4, symSize: 0x50 }
  - { offsetInCU: 0x50F1A, offset: 0x50F1A, size: 0x8, addend: 0x0, symName: __ZNKSt3__129_AllocatorDestroyRangeReverseINS_9allocatorINS_6vectorIN5Eigen6MatrixIdLi3ELi1ELi0ELi3ELi1EEENS1_IS5_EEEEEENS_16reverse_iteratorIPS7_EEEclB7v160006Ev, symObjAddr: 0x1463C, symBinAddr: 0x18144, symSize: 0xB4 }
  - { offsetInCU: 0x50F41, offset: 0x50F41, size: 0x8, addend: 0x0, symName: __ZNSt3__116reverse_iteratorINS0_IPNS_6vectorIN5Eigen6MatrixIdLi3ELi1ELi0ELi3ELi1EEENS_9allocatorIS4_EEEEEEEC1B7v160006ES9_, symObjAddr: 0x14760, symBinAddr: 0x18268, symSize: 0x3C }
  - { offsetInCU: 0x50F79, offset: 0x50F79, size: 0x8, addend: 0x0, symName: __ZNSt3__116reverse_iteratorINS0_IPNS_6vectorIN5Eigen6MatrixIdLi3ELi1ELi0ELi3ELi1EEENS_9allocatorIS4_EEEEEEEppB7v160006Ev, symObjAddr: 0x14820, symBinAddr: 0x18328, symSize: 0x30 }
  - { offsetInCU: 0x50F9F, offset: 0x50F9F, size: 0x8, addend: 0x0, symName: __ZNKSt3__116reverse_iteratorINS0_IPNS_6vectorIN5Eigen6MatrixIdLi3ELi1ELi0ELi3ELi1EEENS_9allocatorIS4_EEEEEEE4baseB7v160006Ev, symObjAddr: 0x14850, symBinAddr: 0x18358, symSize: 0x24 }
  - { offsetInCU: 0x50FCA, offset: 0x50FCA, size: 0x8, addend: 0x0, symName: __ZNSt3__119__to_address_helperINS_16reverse_iteratorINS1_IPNS_6vectorIN5Eigen6MatrixIdLi3ELi1ELi0ELi3ELi1EEENS_9allocatorIS5_EEEEEEEEvE6__callB7v160006ERKSB_, symObjAddr: 0x14874, symBinAddr: 0x1837C, symSize: 0x38 }
  - { offsetInCU: 0x50FED, offset: 0x50FED, size: 0x8, addend: 0x0, symName: __ZNKSt3__116reverse_iteratorINS0_IPNS_6vectorIN5Eigen6MatrixIdLi3ELi1ELi0ELi3ELi1EEENS_9allocatorIS4_EEEEEEEptB7v160006Ev, symObjAddr: 0x148AC, symBinAddr: 0x183B4, symSize: 0x24 }
  - { offsetInCU: 0x51013, offset: 0x51013, size: 0x8, addend: 0x0, symName: __ZNKSt3__116reverse_iteratorINS0_IPNS_6vectorIN5Eigen6MatrixIdLi3ELi1ELi0ELi3ELi1EEENS_9allocatorIS4_EEEEEEEdeB7v160006Ev, symObjAddr: 0x148D0, symBinAddr: 0x183D8, symSize: 0x34 }
  - { offsetInCU: 0x51047, offset: 0x51047, size: 0x8, addend: 0x0, symName: __ZNSt3__116reverse_iteratorIPNS_6vectorIN5Eigen6MatrixIdLi3ELi1ELi0ELi3ELi1EEENS_9allocatorIS4_EEEEEmmB7v160006Ev, symObjAddr: 0x14904, symBinAddr: 0x1840C, symSize: 0x20 }
  - { offsetInCU: 0x5106D, offset: 0x5106D, size: 0x8, addend: 0x0, symName: __ZNSt3__116reverse_iteratorINS0_IPNS_6vectorIN5Eigen6MatrixIdLi3ELi1ELi0ELi3ELi1EEENS_9allocatorIS4_EEEEEEEC2B7v160006ES9_, symObjAddr: 0x14924, symBinAddr: 0x1842C, symSize: 0x2C }
  - { offsetInCU: 0x510A5, offset: 0x510A5, size: 0x8, addend: 0x0, symName: __ZNSt3__116reverse_iteratorIPNS_6vectorIN5Eigen6MatrixIdLi3ELi1ELi0ELi3ELi1EEENS_9allocatorIS4_EEEEEC2B7v160006ES8_, symObjAddr: 0x14950, symBinAddr: 0x18458, symSize: 0x28 }
  - { offsetInCU: 0x510DD, offset: 0x510DD, size: 0x8, addend: 0x0, symName: __ZNSt3__114__split_bufferINS_6vectorIN5Eigen6MatrixIdLi3ELi1ELi0ELi3ELi1EEENS_9allocatorIS4_EEEERNS5_IS7_EEED2Ev, symObjAddr: 0x14978, symBinAddr: 0x18480, symSize: 0x8C }
  - { offsetInCU: 0x51109, offset: 0x51109, size: 0x8, addend: 0x0, symName: __ZNSt3__114__split_bufferINS_6vectorIN5Eigen6MatrixIdLi3ELi1ELi0ELi3ELi1EEENS_9allocatorIS4_EEEERNS5_IS7_EEE5clearB7v160006Ev, symObjAddr: 0x14A04, symBinAddr: 0x1850C, symSize: 0x28 }
  - { offsetInCU: 0x5112F, offset: 0x5112F, size: 0x8, addend: 0x0, symName: __ZNKSt3__114__split_bufferINS_6vectorIN5Eigen6MatrixIdLi3ELi1ELi0ELi3ELi1EEENS_9allocatorIS4_EEEERNS5_IS7_EEE8capacityB7v160006Ev, symObjAddr: 0x14A2C, symBinAddr: 0x18534, symSize: 0x40 }
  - { offsetInCU: 0x51155, offset: 0x51155, size: 0x8, addend: 0x0, symName: __ZNSt3__114__split_bufferINS_6vectorIN5Eigen6MatrixIdLi3ELi1ELi0ELi3ELi1EEENS_9allocatorIS4_EEEERNS5_IS7_EEE17__destruct_at_endB7v160006EPS7_, symObjAddr: 0x14A6C, symBinAddr: 0x18574, symSize: 0x2C }
  - { offsetInCU: 0x51189, offset: 0x51189, size: 0x8, addend: 0x0, symName: __ZNSt3__114__split_bufferINS_6vectorIN5Eigen6MatrixIdLi3ELi1ELi0ELi3ELi1EEENS_9allocatorIS4_EEEERNS5_IS7_EEE17__destruct_at_endB7v160006EPS7_NS_17integral_constantIbLb0EEE, symObjAddr: 0x14A98, symBinAddr: 0x185A0, symSize: 0x80 }
  - { offsetInCU: 0x511CA, offset: 0x511CA, size: 0x8, addend: 0x0, symName: __ZNKSt3__114__split_bufferINS_6vectorIN5Eigen6MatrixIdLi3ELi1ELi0ELi3ELi1EEENS_9allocatorIS4_EEEERNS5_IS7_EEE9__end_capB7v160006Ev, symObjAddr: 0x14B18, symBinAddr: 0x18620, symSize: 0x28 }
  - { offsetInCU: 0x511F0, offset: 0x511F0, size: 0x8, addend: 0x0, symName: __ZNKSt3__117__compressed_pairIPNS_6vectorIN5Eigen6MatrixIdLi3ELi1ELi0ELi3ELi1EEENS_9allocatorIS4_EEEERNS5_IS7_EEE5firstB7v160006Ev, symObjAddr: 0x14B40, symBinAddr: 0x18648, symSize: 0x24 }
  - { offsetInCU: 0x44, offset: 0x5189E, size: 0x8, addend: 0x0, symName: __ZN5EigenL4lastE, symObjAddr: 0x29A938, symBinAddr: 0x74838, symSize: 0x0 }
  - { offsetInCU: 0x193, offset: 0x519ED, size: 0x8, addend: 0x0, symName: __ZN5EigenL6lastp1E, symObjAddr: 0x29A939, symBinAddr: 0x74839, symSize: 0x0 }
  - { offsetInCU: 0x1AC, offset: 0x51A06, size: 0x8, addend: 0x0, symName: __ZN5EigenL3allE, symObjAddr: 0x29A93C, symBinAddr: 0x7483C, symSize: 0x0 }
  - { offsetInCU: 0x1C5, offset: 0x51A1F, size: 0x8, addend: 0x0, symName: __ZN5EigenL3fixILi1EEE, symObjAddr: 0x29A93B, symBinAddr: 0x7483B, symSize: 0x0 }
  - { offsetInCU: 0x271CE, offset: 0x78A28, size: 0x8, addend: 0x0, symName: __ZNSt3__1L19piecewise_constructE, symObjAddr: 0x519E9, symBinAddr: 0x6A1B2, symSize: 0x0 }
  - { offsetInCU: 0x2F999, offset: 0x811F3, size: 0x8, addend: 0x0, symName: __ZNSt3__114__copy_alignedB7v160006INS_6vectorIbNS_9allocatorIbEEEELb0EEENS_14__bit_iteratorIT_Lb0EXLi0EEEENS5_IS6_XT0_EXLi0EEEES8_S7_, symObjAddr: 0x22180, symBinAddr: 0x39A64, symSize: 0x278 }
  - { offsetInCU: 0x2FAC7, offset: 0x81321, size: 0x8, addend: 0x0, symName: __ZNSt3__16copy_nB7v160006IPmmS1_EENS_9enable_ifIXsr33__is_cpp17_random_access_iteratorIT_EE5valueET1_E4typeES3_T0_S4_, symObjAddr: 0x22964, symBinAddr: 0x3A248, symSize: 0x44 }
  - { offsetInCU: 0x2FB6E, offset: 0x813C8, size: 0x8, addend: 0x0, symName: __ZNSt3__116__copy_unalignedB7v160006INS_6vectorIbNS_9allocatorIbEEEELb0EEENS_14__bit_iteratorIT_Lb0EXLi0EEEENS5_IS6_XT0_EXLi0EEEES8_S7_, symObjAddr: 0x223F8, symBinAddr: 0x39CDC, symSize: 0x540 }
  - { offsetInCU: 0x2FCEC, offset: 0x81546, size: 0x8, addend: 0x0, symName: __ZNSt3__114__copy_alignedB7v160006INS_6vectorIbNS_9allocatorIbEEEELb1EEENS_14__bit_iteratorIT_Lb0EXLi0EEEENS5_IS6_XT0_EXLi0EEEES8_S7_, symObjAddr: 0x242FC, symBinAddr: 0x3BBE0, symSize: 0x268 }
  - { offsetInCU: 0x2FE18, offset: 0x81672, size: 0x8, addend: 0x0, symName: __ZNSt3__16copy_nB7v160006IPKmmPmEENS_9enable_ifIXsr33__is_cpp17_random_access_iteratorIT_EE5valueET1_E4typeES5_T0_S6_, symObjAddr: 0x24ACC, symBinAddr: 0x3C3B0, symSize: 0x44 }
  - { offsetInCU: 0x2FEBF, offset: 0x81719, size: 0x8, addend: 0x0, symName: __ZNSt3__116__copy_unalignedB7v160006INS_6vectorIbNS_9allocatorIbEEEELb1EEENS_14__bit_iteratorIT_Lb0EXLi0EEEENS5_IS6_XT0_EXLi0EEEES8_S7_, symObjAddr: 0x24564, symBinAddr: 0x3BE48, symSize: 0x520 }
  - { offsetInCU: 0x3003F, offset: 0x81899, size: 0x8, addend: 0x0, symName: __ZNSt3__113__fill_n_trueB7v160006INS_6vectorIbNS_9allocatorIbEEEEEEvNS_14__bit_iteratorIT_Lb0EXLi0EEEENS6_9size_typeE, symObjAddr: 0x25188, symBinAddr: 0x3CA6C, symSize: 0x160 }
  - { offsetInCU: 0x30104, offset: 0x8195E, size: 0x8, addend: 0x0, symName: __ZNSt3__114__fill_n_falseB7v160006INS_6vectorIbNS_9allocatorIbEEEEEEvNS_14__bit_iteratorIT_Lb0EXLi0EEEENS6_9size_typeE, symObjAddr: 0x252E8, symBinAddr: 0x3CBCC, symSize: 0x15C }
  - { offsetInCU: 0x36E0B, offset: 0x88665, size: 0x8, addend: 0x0, symName: __ZNSt3__17advanceB7v160006IPKPN8pybind116detail9type_infoEmmvEEvRT_T0_, symObjAddr: 0x3E28C, symBinAddr: 0x55B70, symSize: 0x50 }
  - { offsetInCU: 0x37A29, offset: 0x89283, size: 0x8, addend: 0x0, symName: __ZNSt3__16copy_nB7v160006IPKcmPcEENS_9enable_ifIXsr33__is_cpp17_random_access_iteratorIT_EE5valueET1_E4typeES5_T0_S6_, symObjAddr: 0x4B968, symBinAddr: 0x629A0, symSize: 0x44 }
  - { offsetInCU: 0x391B7, offset: 0x8AA11, size: 0x8, addend: 0x0, symName: __ZNSt3__1plB7v160006IcNS_11char_traitsIcEENS_9allocatorIcEEEENS_12basic_stringIT_T0_T1_EEOS9_PKS6_, symObjAddr: 0x2DAC, symBinAddr: 0x1B3C8, symSize: 0x40 }
  - { offsetInCU: 0x3920F, offset: 0x8AA69, size: 0x8, addend: 0x0, symName: __ZNSt3__1plB7v160006IcNS_11char_traitsIcEENS_9allocatorIcEEEENS_12basic_stringIT_T0_T1_EEPKS6_OS9_, symObjAddr: 0x2DEC, symBinAddr: 0x1B408, symSize: 0x44 }
  - { offsetInCU: 0x39267, offset: 0x8AAC1, size: 0x8, addend: 0x0, symName: __ZNSt3__1neB7v160006IcNS_11char_traitsIcEENS_9allocatorIcEEEEbPKT_RKNS_12basic_stringIS5_T0_T1_EE, symObjAddr: 0x2EEC, symBinAddr: 0x1B4D4, symSize: 0x34 }
  - { offsetInCU: 0x392BF, offset: 0x8AB19, size: 0x8, addend: 0x0, symName: __ZNSt3__115__debug_db_swapB7v160006INS_12basic_stringIcNS_11char_traitsIcEENS_9allocatorIcEEEEEEvPT_S8_, symObjAddr: 0x3890, symBinAddr: 0x1BCC0, symSize: 0x14 }
  - { offsetInCU: 0x392FE, offset: 0x8AB58, size: 0x8, addend: 0x0, symName: __ZNSt3__1eqB7v160006IcNS_11char_traitsIcEENS_9allocatorIcEEEEbPKT_RKNS_12basic_stringIS5_T0_T1_EE, symObjAddr: 0x39F4, symBinAddr: 0x1BD34, symSize: 0xAC }
  - { offsetInCU: 0x39365, offset: 0x8ABBF, size: 0x8, addend: 0x0, symName: __ZNSt3__1plB7v160006IcNS_11char_traitsIcEENS_9allocatorIcEEEENS_12basic_stringIT_T0_T1_EEOS9_SA_, symObjAddr: 0x4AF8, symBinAddr: 0x1CB08, symSize: 0x40 }
  - { offsetInCU: 0x3A042, offset: 0x8B89C, size: 0x8, addend: 0x0, symName: __ZNSt3__134__libcpp_atomic_refcount_decrementB7v160006IlEET_RS1_, symObjAddr: 0x6C84, symBinAddr: 0x1E8F4, symSize: 0x30 }
  - { offsetInCU: 0x3A350, offset: 0x8BBAA, size: 0x8, addend: 0x0, symName: __ZNSt3__1plB7v160006IcNS_11char_traitsIcEENS_9allocatorIcEEEENS_12basic_stringIT_T0_T1_EEOS9_RKS9_, symObjAddr: 0x7830, symBinAddr: 0x1F4A0, symSize: 0x40 }
  - { offsetInCU: 0x3A912, offset: 0x8C16C, size: 0x8, addend: 0x0, symName: __ZNSt3__119__debug_db_insert_cB7v160006INS_13unordered_mapINS_10type_indexEPN8pybind116detail9type_infoENS4_9type_hashENS4_13type_equal_toENS_9allocatorINS_4pairIKS2_S6_EEEEEEEEvPT_, symObjAddr: 0x9874, symBinAddr: 0x21400, symSize: 0x10 }
  - { offsetInCU: 0x3A943, offset: 0x8C19D, size: 0x8, addend: 0x0, symName: __ZNSt3__119__debug_db_insert_cB7v160006INS_13unordered_mapIP11_typeobjectNS_6vectorIPN8pybind116detail9type_infoENS_9allocatorIS8_EEEENS_4hashIS3_EENS_8equal_toIS3_EENS9_INS_4pairIKS3_SB_EEEEEEEEvPT_, symObjAddr: 0x9EE0, symBinAddr: 0x21A6C, symSize: 0x10 }
  - { offsetInCU: 0x3A974, offset: 0x8C1CE, size: 0x8, addend: 0x0, symName: __ZNSt3__119__debug_db_insert_cB7v160006INS_18unordered_multimapIPKvPN8pybind116detail8instanceENS_4hashIS3_EENS_8equal_toIS3_EENS_9allocatorINS_4pairIKS3_S7_EEEEEEEEvPT_, symObjAddr: 0xA504, symBinAddr: 0x22090, symSize: 0x10 }
  - { offsetInCU: 0x3A9A5, offset: 0x8C1FF, size: 0x8, addend: 0x0, symName: __ZNSt3__119__debug_db_insert_cB7v160006INS_13unordered_setINS_4pairIPK7_objectPKcEEN8pybind116detail13override_hashENS_8equal_toIS8_EENS_9allocatorIS8_EEEEEEvPT_, symObjAddr: 0xAB28, symBinAddr: 0x226B4, symSize: 0x10 }
  - { offsetInCU: 0x3A9D6, offset: 0x8C230, size: 0x8, addend: 0x0, symName: __ZNSt3__119__debug_db_insert_cB7v160006INS_13unordered_mapINS_10type_indexENS_6vectorIPFbP7_objectRPvENS_9allocatorIS9_EEEEN8pybind116detail9type_hashENSE_13type_equal_toENSA_INS_4pairIKS2_SC_EEEEEEEEvPT_, symObjAddr: 0xB0F4, symBinAddr: 0x22C80, symSize: 0x10 }
  - { offsetInCU: 0x3AA07, offset: 0x8C261, size: 0x8, addend: 0x0, symName: __ZNSt3__119__debug_db_insert_cB7v160006INS_13unordered_mapIPK7_objectNS_6vectorIPS2_NS_9allocatorIS6_EEEENS_4hashIS4_EENS_8equal_toIS4_EENS7_INS_4pairIKS4_S9_EEEEEEEEvPT_, symObjAddr: 0xB718, symBinAddr: 0x232A4, symSize: 0x10 }
  - { offsetInCU: 0x3AA38, offset: 0x8C292, size: 0x8, addend: 0x0, symName: __ZNSt3__119__debug_db_insert_cB7v160006INS_13unordered_mapINS_12basic_stringIcNS_11char_traitsIcEENS_9allocatorIcEEEEPvNS_4hashIS7_EENS_8equal_toIS7_EENS5_INS_4pairIKS7_S8_EEEEEEEEvPT_, symObjAddr: 0xBF04, symBinAddr: 0x23A90, symSize: 0x10 }
  - { offsetInCU: 0x3AA69, offset: 0x8C2C3, size: 0x8, addend: 0x0, symName: __ZNSt3__119__debug_db_insert_cB7v160006INS_6vectorIP7_objectNS_9allocatorIS3_EEEEEEvPT_, symObjAddr: 0xC554, symBinAddr: 0x240E0, symSize: 0x10 }
  - { offsetInCU: 0x3AAD2, offset: 0x8C32C, size: 0x8, addend: 0x0, symName: __ZNSt3__116forward_as_tupleB7v160006IJRKP11_typeobjectEEENS_5tupleIJDpOT_EEES8_, symObjAddr: 0xEA8C, symBinAddr: 0x26618, symSize: 0x2C }
  - { offsetInCU: 0x3AB0C, offset: 0x8C366, size: 0x8, addend: 0x0, symName: __ZNSt3__116forward_as_tupleB7v160006IJEEENS_5tupleIJDpOT_EEES4_, symObjAddr: 0xEAB8, symBinAddr: 0x26644, symSize: 0x4 }
  - { offsetInCU: 0x3AB30, offset: 0x8C38A, size: 0x8, addend: 0x0, symName: __ZNSt3__116__constrain_hashB7v160006Emm, symObjAddr: 0xEB70, symBinAddr: 0x266FC, symSize: 0x98 }
  - { offsetInCU: 0x3AB6B, offset: 0x8C3C5, size: 0x8, addend: 0x0, symName: __ZNSt3__116__is_hash_power2B7v160006Em, symObjAddr: 0xEEE0, symBinAddr: 0x26A40, symSize: 0x50 }
  - { offsetInCU: 0x3AB98, offset: 0x8C3F2, size: 0x8, addend: 0x0, symName: __ZNSt3__110__loadwordB7v160006ImEET_PKv, symObjAddr: 0xFB00, symBinAddr: 0x27660, symSize: 0x20 }
  - { offsetInCU: 0x3ABDC, offset: 0x8C436, size: 0x8, addend: 0x0, symName: __ZNSt3__14swapB7v160006ImEENS_9enable_ifIXaasr21is_move_constructibleIT_EE5valuesr18is_move_assignableIS2_EE5valueEvE4typeERS2_S5_, symObjAddr: 0xFCBC, symBinAddr: 0x2781C, symSize: 0x3C }
  - { offsetInCU: 0x3AC2E, offset: 0x8C488, size: 0x8, addend: 0x0, symName: __ZNSt3__110__loadwordB7v160006IjEET_PKv, symObjAddr: 0xFD4C, symBinAddr: 0x278AC, symSize: 0x20 }
  - { offsetInCU: 0x3AC72, offset: 0x8C4CC, size: 0x8, addend: 0x0, symName: __ZNSt3__17launderB7v160006IKNS_4pairIKP11_typeobjectNS_6vectorIPN8pybind116detail9type_infoENS_9allocatorIS9_EEEEEEEEPT_SG_, symObjAddr: 0x1003C, symBinAddr: 0x27B9C, symSize: 0x24 }
  - { offsetInCU: 0x3ACAA, offset: 0x8C504, size: 0x8, addend: 0x0, symName: __ZNSt3__19__launderB7v160006IKNS_4pairIKP11_typeobjectNS_6vectorIPN8pybind116detail9type_infoENS_9allocatorIS9_EEEEEEEEPT_SG_, symObjAddr: 0x10060, symBinAddr: 0x27BC0, symSize: 0x14 }
  - { offsetInCU: 0x3AD3D, offset: 0x8C597, size: 0x8, addend: 0x0, symName: __ZNSt3__13getB7v160006ILm0EJRKP11_typeobjectEEERNS_13tuple_elementIXT_ENS_5tupleIJDpT0_EEEE4typeERS9_, symObjAddr: 0x10518, symBinAddr: 0x28078, symSize: 0x24 }
  - { offsetInCU: 0x3AD80, offset: 0x8C5DA, size: 0x8, addend: 0x0, symName: __ZNSt3__119__debug_db_insert_cB7v160006INS_6vectorIPN8pybind116detail9type_infoENS_9allocatorIS5_EEEEEEvPT_, symObjAddr: 0x10614, symBinAddr: 0x28174, symSize: 0x10 }
  - { offsetInCU: 0x3ADB1, offset: 0x8C60B, size: 0x8, addend: 0x0, symName: __ZNSt3__17launderB7v160006INS_4pairIKP11_typeobjectNS_6vectorIPN8pybind116detail9type_infoENS_9allocatorIS9_EEEEEEEEPT_SF_, symObjAddr: 0x10710, symBinAddr: 0x28270, symSize: 0x24 }
  - { offsetInCU: 0x3ADE9, offset: 0x8C643, size: 0x8, addend: 0x0, symName: __ZNSt3__19__launderB7v160006INS_4pairIKP11_typeobjectNS_6vectorIPN8pybind116detail9type_infoENS_9allocatorIS9_EEEEEEEEPT_SF_, symObjAddr: 0x10734, symBinAddr: 0x28294, symSize: 0x14 }
  - { offsetInCU: 0x3AE1F, offset: 0x8C679, size: 0x8, addend: 0x0, symName: __ZNSt3__116__next_hash_pow2B7v160006Em, symObjAddr: 0x10C2C, symBinAddr: 0x2878C, symSize: 0x6C }
  - { offsetInCU: 0x3AE4B, offset: 0x8C6A5, size: 0x8, addend: 0x0, symName: __ZNSt3__125__debug_db_invalidate_allB7v160006INS_12__hash_tableINS_17__hash_value_typeIP11_typeobjectNS_6vectorIPN8pybind116detail9type_infoENS_9allocatorIS9_EEEEEENS_22__unordered_map_hasherIS4_SD_NS_4hashIS4_EENS_8equal_toIS4_EELb1EEENS_21__unordered_map_equalIS4_SD_SI_SG_Lb1EEENSA_ISD_EEEEEEvPT_, symObjAddr: 0x10C98, symBinAddr: 0x287F8, symSize: 0x10 }
  - { offsetInCU: 0x3AE7C, offset: 0x8C6D6, size: 0x8, addend: 0x0, symName: __ZNSt3__112__libcpp_clzB7v160006Em, symObjAddr: 0x10FE4, symBinAddr: 0x28B44, symSize: 0x1C }
  - { offsetInCU: 0x3AEA9, offset: 0x8C703, size: 0x8, addend: 0x0, symName: __ZNSt3__118__debug_db_erase_cB7v160006INS_6vectorIPN8pybind116detail9type_infoENS_9allocatorIS5_EEEEEEvPT_, symObjAddr: 0x1151C, symBinAddr: 0x28FF4, symSize: 0x10 }
  - { offsetInCU: 0x3AEDA, offset: 0x8C734, size: 0x8, addend: 0x0, symName: __ZNSt3__112__to_addressB7v160006IPN8pybind116detail9type_infoEEEPT_S6_, symObjAddr: 0x11660, symBinAddr: 0x29138, symSize: 0x14 }
  - { offsetInCU: 0x3AF35, offset: 0x8C78F, size: 0x8, addend: 0x0, symName: __ZNSt3__119__debug_db_insert_cB7v160006INS_6vectorIN8pybind116detail15argument_recordENS_9allocatorIS4_EEEEEEvPT_, symObjAddr: 0x13AC0, symBinAddr: 0x2B598, symSize: 0x10 }
  - { offsetInCU: 0x3AFA0, offset: 0x8C7FA, size: 0x8, addend: 0x0, symName: __ZNSt3__13getB7v160006ILm0EJN8pybind116detail11type_casterINS1_6handleEvEEEEERNS_13tuple_elementIXT_ENS_5tupleIJDpT0_EEEE4typeERSA_, symObjAddr: 0x14150, symBinAddr: 0x2BC28, symSize: 0x24 }
  - { offsetInCU: 0x3AFE3, offset: 0x8C83D, size: 0x8, addend: 0x0, symName: __ZNSt3__1neB7v160006ERKNS_21__hash_const_iteratorIPNS_11__hash_nodeINS_4pairIPK7_objectPKcEEPvEEEESE_, symObjAddr: 0x145C8, symBinAddr: 0x2C0A0, symSize: 0x34 }
  - { offsetInCU: 0x3B021, offset: 0x8C87B, size: 0x8, addend: 0x0, symName: __ZNSt3__1eqB7v160006ERKNS_15__hash_iteratorIPNS_11__hash_nodeINS_17__hash_value_typeIP11_typeobjectNS_6vectorIPN8pybind116detail9type_infoENS_9allocatorIS9_EEEEEEPvEEEESJ_, symObjAddr: 0x148E0, symBinAddr: 0x2C3B8, symSize: 0x30 }
  - { offsetInCU: 0x3B05E, offset: 0x8C8B8, size: 0x8, addend: 0x0, symName: __ZNSt3__1eqB7v160006ERKNS_21__hash_const_iteratorIPNS_11__hash_nodeINS_4pairIPK7_objectPKcEEPvEEEESE_, symObjAddr: 0x14DA8, symBinAddr: 0x2C880, symSize: 0x30 }
  - { offsetInCU: 0x3B11E, offset: 0x8C978, size: 0x8, addend: 0x0, symName: __ZNSt3__1neB7v160006IPN8pybind116detail15argument_recordEEEbRKNS_11__wrap_iterIT_EES9_, symObjAddr: 0x15858, symBinAddr: 0x2D330, symSize: 0x34 }
  - { offsetInCU: 0x3B161, offset: 0x8C9BB, size: 0x8, addend: 0x0, symName: __ZNSt3__119__debug_db_insert_cB7v160006INS_6vectorIPcNS_9allocatorIS2_EEEEEEvPT_, symObjAddr: 0x18418, symBinAddr: 0x2FEF0, symSize: 0x10 }
  - { offsetInCU: 0x3B192, offset: 0x8C9EC, size: 0x8, addend: 0x0, symName: __ZNSt3__112__to_addressB7v160006IPcEEPT_S3_, symObjAddr: 0x187BC, symBinAddr: 0x30294, symSize: 0x14 }
  - { offsetInCU: 0x3B1C8, offset: 0x8CA22, size: 0x8, addend: 0x0, symName: __ZNSt3__119__allocate_at_leastB7v160006INS_9allocatorIPcEEEENS_19__allocation_resultINS_16allocator_traitsIT_E7pointerEEERS6_m, symObjAddr: 0x18F68, symBinAddr: 0x308C0, symSize: 0x40 }
  - { offsetInCU: 0x3B20B, offset: 0x8CA65, size: 0x8, addend: 0x0, symName: __ZNSt3__142__uninitialized_allocator_move_if_noexceptB7v160006INS_9allocatorIPcEENS_16reverse_iteratorIPS2_EES6_S2_vEET1_RT_T0_SA_S7_, symObjAddr: 0x191D4, symBinAddr: 0x30B2C, symSize: 0x78 }
  - { offsetInCU: 0x3B288, offset: 0x8CAE2, size: 0x8, addend: 0x0, symName: __ZNSt3__14swapB7v160006IPPcEENS_9enable_ifIXaasr21is_move_constructibleIT_EE5valuesr18is_move_assignableIS4_EE5valueEvE4typeERS4_S7_, symObjAddr: 0x19298, symBinAddr: 0x30BF0, symSize: 0x3C }
  - { offsetInCU: 0x3B2DA, offset: 0x8CB34, size: 0x8, addend: 0x0, symName: __ZNSt3__125__debug_db_invalidate_allB7v160006INS_6vectorIPcNS_9allocatorIS2_EEEEEEvPT_, symObjAddr: 0x19380, symBinAddr: 0x30CD8, symSize: 0x10 }
  - { offsetInCU: 0x3B30B, offset: 0x8CB65, size: 0x8, addend: 0x0, symName: __ZNSt3__14moveB7v160006INS_16reverse_iteratorIPPcEES4_EET0_T_S6_S5_, symObjAddr: 0x193D8, symBinAddr: 0x30D30, symSize: 0x78 }
  - { offsetInCU: 0x3B365, offset: 0x8CBBF, size: 0x8, addend: 0x0, symName: __ZNSt3__16__moveB7v160006INS_17_ClassicAlgPolicyENS_16reverse_iteratorIPPcEES5_S5_EENS_4pairIT0_T2_EES7_T1_S8_, symObjAddr: 0x19450, symBinAddr: 0x30DA8, symSize: 0x64 }
  - { offsetInCU: 0x3B3D1, offset: 0x8CC2B, size: 0x8, addend: 0x0, symName: __ZNSt3__123__dispatch_copy_or_moveB7v160006INS_17_ClassicAlgPolicyENS_11__move_loopIS1_EENS_14__move_trivialENS_16reverse_iteratorIPPcEES8_S8_EENS_4pairIT2_T4_EESA_T3_SB_, symObjAddr: 0x194B4, symBinAddr: 0x30E0C, symSize: 0x64 }
  - { offsetInCU: 0x3B44F, offset: 0x8CCA9, size: 0x8, addend: 0x0, symName: __ZNSt3__121__unwrap_and_dispatchB7v160006INS_10__overloadINS_11__move_loopINS_17_ClassicAlgPolicyEEENS_14__move_trivialEEENS_16reverse_iteratorIPPcEESA_SA_Li0EEENS_4pairIT0_T2_EESC_T1_SD_, symObjAddr: 0x19518, symBinAddr: 0x30E70, symSize: 0x12C }
  - { offsetInCU: 0x3B4DF, offset: 0x8CD39, size: 0x8, addend: 0x0, symName: __ZNSt3__114__unwrap_rangeB7v160006INS_16reverse_iteratorIPPcEES4_EENS_4pairIT0_S6_EET_S8_, symObjAddr: 0x19644, symBinAddr: 0x30F9C, symSize: 0x84 }
  - { offsetInCU: 0x3B74D, offset: 0x8CFA7, size: 0x8, addend: 0x0, symName: __ZNSt3__113__unwrap_iterB7v160006INS_16reverse_iteratorIPPcEENS_18__unwrap_iter_implIS4_Lb0EEELi0EEEDTclsrT0_8__unwrapclsr3stdE7declvalIT_EEEES8_, symObjAddr: 0x19768, symBinAddr: 0x310C0, symSize: 0x44 }
  - { offsetInCU: 0x3B791, offset: 0x8CFEB, size: 0x8, addend: 0x0, symName: __ZNSt3__19make_pairB7v160006INS_16reverse_iteratorIPPcEES4_EENS_4pairINS_18__unwrap_ref_decayIT_E4typeENS6_IT0_E4typeEEEOS7_OSA_, symObjAddr: 0x197AC, symBinAddr: 0x31104, symSize: 0x38 }
  - { offsetInCU: 0x3B7E0, offset: 0x8D03A, size: 0x8, addend: 0x0, symName: __ZNSt3__114__rewrap_rangeB7v160006INS_16reverse_iteratorIPPcEES4_EET_S5_T0_, symObjAddr: 0x197E4, symBinAddr: 0x3113C, symSize: 0x5C }
  - { offsetInCU: 0x3B82C, offset: 0x8D086, size: 0x8, addend: 0x0, symName: __ZNSt3__113__rewrap_iterB7v160006INS_16reverse_iteratorIPPcEES4_NS_18__unwrap_iter_implIS4_Lb0EEEEET_S7_T0_, symObjAddr: 0x19840, symBinAddr: 0x31198, symSize: 0x74 }
  - { offsetInCU: 0x3B881, offset: 0x8D0DB, size: 0x8, addend: 0x0, symName: __ZNSt3__1neB7v160006IPPcS2_EEbRKNS_16reverse_iteratorIT_EERKNS3_IT0_EE, symObjAddr: 0x198B4, symBinAddr: 0x3120C, symSize: 0x48 }
  - { offsetInCU: 0x3BA6E, offset: 0x8D2C8, size: 0x8, addend: 0x0, symName: __ZNSt3__1eqB7v160006IPN8pybind116detail15argument_recordEEEbRKNS_11__wrap_iterIT_EES9_, symObjAddr: 0x19D8C, symBinAddr: 0x316E4, symSize: 0x48 }
  - { offsetInCU: 0x3BAB1, offset: 0x8D30B, size: 0x8, addend: 0x0, symName: __ZNSt3__1plB7v160006IcNS_11char_traitsIcEENS_9allocatorIcEEEENS_12basic_stringIT_T0_T1_EEOS9_S6_, symObjAddr: 0x1A2F8, symBinAddr: 0x31C50, symSize: 0x40 }
  - { offsetInCU: 0x3BB09, offset: 0x8D363, size: 0x8, addend: 0x0, symName: __ZNSt3__1neB7v160006ERKNS_19__hash_map_iteratorINS_15__hash_iteratorIPNS_11__hash_nodeINS_17__hash_value_typeINS_10type_indexEPN8pybind116detail9type_infoEEEPvEEEEEESG_, symObjAddr: 0x1A450, symBinAddr: 0x31DA8, symSize: 0x30 }
  - { offsetInCU: 0x3BB46, offset: 0x8D3A0, size: 0x8, addend: 0x0, symName: __ZNSt3__116forward_as_tupleB7v160006IJNS_12basic_stringIcNS_11char_traitsIcEENS_9allocatorIcEEEEEEENS_5tupleIJDpOT_EEESA_, symObjAddr: 0x1AC24, symBinAddr: 0x3257C, symSize: 0x2C }
  - { offsetInCU: 0x3BB7F, offset: 0x8D3D9, size: 0x8, addend: 0x0, symName: __ZNSt3__116__do_string_hashB7v160006IPKcEEmT_S3_, symObjAddr: 0x1B1E8, symBinAddr: 0x32B40, symSize: 0x3C }
  - { offsetInCU: 0x3BBC5, offset: 0x8D41F, size: 0x8, addend: 0x0, symName: __ZNSt3__1eqB7v160006INS_9allocatorIcEEEEbRKNS_12basic_stringIcNS_11char_traitsIcEET_EES9_, symObjAddr: 0x1B398, symBinAddr: 0x32CF0, symSize: 0x148 }
  - { offsetInCU: 0x3BC38, offset: 0x8D492, size: 0x8, addend: 0x0, symName: __ZNSt3__17launderB7v160006IKNS_4pairIKNS_12basic_stringIcNS_11char_traitsIcEENS_9allocatorIcEEEEPvEEEEPT_SD_, symObjAddr: 0x1B4E0, symBinAddr: 0x32E38, symSize: 0x24 }
  - { offsetInCU: 0x3BC70, offset: 0x8D4CA, size: 0x8, addend: 0x0, symName: __ZNSt3__19__launderB7v160006IKNS_4pairIKNS_12basic_stringIcNS_11char_traitsIcEENS_9allocatorIcEEEEPvEEEEPT_SD_, symObjAddr: 0x1B504, symBinAddr: 0x32E5C, symSize: 0x14 }
  - { offsetInCU: 0x3BCF7, offset: 0x8D551, size: 0x8, addend: 0x0, symName: __ZNSt3__13getB7v160006ILm0EJONS_12basic_stringIcNS_11char_traitsIcEENS_9allocatorIcEEEEEEERNS_13tuple_elementIXT_ENS_5tupleIJDpT0_EEEE4typeERSC_, symObjAddr: 0x1B9B8, symBinAddr: 0x33310, symSize: 0x24 }
  - { offsetInCU: 0x3BD3A, offset: 0x8D594, size: 0x8, addend: 0x0, symName: __ZNSt3__125__debug_db_invalidate_allB7v160006INS_12__hash_tableINS_17__hash_value_typeINS_12basic_stringIcNS_11char_traitsIcEENS_9allocatorIcEEEEPvEENS_22__unordered_map_hasherIS8_SA_NS_4hashIS8_EENS_8equal_toIS8_EELb1EEENS_21__unordered_map_equalIS8_SA_SF_SD_Lb1EEENS6_ISA_EEEEEEvPT_, symObjAddr: 0x1BEB0, symBinAddr: 0x33808, symSize: 0x10 }
  - { offsetInCU: 0x3BDB3, offset: 0x8D60D, size: 0x8, addend: 0x0, symName: __ZNSt3__17launderB7v160006INS_4pairIKNS_12basic_stringIcNS_11char_traitsIcEENS_9allocatorIcEEEEPvEEEEPT_SC_, symObjAddr: 0x1C618, symBinAddr: 0x33F70, symSize: 0x24 }
  - { offsetInCU: 0x3BDEB, offset: 0x8D645, size: 0x8, addend: 0x0, symName: __ZNSt3__19__launderB7v160006INS_4pairIKNS_12basic_stringIcNS_11char_traitsIcEENS_9allocatorIcEEEEPvEEEEPT_SC_, symObjAddr: 0x1C63C, symBinAddr: 0x33F94, symSize: 0x14 }
  - { offsetInCU: 0x3BE21, offset: 0x8D67B, size: 0x8, addend: 0x0, symName: __ZNSt3__118__debug_db_erase_cB7v160006INS_12__hash_tableINS_17__hash_value_typeINS_10type_indexEPN8pybind116detail9type_infoEEENS_22__unordered_map_hasherIS3_S8_NS5_9type_hashENS5_13type_equal_toELb1EEENS_21__unordered_map_equalIS3_S8_SB_SA_Lb1EEENS_9allocatorIS8_EEEEEEvPT_, symObjAddr: 0x1C950, symBinAddr: 0x342A8, symSize: 0x10 }
  - { offsetInCU: 0x3BE85, offset: 0x8D6DF, size: 0x8, addend: 0x0, symName: __ZNSt3__17launderB7v160006INS_4pairIKNS_10type_indexEPN8pybind116detail9type_infoEEEEEPT_SA_, symObjAddr: 0x1CAB4, symBinAddr: 0x3440C, symSize: 0x24 }
  - { offsetInCU: 0x3BEBD, offset: 0x8D717, size: 0x8, addend: 0x0, symName: __ZNSt3__19__launderB7v160006INS_4pairIKNS_10type_indexEPN8pybind116detail9type_infoEEEEEPT_SA_, symObjAddr: 0x1CAD8, symBinAddr: 0x34430, symSize: 0x14 }
  - { offsetInCU: 0x3BEF3, offset: 0x8D74D, size: 0x8, addend: 0x0, symName: __ZNSt3__17launderB7v160006IKNS_4pairIKNS_10type_indexEPN8pybind116detail9type_infoEEEEEPT_SB_, symObjAddr: 0x1D3D4, symBinAddr: 0x34D2C, symSize: 0x24 }
  - { offsetInCU: 0x3BF2B, offset: 0x8D785, size: 0x8, addend: 0x0, symName: __ZNSt3__19__launderB7v160006IKNS_4pairIKNS_10type_indexEPN8pybind116detail9type_infoEEEEEPT_SB_, symObjAddr: 0x1D3F8, symBinAddr: 0x34D50, symSize: 0x14 }
  - { offsetInCU: 0x3BF61, offset: 0x8D7BB, size: 0x8, addend: 0x0, symName: __ZNSt3__1neB7v160006ERKNS_15__hash_iteratorIPNS_11__hash_nodeINS_17__hash_value_typeINS_10type_indexEPN8pybind116detail9type_infoEEEPvEEEESE_, symObjAddr: 0x1D450, symBinAddr: 0x34DA8, symSize: 0x34 }
  - { offsetInCU: 0x3BF9F, offset: 0x8D7F9, size: 0x8, addend: 0x0, symName: __ZNSt3__1eqB7v160006ERKNS_15__hash_iteratorIPNS_11__hash_nodeINS_17__hash_value_typeINS_10type_indexEPN8pybind116detail9type_infoEEEPvEEEESE_, symObjAddr: 0x1D484, symBinAddr: 0x34DDC, symSize: 0x30 }
  - { offsetInCU: 0x3C041, offset: 0x8D89B, size: 0x8, addend: 0x0, symName: __ZNSt3__119__allocate_at_leastB7v160006INS_9allocatorIN8pybind116detail15argument_recordEEEEENS_19__allocation_resultINS_16allocator_traitsIT_E7pointerEEERS8_m, symObjAddr: 0x1D8F0, symBinAddr: 0x35248, symSize: 0x40 }
  - { offsetInCU: 0x3C084, offset: 0x8D8DE, size: 0x8, addend: 0x0, symName: __ZNSt3__142__uninitialized_allocator_move_if_noexceptB7v160006INS_9allocatorIN8pybind116detail15argument_recordEEENS_16reverse_iteratorIPS4_EES8_S4_vEET1_RT_T0_SC_S9_, symObjAddr: 0x1DBA8, symBinAddr: 0x35500, symSize: 0x78 }
  - { offsetInCU: 0x3C101, offset: 0x8D95B, size: 0x8, addend: 0x0, symName: __ZNSt3__14swapB7v160006IPN8pybind116detail15argument_recordEEENS_9enable_ifIXaasr21is_move_constructibleIT_EE5valuesr18is_move_assignableIS6_EE5valueEvE4typeERS6_S9_, symObjAddr: 0x1DC6C, symBinAddr: 0x355C4, symSize: 0x3C }
  - { offsetInCU: 0x3C153, offset: 0x8D9AD, size: 0x8, addend: 0x0, symName: __ZNSt3__125__debug_db_invalidate_allB7v160006INS_6vectorIN8pybind116detail15argument_recordENS_9allocatorIS4_EEEEEEvPT_, symObjAddr: 0x1DD7C, symBinAddr: 0x356D4, symSize: 0x10 }
  - { offsetInCU: 0x3C184, offset: 0x8D9DE, size: 0x8, addend: 0x0, symName: __ZNSt3__112__to_addressB7v160006IN8pybind116detail15argument_recordEEEPT_S5_, symObjAddr: 0x1DDD4, symBinAddr: 0x3572C, symSize: 0x14 }
  - { offsetInCU: 0x3C1BA, offset: 0x8DA14, size: 0x8, addend: 0x0, symName: __ZNSt3__14moveB7v160006INS_16reverse_iteratorIPN8pybind116detail15argument_recordEEES6_EET0_T_S8_S7_, symObjAddr: 0x1DDE8, symBinAddr: 0x35740, symSize: 0x78 }
  - { offsetInCU: 0x3C214, offset: 0x8DA6E, size: 0x8, addend: 0x0, symName: __ZNSt3__16__moveB7v160006INS_17_ClassicAlgPolicyENS_16reverse_iteratorIPN8pybind116detail15argument_recordEEES7_S7_EENS_4pairIT0_T2_EES9_T1_SA_, symObjAddr: 0x1DE60, symBinAddr: 0x357B8, symSize: 0x64 }
  - { offsetInCU: 0x3C280, offset: 0x8DADA, size: 0x8, addend: 0x0, symName: __ZNSt3__123__dispatch_copy_or_moveB7v160006INS_17_ClassicAlgPolicyENS_11__move_loopIS1_EENS_14__move_trivialENS_16reverse_iteratorIPN8pybind116detail15argument_recordEEESA_SA_EENS_4pairIT2_T4_EESC_T3_SD_, symObjAddr: 0x1DEC4, symBinAddr: 0x3581C, symSize: 0x64 }
  - { offsetInCU: 0x3C2FE, offset: 0x8DB58, size: 0x8, addend: 0x0, symName: __ZNSt3__121__unwrap_and_dispatchB7v160006INS_10__overloadINS_11__move_loopINS_17_ClassicAlgPolicyEEENS_14__move_trivialEEENS_16reverse_iteratorIPN8pybind116detail15argument_recordEEESC_SC_Li0EEENS_4pairIT0_T2_EESE_T1_SF_, symObjAddr: 0x1DF28, symBinAddr: 0x35880, symSize: 0x12C }
  - { offsetInCU: 0x3C38E, offset: 0x8DBE8, size: 0x8, addend: 0x0, symName: __ZNSt3__114__unwrap_rangeB7v160006INS_16reverse_iteratorIPN8pybind116detail15argument_recordEEES6_EENS_4pairIT0_S8_EET_SA_, symObjAddr: 0x1E054, symBinAddr: 0x359AC, symSize: 0x84 }
  - { offsetInCU: 0x3C4AE, offset: 0x8DD08, size: 0x8, addend: 0x0, symName: __ZNSt3__113__unwrap_iterB7v160006INS_16reverse_iteratorIPN8pybind116detail15argument_recordEEENS_18__unwrap_iter_implIS6_Lb0EEELi0EEEDTclsrT0_8__unwrapclsr3stdE7declvalIT_EEEESA_, symObjAddr: 0x1E180, symBinAddr: 0x35AD8, symSize: 0x44 }
  - { offsetInCU: 0x3C4F2, offset: 0x8DD4C, size: 0x8, addend: 0x0, symName: __ZNSt3__19make_pairB7v160006INS_16reverse_iteratorIPN8pybind116detail15argument_recordEEES6_EENS_4pairINS_18__unwrap_ref_decayIT_E4typeENS8_IT0_E4typeEEEOS9_OSC_, symObjAddr: 0x1E1C4, symBinAddr: 0x35B1C, symSize: 0x38 }
  - { offsetInCU: 0x3C541, offset: 0x8DD9B, size: 0x8, addend: 0x0, symName: __ZNSt3__114__rewrap_rangeB7v160006INS_16reverse_iteratorIPN8pybind116detail15argument_recordEEES6_EET_S7_T0_, symObjAddr: 0x1E1FC, symBinAddr: 0x35B54, symSize: 0x5C }
  - { offsetInCU: 0x3C58D, offset: 0x8DDE7, size: 0x8, addend: 0x0, symName: __ZNSt3__113__rewrap_iterB7v160006INS_16reverse_iteratorIPN8pybind116detail15argument_recordEEES6_NS_18__unwrap_iter_implIS6_Lb0EEEEET_S9_T0_, symObjAddr: 0x1E258, symBinAddr: 0x35BB0, symSize: 0x74 }
  - { offsetInCU: 0x3C5E2, offset: 0x8DE3C, size: 0x8, addend: 0x0, symName: __ZNSt3__1neB7v160006IPN8pybind116detail15argument_recordES4_EEbRKNS_16reverse_iteratorIT_EERKNS5_IT0_EE, symObjAddr: 0x1E2CC, symBinAddr: 0x35C24, symSize: 0x48 }
  - { offsetInCU: 0x3C69A, offset: 0x8DEF4, size: 0x8, addend: 0x0, symName: __ZNSt3__1neB7v160006IPN8pybind116detail13function_callEEEbRKNS_11__wrap_iterIT_EES9_, symObjAddr: 0x1F684, symBinAddr: 0x36FDC, symSize: 0x34 }
  - { offsetInCU: 0x3C6DD, offset: 0x8DF37, size: 0x8, addend: 0x0, symName: __ZNSt3__119__debug_db_insert_cB7v160006INS_6vectorIN8pybind116detail13function_callENS_9allocatorIS4_EEEEEEvPT_, symObjAddr: 0x1FEB0, symBinAddr: 0x37794, symSize: 0x10 }
  - { offsetInCU: 0x3C70E, offset: 0x8DF68, size: 0x8, addend: 0x0, symName: __ZNSt3__119__debug_db_insert_cB7v160006INS_6vectorIN8pybind116handleENS_9allocatorIS3_EEEEEEvPT_, symObjAddr: 0x2036C, symBinAddr: 0x37C50, symSize: 0x10 }
  - { offsetInCU: 0x3C73F, offset: 0x8DF99, size: 0x8, addend: 0x0, symName: __ZNSt3__119__allocate_at_leastB7v160006INS_9allocatorIN8pybind116handleEEEEENS_19__allocation_resultINS_16allocator_traitsIT_E7pointerEEERS7_m, symObjAddr: 0x208F0, symBinAddr: 0x381D4, symSize: 0x40 }
  - { offsetInCU: 0x3C782, offset: 0x8DFDC, size: 0x8, addend: 0x0, symName: __ZNSt3__142__uninitialized_allocator_move_if_noexceptB7v160006INS_9allocatorIN8pybind116handleEEENS_16reverse_iteratorIPS3_EES7_S3_vEET1_RT_T0_SB_S8_, symObjAddr: 0x20B70, symBinAddr: 0x38454, symSize: 0x78 }
  - { offsetInCU: 0x3C7FF, offset: 0x8E059, size: 0x8, addend: 0x0, symName: __ZNSt3__14swapB7v160006IPN8pybind116handleEEENS_9enable_ifIXaasr21is_move_constructibleIT_EE5valuesr18is_move_assignableIS5_EE5valueEvE4typeERS5_S8_, symObjAddr: 0x20C34, symBinAddr: 0x38518, symSize: 0x3C }
  - { offsetInCU: 0x3C851, offset: 0x8E0AB, size: 0x8, addend: 0x0, symName: __ZNSt3__125__debug_db_invalidate_allB7v160006INS_6vectorIN8pybind116handleENS_9allocatorIS3_EEEEEEvPT_, symObjAddr: 0x20D44, symBinAddr: 0x38628, symSize: 0x10 }
  - { offsetInCU: 0x3C882, offset: 0x8E0DC, size: 0x8, addend: 0x0, symName: __ZNSt3__112__to_addressB7v160006IN8pybind116handleEEEPT_S4_, symObjAddr: 0x20D9C, symBinAddr: 0x38680, symSize: 0x14 }
  - { offsetInCU: 0x3C8B8, offset: 0x8E112, size: 0x8, addend: 0x0, symName: __ZNSt3__14moveB7v160006INS_16reverse_iteratorIPN8pybind116handleEEES5_EET0_T_S7_S6_, symObjAddr: 0x20DB0, symBinAddr: 0x38694, symSize: 0x78 }
  - { offsetInCU: 0x3C912, offset: 0x8E16C, size: 0x8, addend: 0x0, symName: __ZNSt3__16__moveB7v160006INS_17_ClassicAlgPolicyENS_16reverse_iteratorIPN8pybind116handleEEES6_S6_EENS_4pairIT0_T2_EES8_T1_S9_, symObjAddr: 0x20E28, symBinAddr: 0x3870C, symSize: 0x64 }
  - { offsetInCU: 0x3C97E, offset: 0x8E1D8, size: 0x8, addend: 0x0, symName: __ZNSt3__123__dispatch_copy_or_moveB7v160006INS_17_ClassicAlgPolicyENS_11__move_loopIS1_EENS_14__move_trivialENS_16reverse_iteratorIPN8pybind116handleEEES9_S9_EENS_4pairIT2_T4_EESB_T3_SC_, symObjAddr: 0x20E8C, symBinAddr: 0x38770, symSize: 0x64 }
  - { offsetInCU: 0x3C9FC, offset: 0x8E256, size: 0x8, addend: 0x0, symName: __ZNSt3__121__unwrap_and_dispatchB7v160006INS_10__overloadINS_11__move_loopINS_17_ClassicAlgPolicyEEENS_14__move_trivialEEENS_16reverse_iteratorIPN8pybind116handleEEESB_SB_Li0EEENS_4pairIT0_T2_EESD_T1_SE_, symObjAddr: 0x20EF0, symBinAddr: 0x387D4, symSize: 0x12C }
  - { offsetInCU: 0x3CA8C, offset: 0x8E2E6, size: 0x8, addend: 0x0, symName: __ZNSt3__114__unwrap_rangeB7v160006INS_16reverse_iteratorIPN8pybind116handleEEES5_EENS_4pairIT0_S7_EET_S9_, symObjAddr: 0x2101C, symBinAddr: 0x38900, symSize: 0x84 }
  - { offsetInCU: 0x3CBAC, offset: 0x8E406, size: 0x8, addend: 0x0, symName: __ZNSt3__113__unwrap_iterB7v160006INS_16reverse_iteratorIPN8pybind116handleEEENS_18__unwrap_iter_implIS5_Lb0EEELi0EEEDTclsrT0_8__unwrapclsr3stdE7declvalIT_EEEES9_, symObjAddr: 0x21140, symBinAddr: 0x38A24, symSize: 0x44 }
  - { offsetInCU: 0x3CBF0, offset: 0x8E44A, size: 0x8, addend: 0x0, symName: __ZNSt3__19make_pairB7v160006INS_16reverse_iteratorIPN8pybind116handleEEES5_EENS_4pairINS_18__unwrap_ref_decayIT_E4typeENS7_IT0_E4typeEEEOS8_OSB_, symObjAddr: 0x21184, symBinAddr: 0x38A68, symSize: 0x38 }
  - { offsetInCU: 0x3CC3F, offset: 0x8E499, size: 0x8, addend: 0x0, symName: __ZNSt3__114__rewrap_rangeB7v160006INS_16reverse_iteratorIPN8pybind116handleEEES5_EET_S6_T0_, symObjAddr: 0x211BC, symBinAddr: 0x38AA0, symSize: 0x5C }
  - { offsetInCU: 0x3CC8B, offset: 0x8E4E5, size: 0x8, addend: 0x0, symName: __ZNSt3__113__rewrap_iterB7v160006INS_16reverse_iteratorIPN8pybind116handleEEES5_NS_18__unwrap_iter_implIS5_Lb0EEEEET_S8_T0_, symObjAddr: 0x21218, symBinAddr: 0x38AFC, symSize: 0x74 }
  - { offsetInCU: 0x3CCE0, offset: 0x8E53A, size: 0x8, addend: 0x0, symName: __ZNSt3__1neB7v160006IPN8pybind116handleES3_EEbRKNS_16reverse_iteratorIT_EERKNS4_IT0_EE, symObjAddr: 0x2128C, symBinAddr: 0x38B70, symSize: 0x48 }
  - { offsetInCU: 0x3CD98, offset: 0x8E5F2, size: 0x8, addend: 0x0, symName: __ZNSt3__125__debug_db_invalidate_allB7v160006INS_6vectorIbNS_9allocatorIbEEEEEEvPT_, symObjAddr: 0x21A70, symBinAddr: 0x39354, symSize: 0x10 }
  - { offsetInCU: 0x3CDC9, offset: 0x8E623, size: 0x8, addend: 0x0, symName: __ZNSt3__119__allocate_at_leastB7v160006INS_9allocatorImEEEENS_19__allocation_resultINS_16allocator_traitsIT_E7pointerEEERS5_m, symObjAddr: 0x21D8C, symBinAddr: 0x39670, symSize: 0x40 }
  - { offsetInCU: 0x3CE0C, offset: 0x8E666, size: 0x8, addend: 0x0, symName: __ZNSt3__18distanceB7v160006INS_14__bit_iteratorINS_6vectorIbNS_9allocatorIbEEEELb0ELm0EEEEENS_15iterator_traitsIT_E15difference_typeES8_S8_, symObjAddr: 0x21EF4, symBinAddr: 0x397D8, symSize: 0x5C }
  - { offsetInCU: 0x3CE51, offset: 0x8E6AB, size: 0x8, addend: 0x0, symName: __ZNSt3__14copyB7v160006INS_6vectorIbNS_9allocatorIbEEEELb0EEENS_14__bit_iteratorIT_Lb0EXLi0EEEENS5_IS6_XT0_EXLi0EEEES8_S7_, symObjAddr: 0x21F84, symBinAddr: 0x39868, symSize: 0xE8 }
  - { offsetInCU: 0x3CEB3, offset: 0x8E70D, size: 0x8, addend: 0x0, symName: __ZNSt3__110__distanceB7v160006INS_14__bit_iteratorINS_6vectorIbNS_9allocatorIbEEEELb0ELm0EEEEENS_15iterator_traitsIT_E15difference_typeES8_S8_NS_26random_access_iterator_tagE, symObjAddr: 0x220D0, symBinAddr: 0x399B4, symSize: 0x38 }
  - { offsetInCU: 0x3CF04, offset: 0x8E75E, size: 0x8, addend: 0x0, symName: __ZNSt3__1miB7v160006ERKNS_14__bit_iteratorINS_6vectorIbNS_9allocatorIbEEEELb0ELm0EEES7_, symObjAddr: 0x22108, symBinAddr: 0x399EC, symSize: 0x48 }
  - { offsetInCU: 0x3CF40, offset: 0x8E79A, size: 0x8, addend: 0x0, symName: __ZNSt3__13minB7v160006IlEERKT_S3_S3_, symObjAddr: 0x22938, symBinAddr: 0x3A21C, symSize: 0x2C }
  - { offsetInCU: 0x3CF83, offset: 0x8E7DD, size: 0x8, addend: 0x0, symName: __ZNSt3__112__to_addressB7v160006ImEEPT_S2_, symObjAddr: 0x229A8, symBinAddr: 0x3A28C, symSize: 0x14 }
  - { offsetInCU: 0x3CFB9, offset: 0x8E813, size: 0x8, addend: 0x0, symName: __ZNSt3__13minB7v160006IlNS_6__lessIllEEEERKT_S5_S5_T0_, symObjAddr: 0x229BC, symBinAddr: 0x3A2A0, symSize: 0x54 }
  - { offsetInCU: 0x3D04E, offset: 0x8E8A8, size: 0x8, addend: 0x0, symName: __ZNSt3__14copyB7v160006IPmS1_EET0_T_S3_S2_, symObjAddr: 0x22A44, symBinAddr: 0x3A328, symSize: 0x40 }
  - { offsetInCU: 0x3D0A8, offset: 0x8E902, size: 0x8, addend: 0x0, symName: __ZNSt3__16__copyB7v160006INS_17_ClassicAlgPolicyEPmS2_S2_EENS_4pairIT0_T2_EES4_T1_S5_, symObjAddr: 0x22A84, symBinAddr: 0x3A368, symSize: 0x44 }
  - { offsetInCU: 0x3D114, offset: 0x8E96E, size: 0x8, addend: 0x0, symName: __ZNSt3__123__dispatch_copy_or_moveB7v160006INS_17_ClassicAlgPolicyENS_11__copy_loopIS1_EENS_14__copy_trivialEPmS5_S5_EENS_4pairIT2_T4_EES7_T3_S8_, symObjAddr: 0x22AC8, symBinAddr: 0x3A3AC, symSize: 0x44 }
  - { offsetInCU: 0x3D192, offset: 0x8E9EC, size: 0x8, addend: 0x0, symName: __ZNSt3__121__unwrap_and_dispatchB7v160006INS_10__overloadINS_11__copy_loopINS_17_ClassicAlgPolicyEEENS_14__copy_trivialEEEPmS7_S7_Li0EEENS_4pairIT0_T2_EES9_T1_SA_, symObjAddr: 0x22B0C, symBinAddr: 0x3A3F0, symSize: 0xB4 }
  - { offsetInCU: 0x3D220, offset: 0x8EA7A, size: 0x8, addend: 0x0, symName: __ZNSt3__114__unwrap_rangeB7v160006IPmS1_EENS_4pairIT0_S3_EET_S5_, symObjAddr: 0x22BC0, symBinAddr: 0x3A4A4, symSize: 0x60 }
  - { offsetInCU: 0x3D4A5, offset: 0x8ECFF, size: 0x8, addend: 0x0, symName: __ZNSt3__113__unwrap_iterB7v160006IPmNS_18__unwrap_iter_implIS1_Lb1EEELi0EEEDTclsrT0_8__unwrapclsr3stdE7declvalIT_EEEES5_, symObjAddr: 0x22C68, symBinAddr: 0x3A54C, symSize: 0x24 }
  - { offsetInCU: 0x3D4E9, offset: 0x8ED43, size: 0x8, addend: 0x0, symName: __ZNSt3__19make_pairB7v160006IPmS1_EENS_4pairINS_18__unwrap_ref_decayIT_E4typeENS3_IT0_E4typeEEEOS4_OS7_, symObjAddr: 0x22C8C, symBinAddr: 0x3A570, symSize: 0x38 }
  - { offsetInCU: 0x3D538, offset: 0x8ED92, size: 0x8, addend: 0x0, symName: __ZNSt3__114__rewrap_rangeB7v160006IPmS1_EET_S2_T0_, symObjAddr: 0x22CC4, symBinAddr: 0x3A5A8, symSize: 0x2C }
  - { offsetInCU: 0x3D584, offset: 0x8EDDE, size: 0x8, addend: 0x0, symName: __ZNSt3__113__rewrap_iterB7v160006IPmS1_NS_18__unwrap_iter_implIS1_Lb1EEEEET_S4_T0_, symObjAddr: 0x22CF0, symBinAddr: 0x3A5D4, symSize: 0x3C }
  - { offsetInCU: 0x3D5D9, offset: 0x8EE33, size: 0x8, addend: 0x0, symName: __ZNSt3__119__copy_trivial_implB7v160006ImmEENS_4pairIPT_PT0_EES3_S3_S5_, symObjAddr: 0x22D2C, symBinAddr: 0x3A610, symSize: 0x84 }
  - { offsetInCU: 0x3D641, offset: 0x8EE9B, size: 0x8, addend: 0x0, symName: __ZNSt3__19make_pairB7v160006IRPmS1_EENS_4pairINS_18__unwrap_ref_decayIT_E4typeENS4_IT0_E4typeEEEOS5_OS8_, symObjAddr: 0x22DB0, symBinAddr: 0x3A694, symSize: 0x38 }
  - { offsetInCU: 0x3D6E3, offset: 0x8EF3D, size: 0x8, addend: 0x0, symName: __ZNSt3__118__debug_db_erase_cB7v160006INS_6vectorIN8pybind116handleENS_9allocatorIS3_EEEEEEvPT_, symObjAddr: 0x230D8, symBinAddr: 0x3A9BC, symSize: 0x10 }
  - { offsetInCU: 0x3D714, offset: 0x8EF6E, size: 0x8, addend: 0x0, symName: __ZNSt3__14copyB7v160006INS_6vectorIbNS_9allocatorIbEEEELb1EEENS_14__bit_iteratorIT_Lb0EXLi0EEEENS5_IS6_XT0_EXLi0EEEES8_S7_, symObjAddr: 0x24108, symBinAddr: 0x3B9EC, symSize: 0xD4 }
  - { offsetInCU: 0x3D774, offset: 0x8EFCE, size: 0x8, addend: 0x0, symName: __ZNSt3__16fill_nB7v160006INS_6vectorIbNS_9allocatorIbEEEEEEvNS_14__bit_iteratorIT_Lb0EXLi0EEEENS6_9size_typeEb, symObjAddr: 0x2424C, symBinAddr: 0x3BB30, symSize: 0x94 }
  - { offsetInCU: 0x3D7C7, offset: 0x8F021, size: 0x8, addend: 0x0, symName: __ZNSt3__1miB7v160006ERKNS_14__bit_iteratorINS_6vectorIbNS_9allocatorIbEEEELb1ELm0EEES7_, symObjAddr: 0x24A84, symBinAddr: 0x3C368, symSize: 0x48 }
  - { offsetInCU: 0x3D803, offset: 0x8F05D, size: 0x8, addend: 0x0, symName: __ZNSt3__112__to_addressB7v160006IKmEEPT_S3_, symObjAddr: 0x24B10, symBinAddr: 0x3C3F4, symSize: 0x14 }
  - { offsetInCU: 0x3D839, offset: 0x8F093, size: 0x8, addend: 0x0, symName: __ZNSt3__14copyB7v160006IPKmPmEET0_T_S5_S4_, symObjAddr: 0x24B24, symBinAddr: 0x3C408, symSize: 0x40 }
  - { offsetInCU: 0x3D893, offset: 0x8F0ED, size: 0x8, addend: 0x0, symName: __ZNSt3__16__copyB7v160006INS_17_ClassicAlgPolicyEPKmS3_PmEENS_4pairIT0_T2_EES6_T1_S7_, symObjAddr: 0x24B64, symBinAddr: 0x3C448, symSize: 0x44 }
  - { offsetInCU: 0x3D8FF, offset: 0x8F159, size: 0x8, addend: 0x0, symName: __ZNSt3__123__dispatch_copy_or_moveB7v160006INS_17_ClassicAlgPolicyENS_11__copy_loopIS1_EENS_14__copy_trivialEPKmS6_PmEENS_4pairIT2_T4_EES9_T3_SA_, symObjAddr: 0x24BA8, symBinAddr: 0x3C48C, symSize: 0x44 }
  - { offsetInCU: 0x3D97D, offset: 0x8F1D7, size: 0x8, addend: 0x0, symName: __ZNSt3__121__unwrap_and_dispatchB7v160006INS_10__overloadINS_11__copy_loopINS_17_ClassicAlgPolicyEEENS_14__copy_trivialEEEPKmS8_PmLi0EEENS_4pairIT0_T2_EESB_T1_SC_, symObjAddr: 0x24BEC, symBinAddr: 0x3C4D0, symSize: 0xB4 }
  - { offsetInCU: 0x3DA0B, offset: 0x8F265, size: 0x8, addend: 0x0, symName: __ZNSt3__114__unwrap_rangeB7v160006IPKmS2_EENS_4pairIT0_S4_EET_S6_, symObjAddr: 0x24CA0, symBinAddr: 0x3C584, symSize: 0x60 }
  - { offsetInCU: 0x3DB5A, offset: 0x8F3B4, size: 0x8, addend: 0x0, symName: __ZNSt3__19make_pairB7v160006IPKmPmEENS_4pairINS_18__unwrap_ref_decayIT_E4typeENS5_IT0_E4typeEEEOS6_OS9_, symObjAddr: 0x24D48, symBinAddr: 0x3C62C, symSize: 0x38 }
  - { offsetInCU: 0x3DBA9, offset: 0x8F403, size: 0x8, addend: 0x0, symName: __ZNSt3__114__rewrap_rangeB7v160006IPKmS2_EET_S3_T0_, symObjAddr: 0x24D80, symBinAddr: 0x3C664, symSize: 0x2C }
  - { offsetInCU: 0x3DBF5, offset: 0x8F44F, size: 0x8, addend: 0x0, symName: __ZNSt3__19make_pairB7v160006IPKmS2_EENS_4pairINS_18__unwrap_ref_decayIT_E4typeENS4_IT0_E4typeEEEOS5_OS8_, symObjAddr: 0x24DAC, symBinAddr: 0x3C690, symSize: 0x38 }
  - { offsetInCU: 0x3DC44, offset: 0x8F49E, size: 0x8, addend: 0x0, symName: __ZNSt3__113__unwrap_iterB7v160006IPKmNS_18__unwrap_iter_implIS2_Lb1EEELi0EEEDTclsrT0_8__unwrapclsr3stdE7declvalIT_EEEES6_, symObjAddr: 0x24DE4, symBinAddr: 0x3C6C8, symSize: 0x24 }
  - { offsetInCU: 0x3DDAF, offset: 0x8F609, size: 0x8, addend: 0x0, symName: __ZNSt3__119__copy_trivial_implB7v160006IKmmEENS_4pairIPT_PT0_EES4_S4_S6_, symObjAddr: 0x24E9C, symBinAddr: 0x3C780, symSize: 0x84 }
  - { offsetInCU: 0x3DE17, offset: 0x8F671, size: 0x8, addend: 0x0, symName: __ZNSt3__19make_pairB7v160006IRPKmPmEENS_4pairINS_18__unwrap_ref_decayIT_E4typeENS6_IT0_E4typeEEEOS7_OSA_, symObjAddr: 0x24F20, symBinAddr: 0x3C804, symSize: 0x38 }
  - { offsetInCU: 0x3DE66, offset: 0x8F6C0, size: 0x8, addend: 0x0, symName: __ZNSt3__113__rewrap_iterB7v160006IPKmS2_NS_18__unwrap_iter_implIS2_Lb1EEEEET_S5_T0_, symObjAddr: 0x25038, symBinAddr: 0x3C91C, symSize: 0x3C }
  - { offsetInCU: 0x3DEBB, offset: 0x8F715, size: 0x8, addend: 0x0, symName: __ZNSt3__16fill_nB7v160006IPmmmEET_S2_T0_RKT1_, symObjAddr: 0x25444, symBinAddr: 0x3CD28, symSize: 0x44 }
  - { offsetInCU: 0x3DF1E, offset: 0x8F778, size: 0x8, addend: 0x0, symName: __ZNSt3__18__fill_nB7v160006IPmmmEET_S2_T0_RKT1_, symObjAddr: 0x25488, symBinAddr: 0x3CD6C, symSize: 0x64 }
  - { offsetInCU: 0x3DF82, offset: 0x8F7DC, size: 0x8, addend: 0x0, symName: __ZNSt3__121__convert_to_integralB7v160006Em, symObjAddr: 0x254EC, symBinAddr: 0x3CDD0, symSize: 0x14 }
  - { offsetInCU: 0x3DFAF, offset: 0x8F809, size: 0x8, addend: 0x0, symName: __ZNSt3__16fill_nB7v160006IPmmiEET_S2_T0_RKT1_, symObjAddr: 0x25500, symBinAddr: 0x3CDE4, symSize: 0x44 }
  - { offsetInCU: 0x3E012, offset: 0x8F86C, size: 0x8, addend: 0x0, symName: __ZNSt3__18__fill_nB7v160006IPmmiEET_S2_T0_RKT1_, symObjAddr: 0x25544, symBinAddr: 0x3CE28, symSize: 0x64 }
  - { offsetInCU: 0x3E076, offset: 0x8F8D0, size: 0x8, addend: 0x0, symName: __ZNSt3__14swapB7v160006IPmEENS_9enable_ifIXaasr21is_move_constructibleIT_EE5valuesr18is_move_assignableIS3_EE5valueEvE4typeERS3_S6_, symObjAddr: 0x255A8, symBinAddr: 0x3CE8C, symSize: 0x3C }
  - { offsetInCU: 0x3E0C8, offset: 0x8F922, size: 0x8, addend: 0x0, symName: __ZNSt3__116__swap_allocatorB7v160006INS_9allocatorImEEEEvRT_S4_NS_17integral_constantIbLb0EEE, symObjAddr: 0x255E4, symBinAddr: 0x3CEC8, symSize: 0x14 }
  - { offsetInCU: 0x3E10C, offset: 0x8F966, size: 0x8, addend: 0x0, symName: __ZNSt3__119__debug_db_insert_cB7v160006INS_13unordered_setIP7_objectNS_4hashIS3_EENS_8equal_toIS3_EENS_9allocatorIS3_EEEEEEvPT_, symObjAddr: 0x25780, symBinAddr: 0x3D064, symSize: 0x10 }
  - { offsetInCU: 0x3E13D, offset: 0x8F997, size: 0x8, addend: 0x0, symName: __ZNSt3__118__debug_db_erase_cB7v160006INS_12__hash_tableIP7_objectNS_4hashIS3_EENS_8equal_toIS3_EENS_9allocatorIS3_EEEEEEvPT_, symObjAddr: 0x25E60, symBinAddr: 0x3D744, symSize: 0x10 }
  - { offsetInCU: 0x3E1A1, offset: 0x8F9FB, size: 0x8, addend: 0x0, symName: __ZNSt3__1neB7v160006ERKNS_21__hash_const_iteratorIPNS_11__hash_nodeIP7_objectPvEEEES9_, symObjAddr: 0x263E0, symBinAddr: 0x3DCC4, symSize: 0x34 }
  - { offsetInCU: 0x3E1DF, offset: 0x8FA39, size: 0x8, addend: 0x0, symName: __ZNSt3__1eqB7v160006ERKNS_21__hash_const_iteratorIPNS_11__hash_nodeIP7_objectPvEEEES9_, symObjAddr: 0x26588, symBinAddr: 0x3DE6C, symSize: 0x30 }
  - { offsetInCU: 0x3E21B, offset: 0x8FA75, size: 0x8, addend: 0x0, symName: __ZNSt3__112__to_addressB7v160006IN8pybind116detail13function_callEEEPT_S5_, symObjAddr: 0x26818, symBinAddr: 0x3E0FC, symSize: 0x14 }
  - { offsetInCU: 0x3E251, offset: 0x8FAAB, size: 0x8, addend: 0x0, symName: __ZNSt3__115__debug_db_swapB7v160006INS_6vectorIN8pybind116handleENS_9allocatorIS3_EEEEEEvPT_S8_, symObjAddr: 0x26B18, symBinAddr: 0x3E3FC, symSize: 0x14 }
  - { offsetInCU: 0x3E290, offset: 0x8FAEA, size: 0x8, addend: 0x0, symName: __ZNSt3__119__allocate_at_leastB7v160006INS_9allocatorIN8pybind116detail13function_callEEEEENS_19__allocation_resultINS_16allocator_traitsIT_E7pointerEEERS8_m, symObjAddr: 0x27190, symBinAddr: 0x3EA74, symSize: 0x40 }
  - { offsetInCU: 0x3E2D3, offset: 0x8FB2D, size: 0x8, addend: 0x0, symName: __ZNSt3__142__uninitialized_allocator_move_if_noexceptB7v160006INS_9allocatorIN8pybind116detail13function_callEEENS_16reverse_iteratorIPS4_EES8_S8_EET2_RT_T0_T1_S9_, symObjAddr: 0x2741C, symBinAddr: 0x3ED00, symSize: 0x12C }
  - { offsetInCU: 0x3E373, offset: 0x8FBCD, size: 0x8, addend: 0x0, symName: __ZNSt3__14swapB7v160006IPN8pybind116detail13function_callEEENS_9enable_ifIXaasr21is_move_constructibleIT_EE5valuesr18is_move_assignableIS6_EE5valueEvE4typeERS6_S9_, symObjAddr: 0x27594, symBinAddr: 0x3EE78, symSize: 0x3C }
  - { offsetInCU: 0x3E3C5, offset: 0x8FC1F, size: 0x8, addend: 0x0, symName: __ZNSt3__125__debug_db_invalidate_allB7v160006INS_6vectorIN8pybind116detail13function_callENS_9allocatorIS4_EEEEEEvPT_, symObjAddr: 0x27698, symBinAddr: 0x3EF7C, symSize: 0x10 }
  - { offsetInCU: 0x3E3F6, offset: 0x8FC50, size: 0x8, addend: 0x0, symName: __ZNSt3__122__make_exception_guardB7v160006INS_29_AllocatorDestroyRangeReverseINS_9allocatorIN8pybind116detail13function_callEEENS_16reverse_iteratorIPS5_EEEEEENS_28__exception_guard_exceptionsIT_EESC_, symObjAddr: 0x276F0, symBinAddr: 0x3EFD4, symSize: 0x4C }
  - { offsetInCU: 0x3E42C, offset: 0x8FC86, size: 0x8, addend: 0x0, symName: __ZNSt3__1neB7v160006IPN8pybind116detail13function_callES4_EEbRKNS_16reverse_iteratorIT_EERKNS5_IT0_EE, symObjAddr: 0x27780, symBinAddr: 0x3F064, symSize: 0x48 }
  - { offsetInCU: 0x3E478, offset: 0x8FCD2, size: 0x8, addend: 0x0, symName: __ZNSt3__112__to_addressB7v160006INS_16reverse_iteratorIPN8pybind116detail13function_callEEEvEENS_5decayIDTclsr19__to_address_helperIT_EE6__callclsr3stdE7declvalIRKS8_EEEEE4typeESA_, symObjAddr: 0x277C8, symBinAddr: 0x3F0AC, symSize: 0x24 }
  - { offsetInCU: 0x3E4D8, offset: 0x8FD32, size: 0x8, addend: 0x0, symName: __ZNSt3__119__allocator_destroyB7v160006INS_9allocatorIN8pybind116detail13function_callEEENS_16reverse_iteratorINS6_IPS4_EEEES9_EEvRT_T0_T1_, symObjAddr: 0x27A78, symBinAddr: 0x3F35C, symSize: 0x70 }
  - { offsetInCU: 0x3E53D, offset: 0x8FD97, size: 0x8, addend: 0x0, symName: __ZNSt3__1neB7v160006INS_16reverse_iteratorIPN8pybind116detail13function_callEEES6_EEbRKNS1_IT_EERKNS1_IT0_EE, symObjAddr: 0x27B24, symBinAddr: 0x3F408, symSize: 0x60 }
  - { offsetInCU: 0x3E589, offset: 0x8FDE3, size: 0x8, addend: 0x0, symName: __ZNSt3__112__to_addressB7v160006INS_16reverse_iteratorINS1_IPN8pybind116detail13function_callEEEEEvEENS_5decayIDTclsr19__to_address_helperIT_EE6__callclsr3stdE7declvalIRKS9_EEEEE4typeESB_, symObjAddr: 0x27BB0, symBinAddr: 0x3F494, symSize: 0x24 }
  - { offsetInCU: 0x3E5E9, offset: 0x8FE43, size: 0x8, addend: 0x0, symName: __ZNSt3__125__debug_db_invalidate_allB7v160006INS_6vectorIbNS_9allocatorIbEEE16__destroy_vectorEEEvPT_, symObjAddr: 0x28108, symBinAddr: 0x3F9EC, symSize: 0x10 }
  - { offsetInCU: 0x3E61A, offset: 0x8FE74, size: 0x8, addend: 0x0, symName: __ZNSt3__1eqB7v160006IPN8pybind116detail13function_callEEEbRKNS_11__wrap_iterIT_EES9_, symObjAddr: 0x28240, symBinAddr: 0x3FB24, symSize: 0x48 }
  - { offsetInCU: 0x3E65D, offset: 0x8FEB7, size: 0x8, addend: 0x0, symName: __ZNSt3__118__debug_db_erase_cB7v160006INS_6vectorIN8pybind116detail13function_callENS_9allocatorIS4_EEEEEEvPT_, symObjAddr: 0x283D4, symBinAddr: 0x3FCB8, symSize: 0x10 }
  - { offsetInCU: 0x3E68E, offset: 0x8FEE8, size: 0x8, addend: 0x0, symName: __ZNSt3__1neB7v160006ERKNS_23__forward_list_iteratorIPNS_19__forward_list_nodeIPFvSt13exception_ptrEPvEEEESA_, symObjAddr: 0x284F8, symBinAddr: 0x3FDDC, symSize: 0x34 }
  - { offsetInCU: 0x3E6CC, offset: 0x8FF26, size: 0x8, addend: 0x0, symName: __ZNSt3__1eqB7v160006ERKNS_23__forward_list_iteratorIPNS_19__forward_list_nodeIPFvSt13exception_ptrEPvEEEESA_, symObjAddr: 0x28670, symBinAddr: 0x3FF54, symSize: 0x30 }
  - { offsetInCU: 0x3E708, offset: 0x8FF62, size: 0x8, addend: 0x0, symName: __ZNSt3__111__str_rfindB7v160006IcmNS_11char_traitsIcEELm18446744073709551615EEET0_PKT_S3_S6_S3_S3_, symObjAddr: 0x286B8, symBinAddr: 0x3FF9C, symSize: 0x128 }
  - { offsetInCU: 0x3E7AF, offset: 0x90009, size: 0x8, addend: 0x0, symName: __ZNSt3__118__find_end_classicB7v160006IPKcS2_DoFbccEEET_S4_S4_T0_S5_RT1_, symObjAddr: 0x287E0, symBinAddr: 0x400C4, symSize: 0x64 }
  - { offsetInCU: 0x3E83C, offset: 0x90096, size: 0x8, addend: 0x0, symName: __ZNSt3__115__find_end_implB7v160006INS_17_ClassicAlgPolicyEPKcS3_S3_S3_DoFbccENS_10__identityES5_EENS_4pairIT0_S7_EES7_T1_T2_T3_RT4_RT5_RT6_NS_20forward_iterator_tagESI_, symObjAddr: 0x2886C, symBinAddr: 0x40150, symSize: 0x1F4 }
  - { offsetInCU: 0x3EA65, offset: 0x902BF, size: 0x8, addend: 0x0, symName: __ZNSt3__18__invokeB7v160006IRDoFbccEJRKcS4_EEEDTclclsr3stdE7declvalIT_EEspclsr3stdE7declvalIT0_EEEEOS5_DpOS6_, symObjAddr: 0x28AB4, symBinAddr: 0x40398, symSize: 0x40 }
  - { offsetInCU: 0x3EACA, offset: 0x90324, size: 0x8, addend: 0x0, symName: __ZNSt3__18__invokeB7v160006IRNS_10__identityEJRKcEEEDTclclsr3stdE7declvalIT_EEspclsr3stdE7declvalIT0_EEEEOS5_DpOS6_, symObjAddr: 0x28AF4, symBinAddr: 0x403D8, symSize: 0x2C }
  - { offsetInCU: 0x3EB48, offset: 0x903A2, size: 0x8, addend: 0x0, symName: __ZNSt3__118__debug_db_erase_cB7v160006INS_6vectorIN8pybind116detail15argument_recordENS_9allocatorIS4_EEEEEEvPT_, symObjAddr: 0x29C4C, symBinAddr: 0x41530, symSize: 0x10 }
  - { offsetInCU: 0x3EB79, offset: 0x903D3, size: 0x8, addend: 0x0, symName: __ZNSt3__1neB7v160006IPPcEEbRKNS_11__wrap_iterIT_EES7_, symObjAddr: 0x2A384, symBinAddr: 0x41C68, symSize: 0x34 }
  - { offsetInCU: 0x3EBBC, offset: 0x90416, size: 0x8, addend: 0x0, symName: __ZNSt3__1eqB7v160006IPPcEEbRKNS_11__wrap_iterIT_EES7_, symObjAddr: 0x2A4B0, symBinAddr: 0x41D94, symSize: 0x48 }
  - { offsetInCU: 0x3EBFF, offset: 0x90459, size: 0x8, addend: 0x0, symName: __ZNSt3__118__debug_db_erase_cB7v160006INS_6vectorIPcNS_9allocatorIS2_EEEEEEvPT_, symObjAddr: 0x2A644, symBinAddr: 0x41F28, symSize: 0x10 }
  - { offsetInCU: 0x3EC30, offset: 0x9048A, size: 0x8, addend: 0x0, symName: __ZNSt3__1neB7v160006ERKNS_25__hash_map_const_iteratorINS_21__hash_const_iteratorIPNS_11__hash_nodeINS_17__hash_value_typeIP11_typeobjectNS_6vectorIPN8pybind116detail9type_infoENS_9allocatorISA_EEEEEEPvEEEEEESL_, symObjAddr: 0x2AB7C, symBinAddr: 0x42460, symSize: 0x30 }
  - { offsetInCU: 0x3EC6D, offset: 0x904C7, size: 0x8, addend: 0x0, symName: __ZNSt3__1neB7v160006IPKPN8pybind116detail9type_infoEEEbRKNS_11__wrap_iterIT_EESB_, symObjAddr: 0x2AC70, symBinAddr: 0x42554, symSize: 0x34 }
  - { offsetInCU: 0x3ECB0, offset: 0x9050A, size: 0x8, addend: 0x0, symName: __ZNSt3__1neB7v160006IPPN8pybind116detail9type_infoEEEbRKNS_11__wrap_iterIT_EESA_, symObjAddr: 0x2AD1C, symBinAddr: 0x42600, symSize: 0x34 }
  - { offsetInCU: 0x3ECF3, offset: 0x9054D, size: 0x8, addend: 0x0, symName: __ZNSt3__119__debug_db_insert_cB7v160006INS_6vectorIP11_typeobjectNS_9allocatorIS3_EEEEEEvPT_, symObjAddr: 0x2AF00, symBinAddr: 0x427E4, symSize: 0x10 }
  - { offsetInCU: 0x3ED24, offset: 0x9057E, size: 0x8, addend: 0x0, symName: __ZNSt3__112__to_addressB7v160006IP11_typeobjectEEPT_S4_, symObjAddr: 0x2B3F0, symBinAddr: 0x42CD4, symSize: 0x14 }
  - { offsetInCU: 0x3ED5A, offset: 0x905B4, size: 0x8, addend: 0x0, symName: __ZNSt3__119__allocate_at_leastB7v160006INS_9allocatorIP11_typeobjectEEEENS_19__allocation_resultINS_16allocator_traitsIT_E7pointerEEERS7_m, symObjAddr: 0x2B9F4, symBinAddr: 0x432D8, symSize: 0x40 }
  - { offsetInCU: 0x3ED9D, offset: 0x905F7, size: 0x8, addend: 0x0, symName: __ZNSt3__142__uninitialized_allocator_move_if_noexceptB7v160006INS_9allocatorIP11_typeobjectEENS_16reverse_iteratorIPS3_EES7_S3_vEET1_RT_T0_SB_S8_, symObjAddr: 0x2BC60, symBinAddr: 0x43544, symSize: 0x78 }
  - { offsetInCU: 0x3EE1A, offset: 0x90674, size: 0x8, addend: 0x0, symName: __ZNSt3__14swapB7v160006IPP11_typeobjectEENS_9enable_ifIXaasr21is_move_constructibleIT_EE5valuesr18is_move_assignableIS5_EE5valueEvE4typeERS5_S8_, symObjAddr: 0x2BD24, symBinAddr: 0x43608, symSize: 0x3C }
  - { offsetInCU: 0x3EE6C, offset: 0x906C6, size: 0x8, addend: 0x0, symName: __ZNSt3__125__debug_db_invalidate_allB7v160006INS_6vectorIP11_typeobjectNS_9allocatorIS3_EEEEEEvPT_, symObjAddr: 0x2BE0C, symBinAddr: 0x436F0, symSize: 0x10 }
  - { offsetInCU: 0x3EE9D, offset: 0x906F7, size: 0x8, addend: 0x0, symName: __ZNSt3__14moveB7v160006INS_16reverse_iteratorIPP11_typeobjectEES5_EET0_T_S7_S6_, symObjAddr: 0x2BE64, symBinAddr: 0x43748, symSize: 0x78 }
  - { offsetInCU: 0x3EEF7, offset: 0x90751, size: 0x8, addend: 0x0, symName: __ZNSt3__16__moveB7v160006INS_17_ClassicAlgPolicyENS_16reverse_iteratorIPP11_typeobjectEES6_S6_EENS_4pairIT0_T2_EES8_T1_S9_, symObjAddr: 0x2BEDC, symBinAddr: 0x437C0, symSize: 0x64 }
  - { offsetInCU: 0x3EF63, offset: 0x907BD, size: 0x8, addend: 0x0, symName: __ZNSt3__123__dispatch_copy_or_moveB7v160006INS_17_ClassicAlgPolicyENS_11__move_loopIS1_EENS_14__move_trivialENS_16reverse_iteratorIPP11_typeobjectEES9_S9_EENS_4pairIT2_T4_EESB_T3_SC_, symObjAddr: 0x2BF40, symBinAddr: 0x43824, symSize: 0x64 }
  - { offsetInCU: 0x3EFE1, offset: 0x9083B, size: 0x8, addend: 0x0, symName: __ZNSt3__121__unwrap_and_dispatchB7v160006INS_10__overloadINS_11__move_loopINS_17_ClassicAlgPolicyEEENS_14__move_trivialEEENS_16reverse_iteratorIPP11_typeobjectEESB_SB_Li0EEENS_4pairIT0_T2_EESD_T1_SE_, symObjAddr: 0x2BFA4, symBinAddr: 0x43888, symSize: 0x12C }
  - { offsetInCU: 0x3F071, offset: 0x908CB, size: 0x8, addend: 0x0, symName: __ZNSt3__114__unwrap_rangeB7v160006INS_16reverse_iteratorIPP11_typeobjectEES5_EENS_4pairIT0_S7_EET_S9_, symObjAddr: 0x2C0D0, symBinAddr: 0x439B4, symSize: 0x84 }
  - { offsetInCU: 0x3F191, offset: 0x909EB, size: 0x8, addend: 0x0, symName: __ZNSt3__113__unwrap_iterB7v160006INS_16reverse_iteratorIPP11_typeobjectEENS_18__unwrap_iter_implIS5_Lb0EEELi0EEEDTclsrT0_8__unwrapclsr3stdE7declvalIT_EEEES9_, symObjAddr: 0x2C1F4, symBinAddr: 0x43AD8, symSize: 0x44 }
  - { offsetInCU: 0x3F1D5, offset: 0x90A2F, size: 0x8, addend: 0x0, symName: __ZNSt3__19make_pairB7v160006INS_16reverse_iteratorIPP11_typeobjectEES5_EENS_4pairINS_18__unwrap_ref_decayIT_E4typeENS7_IT0_E4typeEEEOS8_OSB_, symObjAddr: 0x2C238, symBinAddr: 0x43B1C, symSize: 0x38 }
  - { offsetInCU: 0x3F224, offset: 0x90A7E, size: 0x8, addend: 0x0, symName: __ZNSt3__114__rewrap_rangeB7v160006INS_16reverse_iteratorIPP11_typeobjectEES5_EET_S6_T0_, symObjAddr: 0x2C270, symBinAddr: 0x43B54, symSize: 0x5C }
  - { offsetInCU: 0x3F270, offset: 0x90ACA, size: 0x8, addend: 0x0, symName: __ZNSt3__113__rewrap_iterB7v160006INS_16reverse_iteratorIPP11_typeobjectEES5_NS_18__unwrap_iter_implIS5_Lb0EEEEET_S8_T0_, symObjAddr: 0x2C2CC, symBinAddr: 0x43BB0, symSize: 0x74 }
  - { offsetInCU: 0x3F2C5, offset: 0x90B1F, size: 0x8, addend: 0x0, symName: __ZNSt3__1neB7v160006IPP11_typeobjectS3_EEbRKNS_16reverse_iteratorIT_EERKNS4_IT0_EE, symObjAddr: 0x2C340, symBinAddr: 0x43C24, symSize: 0x48 }
  - { offsetInCU: 0x3F37D, offset: 0x90BD7, size: 0x8, addend: 0x0, symName: __ZNSt3__1neB7v160006ERKNS_21__hash_const_iteratorIPNS_11__hash_nodeINS_17__hash_value_typeIP11_typeobjectNS_6vectorIPN8pybind116detail9type_infoENS_9allocatorIS9_EEEEEEPvEEEESJ_, symObjAddr: 0x2CB04, symBinAddr: 0x443E8, symSize: 0x34 }
  - { offsetInCU: 0x3F3BB, offset: 0x90C15, size: 0x8, addend: 0x0, symName: __ZNSt3__1eqB7v160006ERKNS_21__hash_const_iteratorIPNS_11__hash_nodeINS_17__hash_value_typeIP11_typeobjectNS_6vectorIPN8pybind116detail9type_infoENS_9allocatorIS9_EEEEEEPvEEEESJ_, symObjAddr: 0x2CB38, symBinAddr: 0x4441C, symSize: 0x30 }
  - { offsetInCU: 0x3F45D, offset: 0x90CB7, size: 0x8, addend: 0x0, symName: __ZNSt3__1eqB7v160006IPKPN8pybind116detail9type_infoEEEbRKNS_11__wrap_iterIT_EESB_, symObjAddr: 0x2CC54, symBinAddr: 0x44538, symSize: 0x48 }
  - { offsetInCU: 0x3F4A0, offset: 0x90CFA, size: 0x8, addend: 0x0, symName: __ZNSt3__1eqB7v160006IPPN8pybind116detail9type_infoEEEbRKNS_11__wrap_iterIT_EESA_, symObjAddr: 0x2CD48, symBinAddr: 0x4462C, symSize: 0x48 }
  - { offsetInCU: 0x3F4E3, offset: 0x90D3D, size: 0x8, addend: 0x0, symName: __ZNSt3__119__allocate_at_leastB7v160006INS_9allocatorIPN8pybind116detail9type_infoEEEEENS_19__allocation_resultINS_16allocator_traitsIT_E7pointerEEERS9_m, symObjAddr: 0x2D4F8, symBinAddr: 0x44DDC, symSize: 0x40 }
  - { offsetInCU: 0x3F526, offset: 0x90D80, size: 0x8, addend: 0x0, symName: __ZNSt3__142__uninitialized_allocator_move_if_noexceptB7v160006INS_9allocatorIPN8pybind116detail9type_infoEEENS_16reverse_iteratorIPS5_EES9_S5_vEET1_RT_T0_SD_SA_, symObjAddr: 0x2D6AC, symBinAddr: 0x44F90, symSize: 0x78 }
  - { offsetInCU: 0x3F5A3, offset: 0x90DFD, size: 0x8, addend: 0x0, symName: __ZNSt3__14swapB7v160006IPPN8pybind116detail9type_infoEEENS_9enable_ifIXaasr21is_move_constructibleIT_EE5valuesr18is_move_assignableIS7_EE5valueEvE4typeERS7_SA_, symObjAddr: 0x2D770, symBinAddr: 0x45054, symSize: 0x3C }
  - { offsetInCU: 0x3F5F5, offset: 0x90E4F, size: 0x8, addend: 0x0, symName: __ZNSt3__125__debug_db_invalidate_allB7v160006INS_6vectorIPN8pybind116detail9type_infoENS_9allocatorIS5_EEEEEEvPT_, symObjAddr: 0x2D858, symBinAddr: 0x4513C, symSize: 0x10 }
  - { offsetInCU: 0x3F626, offset: 0x90E80, size: 0x8, addend: 0x0, symName: __ZNSt3__14moveB7v160006INS_16reverse_iteratorIPPN8pybind116detail9type_infoEEES7_EET0_T_S9_S8_, symObjAddr: 0x2D868, symBinAddr: 0x4514C, symSize: 0x78 }
  - { offsetInCU: 0x3F680, offset: 0x90EDA, size: 0x8, addend: 0x0, symName: __ZNSt3__16__moveB7v160006INS_17_ClassicAlgPolicyENS_16reverse_iteratorIPPN8pybind116detail9type_infoEEES8_S8_EENS_4pairIT0_T2_EESA_T1_SB_, symObjAddr: 0x2D8E0, symBinAddr: 0x451C4, symSize: 0x64 }
  - { offsetInCU: 0x3F6EC, offset: 0x90F46, size: 0x8, addend: 0x0, symName: __ZNSt3__123__dispatch_copy_or_moveB7v160006INS_17_ClassicAlgPolicyENS_11__move_loopIS1_EENS_14__move_trivialENS_16reverse_iteratorIPPN8pybind116detail9type_infoEEESB_SB_EENS_4pairIT2_T4_EESD_T3_SE_, symObjAddr: 0x2D944, symBinAddr: 0x45228, symSize: 0x64 }
  - { offsetInCU: 0x3F76A, offset: 0x90FC4, size: 0x8, addend: 0x0, symName: __ZNSt3__121__unwrap_and_dispatchB7v160006INS_10__overloadINS_11__move_loopINS_17_ClassicAlgPolicyEEENS_14__move_trivialEEENS_16reverse_iteratorIPPN8pybind116detail9type_infoEEESD_SD_Li0EEENS_4pairIT0_T2_EESF_T1_SG_, symObjAddr: 0x2D9A8, symBinAddr: 0x4528C, symSize: 0x12C }
  - { offsetInCU: 0x3F7FA, offset: 0x91054, size: 0x8, addend: 0x0, symName: __ZNSt3__114__unwrap_rangeB7v160006INS_16reverse_iteratorIPPN8pybind116detail9type_infoEEES7_EENS_4pairIT0_S9_EET_SB_, symObjAddr: 0x2DAD4, symBinAddr: 0x453B8, symSize: 0x84 }
  - { offsetInCU: 0x3F91A, offset: 0x91174, size: 0x8, addend: 0x0, symName: __ZNSt3__113__unwrap_iterB7v160006INS_16reverse_iteratorIPPN8pybind116detail9type_infoEEENS_18__unwrap_iter_implIS7_Lb0EEELi0EEEDTclsrT0_8__unwrapclsr3stdE7declvalIT_EEEESB_, symObjAddr: 0x2DBF8, symBinAddr: 0x454DC, symSize: 0x44 }
  - { offsetInCU: 0x3F95E, offset: 0x911B8, size: 0x8, addend: 0x0, symName: __ZNSt3__19make_pairB7v160006INS_16reverse_iteratorIPPN8pybind116detail9type_infoEEES7_EENS_4pairINS_18__unwrap_ref_decayIT_E4typeENS9_IT0_E4typeEEEOSA_OSD_, symObjAddr: 0x2DC3C, symBinAddr: 0x45520, symSize: 0x38 }
  - { offsetInCU: 0x3F9AD, offset: 0x91207, size: 0x8, addend: 0x0, symName: __ZNSt3__114__rewrap_rangeB7v160006INS_16reverse_iteratorIPPN8pybind116detail9type_infoEEES7_EET_S8_T0_, symObjAddr: 0x2DC74, symBinAddr: 0x45558, symSize: 0x5C }
  - { offsetInCU: 0x3F9F9, offset: 0x91253, size: 0x8, addend: 0x0, symName: __ZNSt3__113__rewrap_iterB7v160006INS_16reverse_iteratorIPPN8pybind116detail9type_infoEEES7_NS_18__unwrap_iter_implIS7_Lb0EEEEET_SA_T0_, symObjAddr: 0x2DCD0, symBinAddr: 0x455B4, symSize: 0x74 }
  - { offsetInCU: 0x3FA4E, offset: 0x912A8, size: 0x8, addend: 0x0, symName: __ZNSt3__1neB7v160006IPPN8pybind116detail9type_infoES5_EEbRKNS_16reverse_iteratorIT_EERKNS6_IT0_EE, symObjAddr: 0x2DD44, symBinAddr: 0x45628, symSize: 0x48 }
  - { offsetInCU: 0x3FB06, offset: 0x91360, size: 0x8, addend: 0x0, symName: __ZNSt3__118__debug_db_erase_cB7v160006INS_6vectorIP11_typeobjectNS_9allocatorIS3_EEEEEEvPT_, symObjAddr: 0x2E3BC, symBinAddr: 0x45CA0, symSize: 0x10 }
  - { offsetInCU: 0x3FB9D, offset: 0x913F7, size: 0x8, addend: 0x0, symName: __ZNSt3__1neB7v160006ERKNS_19__hash_map_iteratorINS_15__hash_iteratorIPNS_11__hash_nodeINS_17__hash_value_typeIP11_typeobjectNS_6vectorIPN8pybind116detail9type_infoENS_9allocatorISA_EEEEEEPvEEEEEESL_, symObjAddr: 0x2E664, symBinAddr: 0x45F48, symSize: 0x30 }
  - { offsetInCU: 0x3FBDA, offset: 0x91434, size: 0x8, addend: 0x0, symName: __ZNSt3__1neB7v160006ERKNS_15__hash_iteratorIPNS_11__hash_nodeINS_17__hash_value_typeIP11_typeobjectNS_6vectorIPN8pybind116detail9type_infoENS_9allocatorIS9_EEEEEEPvEEEESJ_, symObjAddr: 0x2E774, symBinAddr: 0x46058, symSize: 0x34 }
  - { offsetInCU: 0x3FC18, offset: 0x91472, size: 0x8, addend: 0x0, symName: __ZNSt3__1eqB7v160006ERKNS_15__hash_iteratorIPNS_11__hash_nodeINS_17__hash_value_typeINS_10type_indexENS_6vectorIPFbP7_objectRPvENS_9allocatorISA_EEEEEES7_EEEESJ_, symObjAddr: 0x2E9F4, symBinAddr: 0x462D8, symSize: 0x30 }
  - { offsetInCU: 0x3FC54, offset: 0x914AE, size: 0x8, addend: 0x0, symName: __ZNSt3__17launderB7v160006IKNS_4pairIKNS_10type_indexENS_6vectorIPFbP7_objectRPvENS_9allocatorISA_EEEEEEEEPT_SH_, symObjAddr: 0x2EE08, symBinAddr: 0x466EC, symSize: 0x24 }
  - { offsetInCU: 0x3FC8C, offset: 0x914E6, size: 0x8, addend: 0x0, symName: __ZNSt3__19__launderB7v160006IKNS_4pairIKNS_10type_indexENS_6vectorIPFbP7_objectRPvENS_9allocatorISA_EEEEEEEEPT_SH_, symObjAddr: 0x2EE2C, symBinAddr: 0x46710, symSize: 0x14 }
  - { offsetInCU: 0x3FD13, offset: 0x9156D, size: 0x8, addend: 0x0, symName: __ZNSt3__118__debug_db_erase_cB7v160006INS_6vectorIPFbP7_objectRPvENS_9allocatorIS7_EEEEEEvPT_, symObjAddr: 0x2F864, symBinAddr: 0x47148, symSize: 0x10 }
  - { offsetInCU: 0x3FD44, offset: 0x9159E, size: 0x8, addend: 0x0, symName: __ZNSt3__112__to_addressB7v160006IPFbP7_objectRPvEEEPT_S8_, symObjAddr: 0x2F9A8, symBinAddr: 0x4728C, symSize: 0x14 }
  - { offsetInCU: 0x3FD7A, offset: 0x915D4, size: 0x8, addend: 0x0, symName: __ZNSt3__17launderB7v160006INS_4pairIKNS_10type_indexENS_6vectorIPFbP7_objectRPvENS_9allocatorISA_EEEEEEEEPT_SG_, symObjAddr: 0x2FB84, symBinAddr: 0x47468, symSize: 0x24 }
  - { offsetInCU: 0x3FDB2, offset: 0x9160C, size: 0x8, addend: 0x0, symName: __ZNSt3__19__launderB7v160006INS_4pairIKNS_10type_indexENS_6vectorIPFbP7_objectRPvENS_9allocatorISA_EEEEEEEEPT_SG_, symObjAddr: 0x2FBA8, symBinAddr: 0x4748C, symSize: 0x14 }
  - { offsetInCU: 0x3FE06, offset: 0x91660, size: 0x8, addend: 0x0, symName: __ZNSt3__118__debug_db_erase_cB7v160006INS_6vectorINS_4pairIPKSt9type_infoPFPvS6_EEENS_9allocatorIS9_EEEEEEvPT_, symObjAddr: 0x30660, symBinAddr: 0x47F44, symSize: 0x10 }
  - { offsetInCU: 0x3FE37, offset: 0x91691, size: 0x8, addend: 0x0, symName: __ZNSt3__112__to_addressB7v160006INS_4pairIPKSt9type_infoPFPvS5_EEEEEPT_SA_, symObjAddr: 0x307A4, symBinAddr: 0x48088, symSize: 0x14 }
  - { offsetInCU: 0x3FE6D, offset: 0x916C7, size: 0x8, addend: 0x0, symName: __ZNSt3__118__debug_db_erase_cB7v160006INS_6vectorIPFP7_objectS3_P11_typeobjectENS_9allocatorIS7_EEEEEEvPT_, symObjAddr: 0x30B48, symBinAddr: 0x4842C, symSize: 0x10 }
  - { offsetInCU: 0x3FE9E, offset: 0x916F8, size: 0x8, addend: 0x0, symName: __ZNSt3__112__to_addressB7v160006IPFP7_objectS2_P11_typeobjectEEEPT_S8_, symObjAddr: 0x30C8C, symBinAddr: 0x48570, symSize: 0x14 }
  - { offsetInCU: 0x3FED4, offset: 0x9172E, size: 0x8, addend: 0x0, symName: __ZNSt3__1neB7v160006ERKNS_19__hash_map_iteratorINS_15__hash_iteratorIPNS_11__hash_nodeINS_17__hash_value_typeIPKvPN8pybind116detail8instanceEEEPvEEEEEESH_, symObjAddr: 0x31A48, symBinAddr: 0x4932C, symSize: 0x30 }
  - { offsetInCU: 0x3FFE5, offset: 0x9183F, size: 0x8, addend: 0x0, symName: __ZNSt3__1neB7v160006ERKNS_15__hash_iteratorIPNS_11__hash_nodeINS_17__hash_value_typeIPKvPN8pybind116detail8instanceEEEPvEEEESF_, symObjAddr: 0x31E08, symBinAddr: 0x496EC, symSize: 0x34 }
  - { offsetInCU: 0x40056, offset: 0x918B0, size: 0x8, addend: 0x0, symName: __ZNSt3__1eqB7v160006ERKNS_15__hash_iteratorIPNS_11__hash_nodeINS_17__hash_value_typeIPKvPN8pybind116detail8instanceEEEPvEEEESF_, symObjAddr: 0x3222C, symBinAddr: 0x49B10, symSize: 0x30 }
  - { offsetInCU: 0x40092, offset: 0x918EC, size: 0x8, addend: 0x0, symName: __ZNSt3__17launderB7v160006IKNS_4pairIKPKvPN8pybind116detail8instanceEEEEEPT_SC_, symObjAddr: 0x322EC, symBinAddr: 0x49BD0, symSize: 0x24 }
  - { offsetInCU: 0x400CA, offset: 0x91924, size: 0x8, addend: 0x0, symName: __ZNSt3__19__launderB7v160006IKNS_4pairIKPKvPN8pybind116detail8instanceEEEEEPT_SC_, symObjAddr: 0x32310, symBinAddr: 0x49BF4, symSize: 0x14 }
  - { offsetInCU: 0x40166, offset: 0x919C0, size: 0x8, addend: 0x0, symName: __ZNSt3__17launderB7v160006INS_4pairIKPKvPN8pybind116detail8instanceEEEEEPT_SB_, symObjAddr: 0x32484, symBinAddr: 0x49D68, symSize: 0x24 }
  - { offsetInCU: 0x4019E, offset: 0x919F8, size: 0x8, addend: 0x0, symName: __ZNSt3__19__launderB7v160006INS_4pairIKPKvPN8pybind116detail8instanceEEEEEPT_SB_, symObjAddr: 0x324A8, symBinAddr: 0x49D8C, symSize: 0x14 }
  - { offsetInCU: 0x401F2, offset: 0x91A4C, size: 0x8, addend: 0x0, symName: __ZNSt3__1neB7v160006IPNS_4pairIPKSt9type_infoPFPvS5_EEEEEbRKNS_11__wrap_iterIT_EESE_, symObjAddr: 0x32D68, symBinAddr: 0x4A64C, symSize: 0x34 }
  - { offsetInCU: 0x40235, offset: 0x91A8F, size: 0x8, addend: 0x0, symName: __ZNSt3__1eqB7v160006IPNS_4pairIPKSt9type_infoPFPvS5_EEEEEbRKNS_11__wrap_iterIT_EESE_, symObjAddr: 0x32E68, symBinAddr: 0x4A74C, symSize: 0x48 }
  - { offsetInCU: 0x40278, offset: 0x91AD2, size: 0x8, addend: 0x0, symName: __ZNSt3__1neB7v160006ERKNS_19__hash_map_iteratorINS_15__hash_iteratorIPNS_11__hash_nodeINS_17__hash_value_typeIPK7_objectNS_6vectorIPS4_NS_9allocatorIS8_EEEEEEPvEEEEEESJ_, symObjAddr: 0x32F08, symBinAddr: 0x4A7EC, symSize: 0x30 }
  - { offsetInCU: 0x402B5, offset: 0x91B0F, size: 0x8, addend: 0x0, symName: __ZNSt3__1neB7v160006IPP7_objectEEbRKNS_11__wrap_iterIT_EES8_, symObjAddr: 0x33088, symBinAddr: 0x4A96C, symSize: 0x34 }
  - { offsetInCU: 0x402F8, offset: 0x91B52, size: 0x8, addend: 0x0, symName: __ZNSt3__17launderB7v160006IKNS_4pairIKPK7_objectNS_6vectorIPS2_NS_9allocatorIS7_EEEEEEEEPT_SE_, symObjAddr: 0x336C8, symBinAddr: 0x4AFAC, symSize: 0x24 }
  - { offsetInCU: 0x40330, offset: 0x91B8A, size: 0x8, addend: 0x0, symName: __ZNSt3__19__launderB7v160006IKNS_4pairIKPK7_objectNS_6vectorIPS2_NS_9allocatorIS7_EEEEEEEEPT_SE_, symObjAddr: 0x336EC, symBinAddr: 0x4AFD0, symSize: 0x14 }
  - { offsetInCU: 0x40399, offset: 0x91BF3, size: 0x8, addend: 0x0, symName: __ZNSt3__1neB7v160006ERKNS_15__hash_iteratorIPNS_11__hash_nodeINS_17__hash_value_typeIPK7_objectNS_6vectorIPS3_NS_9allocatorIS7_EEEEEEPvEEEESH_, symObjAddr: 0x33758, symBinAddr: 0x4B03C, symSize: 0x34 }
  - { offsetInCU: 0x403D7, offset: 0x91C31, size: 0x8, addend: 0x0, symName: __ZNSt3__1eqB7v160006ERKNS_15__hash_iteratorIPNS_11__hash_nodeINS_17__hash_value_typeIPK7_objectNS_6vectorIPS3_NS_9allocatorIS7_EEEEEEPvEEEESH_, symObjAddr: 0x3378C, symBinAddr: 0x4B070, symSize: 0x30 }
  - { offsetInCU: 0x40479, offset: 0x91CD3, size: 0x8, addend: 0x0, symName: __ZNSt3__17launderB7v160006INS_4pairIKPK7_objectNS_6vectorIPS2_NS_9allocatorIS7_EEEEEEEEPT_SD_, symObjAddr: 0x33838, symBinAddr: 0x4B11C, symSize: 0x24 }
  - { offsetInCU: 0x404B1, offset: 0x91D0B, size: 0x8, addend: 0x0, symName: __ZNSt3__19__launderB7v160006INS_4pairIKPK7_objectNS_6vectorIPS2_NS_9allocatorIS7_EEEEEEEEPT_SD_, symObjAddr: 0x3385C, symBinAddr: 0x4B140, symSize: 0x14 }
  - { offsetInCU: 0x404E7, offset: 0x91D41, size: 0x8, addend: 0x0, symName: __ZNSt3__115__debug_db_swapB7v160006INS_6vectorIP7_objectNS_9allocatorIS3_EEEEEEvPT_S8_, symObjAddr: 0x339B0, symBinAddr: 0x4B294, symSize: 0x14 }
  - { offsetInCU: 0x40544, offset: 0x91D9E, size: 0x8, addend: 0x0, symName: __ZNSt3__1eqB7v160006IPP7_objectEEbRKNS_11__wrap_iterIT_EES8_, symObjAddr: 0x3442C, symBinAddr: 0x4BD10, symSize: 0x48 }
  - { offsetInCU: 0x40587, offset: 0x91DE1, size: 0x8, addend: 0x0, symName: __ZNSt3__118__debug_db_erase_cB7v160006INS_6vectorIP7_objectNS_9allocatorIS3_EEEEEEvPT_, symObjAddr: 0x34678, symBinAddr: 0x4BF5C, symSize: 0x10 }
  - { offsetInCU: 0x405B8, offset: 0x91E12, size: 0x8, addend: 0x0, symName: __ZNSt3__112__to_addressB7v160006IP7_objectEEPT_S4_, symObjAddr: 0x34794, symBinAddr: 0x4C078, symSize: 0x14 }
  - { offsetInCU: 0x405EE, offset: 0x91E48, size: 0x8, addend: 0x0, symName: __ZNSt3__125__debug_db_invalidate_allB7v160006INS_12__hash_tableINS_17__hash_value_typeIPKvPN8pybind116detail8instanceEEENS_22__unordered_map_hasherIS4_S9_NS_4hashIS4_EENS_8equal_toIS4_EELb1EEENS_21__unordered_map_equalIS4_S9_SE_SC_Lb1EEENS_9allocatorIS9_EEEEEEvPT_, symObjAddr: 0x372E0, symBinAddr: 0x4EBC4, symSize: 0x10 }
  - { offsetInCU: 0x40B67, offset: 0x923C1, size: 0x8, addend: 0x0, symName: __ZNSt3__1neB7v160006IPlEEbRKNS_11__wrap_iterIT_EES6_, symObjAddr: 0x3A79C, symBinAddr: 0x52080, symSize: 0x34 }
  - { offsetInCU: 0x40BAA, offset: 0x92404, size: 0x8, addend: 0x0, symName: __ZNSt3__118__debug_db_erase_cB7v160006INS_6vectorIlNS_9allocatorIlEEEEEEvPT_, symObjAddr: 0x3AB00, symBinAddr: 0x523E4, symSize: 0x10 }
  - { offsetInCU: 0x40BDB, offset: 0x92435, size: 0x8, addend: 0x0, symName: __ZNSt3__112__to_addressB7v160006IlEEPT_S2_, symObjAddr: 0x3AC44, symBinAddr: 0x52528, symSize: 0x14 }
  - { offsetInCU: 0x40C11, offset: 0x9246B, size: 0x8, addend: 0x0, symName: __ZNSt3__1eqB7v160006IPlEEbRKNS_11__wrap_iterIT_EES6_, symObjAddr: 0x3AE90, symBinAddr: 0x52774, symSize: 0x48 }
  - { offsetInCU: 0x40C55, offset: 0x924AF, size: 0x8, addend: 0x0, symName: __ZNSt3__125__throw_bad_function_callB7v160006Ev, symObjAddr: 0x3AF6C, symBinAddr: 0x52850, symSize: 0x38 }
  - { offsetInCU: 0x40CA5, offset: 0x924FF, size: 0x8, addend: 0x0, symName: __ZNSt3__119__debug_db_insert_cB7v160006INS_6vectorIPFP7_objectS3_P11_typeobjectENS_9allocatorIS7_EEEEEEvPT_, symObjAddr: 0x3B1D0, symBinAddr: 0x52AB4, symSize: 0x10 }
  - { offsetInCU: 0x40CD6, offset: 0x92530, size: 0x8, addend: 0x0, symName: __ZNSt3__119__debug_db_insert_cB7v160006INS_6vectorINS_4pairIPKSt9type_infoPFPvS6_EEENS_9allocatorIS9_EEEEEEvPT_, symObjAddr: 0x3B33C, symBinAddr: 0x52C20, symSize: 0x10 }
  - { offsetInCU: 0x40D07, offset: 0x92561, size: 0x8, addend: 0x0, symName: __ZNSt3__116forward_as_tupleB7v160006IJRKNS_10type_indexEEEENS_5tupleIJDpOT_EEES7_, symObjAddr: 0x3B8AC, symBinAddr: 0x53190, symSize: 0x2C }
  - { offsetInCU: 0x40D40, offset: 0x9259A, size: 0x8, addend: 0x0, symName: __ZNSt3__13getB7v160006ILm0EJRKNS_10type_indexEEEERNS_13tuple_elementIXT_ENS_5tupleIJDpT0_EEEE4typeERS8_, symObjAddr: 0x3BDB8, symBinAddr: 0x5369C, symSize: 0x24 }
  - { offsetInCU: 0x40D83, offset: 0x925DD, size: 0x8, addend: 0x0, symName: __ZNSt3__119__debug_db_insert_cB7v160006INS_6vectorIPFbP7_objectRPvENS_9allocatorIS7_EEEEEEvPT_, symObjAddr: 0x3BEB4, symBinAddr: 0x53798, symSize: 0x10 }
  - { offsetInCU: 0x40DB4, offset: 0x9260E, size: 0x8, addend: 0x0, symName: __ZNSt3__125__debug_db_invalidate_allB7v160006INS_12__hash_tableINS_17__hash_value_typeINS_10type_indexENS_6vectorIPFbP7_objectRPvENS_9allocatorISA_EEEEEENS_22__unordered_map_hasherIS3_SE_N8pybind116detail9type_hashENSH_13type_equal_toELb1EEENS_21__unordered_map_equalIS3_SE_SJ_SI_Lb1EEENSB_ISE_EEEEEEvPT_, symObjAddr: 0x3C3E8, symBinAddr: 0x53CCC, symSize: 0x10 }
  - { offsetInCU: 0x40E2D, offset: 0x92687, size: 0x8, addend: 0x0, symName: __ZNSt3__125__debug_db_invalidate_allB7v160006INS_12__hash_tableINS_17__hash_value_typeINS_10type_indexEPN8pybind116detail9type_infoEEENS_22__unordered_map_hasherIS3_S8_NS5_9type_hashENS5_13type_equal_toELb1EEENS_21__unordered_map_equalIS3_S8_SB_SA_Lb1EEENS_9allocatorIS8_EEEEEEvPT_, symObjAddr: 0x3D640, symBinAddr: 0x54F24, symSize: 0x10 }
  - { offsetInCU: 0x40E5E, offset: 0x926B8, size: 0x8, addend: 0x0, symName: __ZNSt3__116forward_as_tupleB7v160006IJP11_typeobjectEEENS_5tupleIJDpOT_EEES6_, symObjAddr: 0x3DCB0, symBinAddr: 0x55594, symSize: 0x2C }
  - { offsetInCU: 0x40E97, offset: 0x926F1, size: 0x8, addend: 0x0, symName: __ZNSt3__13getB7v160006ILm0EJOP11_typeobjectEEERNS_13tuple_elementIXT_ENS_5tupleIJDpT0_EEEE4typeERS8_, symObjAddr: 0x3DF80, symBinAddr: 0x55864, symSize: 0x24 }
  - { offsetInCU: 0x40EEF, offset: 0x92749, size: 0x8, addend: 0x0, symName: __ZNSt3__18distanceB7v160006IPKPN8pybind116detail9type_infoEEENS_15iterator_traitsIT_E15difference_typeES8_S8_, symObjAddr: 0x3E260, symBinAddr: 0x55B44, symSize: 0x2C }
  - { offsetInCU: 0x40F32, offset: 0x9278C, size: 0x8, addend: 0x0, symName: __ZNSt3__14copyB7v160006IPKPN8pybind116detail9type_infoEPS4_EET0_T_S9_S8_, symObjAddr: 0x3E2DC, symBinAddr: 0x55BC0, symSize: 0x40 }
  - { offsetInCU: 0x40F8C, offset: 0x927E6, size: 0x8, addend: 0x0, symName: __ZNSt3__110__distanceB7v160006IPKPN8pybind116detail9type_infoEEENS_15iterator_traitsIT_E15difference_typeES8_S8_NS_26random_access_iterator_tagE, symObjAddr: 0x3E540, symBinAddr: 0x55E24, symSize: 0x28 }
  - { offsetInCU: 0x40FDB, offset: 0x92835, size: 0x8, addend: 0x0, symName: __ZNSt3__19__advanceB7v160006IPKPN8pybind116detail9type_infoEEEvRT_NS_15iterator_traitsIS7_E15difference_typeENS_26random_access_iterator_tagE, symObjAddr: 0x3E568, symBinAddr: 0x55E4C, symSize: 0x28 }
  - { offsetInCU: 0x41025, offset: 0x9287F, size: 0x8, addend: 0x0, symName: __ZNSt3__16__copyB7v160006INS_17_ClassicAlgPolicyEPKPN8pybind116detail9type_infoES7_PS5_EENS_4pairIT0_T2_EESA_T1_SB_, symObjAddr: 0x3E590, symBinAddr: 0x55E74, symSize: 0x44 }
  - { offsetInCU: 0x41091, offset: 0x928EB, size: 0x8, addend: 0x0, symName: __ZNSt3__123__dispatch_copy_or_moveB7v160006INS_17_ClassicAlgPolicyENS_11__copy_loopIS1_EENS_14__copy_trivialEPKPN8pybind116detail9type_infoESA_PS8_EENS_4pairIT2_T4_EESD_T3_SE_, symObjAddr: 0x3E5D4, symBinAddr: 0x55EB8, symSize: 0x44 }
  - { offsetInCU: 0x4110F, offset: 0x92969, size: 0x8, addend: 0x0, symName: __ZNSt3__121__unwrap_and_dispatchB7v160006INS_10__overloadINS_11__copy_loopINS_17_ClassicAlgPolicyEEENS_14__copy_trivialEEEPKPN8pybind116detail9type_infoESC_PSA_Li0EEENS_4pairIT0_T2_EESF_T1_SG_, symObjAddr: 0x3E618, symBinAddr: 0x55EFC, symSize: 0xB4 }
  - { offsetInCU: 0x4119D, offset: 0x929F7, size: 0x8, addend: 0x0, symName: __ZNSt3__114__unwrap_rangeB7v160006IPKPN8pybind116detail9type_infoES6_EENS_4pairIT0_S8_EET_SA_, symObjAddr: 0x3E6CC, symBinAddr: 0x55FB0, symSize: 0x60 }
  - { offsetInCU: 0x412EC, offset: 0x92B46, size: 0x8, addend: 0x0, symName: __ZNSt3__113__unwrap_iterB7v160006IPPN8pybind116detail9type_infoENS_18__unwrap_iter_implIS5_Lb1EEELi0EEEDTclsrT0_8__unwrapclsr3stdE7declvalIT_EEEES9_, symObjAddr: 0x3E774, symBinAddr: 0x56058, symSize: 0x24 }
  - { offsetInCU: 0x41330, offset: 0x92B8A, size: 0x8, addend: 0x0, symName: __ZNSt3__19make_pairB7v160006IPKPN8pybind116detail9type_infoEPS4_EENS_4pairINS_18__unwrap_ref_decayIT_E4typeENS9_IT0_E4typeEEEOSA_OSD_, symObjAddr: 0x3E798, symBinAddr: 0x5607C, symSize: 0x38 }
  - { offsetInCU: 0x4137F, offset: 0x92BD9, size: 0x8, addend: 0x0, symName: __ZNSt3__114__rewrap_rangeB7v160006IPKPN8pybind116detail9type_infoES6_EET_S7_T0_, symObjAddr: 0x3E7D0, symBinAddr: 0x560B4, symSize: 0x2C }
  - { offsetInCU: 0x413CB, offset: 0x92C25, size: 0x8, addend: 0x0, symName: __ZNSt3__113__rewrap_iterB7v160006IPPN8pybind116detail9type_infoES5_NS_18__unwrap_iter_implIS5_Lb1EEEEET_S8_T0_, symObjAddr: 0x3E7FC, symBinAddr: 0x560E0, symSize: 0x3C }
  - { offsetInCU: 0x41420, offset: 0x92C7A, size: 0x8, addend: 0x0, symName: __ZNSt3__19make_pairB7v160006IPKPN8pybind116detail9type_infoES6_EENS_4pairINS_18__unwrap_ref_decayIT_E4typeENS8_IT0_E4typeEEEOS9_OSC_, symObjAddr: 0x3E838, symBinAddr: 0x5611C, symSize: 0x38 }
  - { offsetInCU: 0x4146F, offset: 0x92CC9, size: 0x8, addend: 0x0, symName: __ZNSt3__113__unwrap_iterB7v160006IPKPN8pybind116detail9type_infoENS_18__unwrap_iter_implIS6_Lb1EEELi0EEEDTclsrT0_8__unwrapclsr3stdE7declvalIT_EEEESA_, symObjAddr: 0x3E870, symBinAddr: 0x56154, symSize: 0x24 }
  - { offsetInCU: 0x415DA, offset: 0x92E34, size: 0x8, addend: 0x0, symName: __ZNSt3__112__to_addressB7v160006IKPN8pybind116detail9type_infoEEEPT_S7_, symObjAddr: 0x3E928, symBinAddr: 0x5620C, symSize: 0x14 }
  - { offsetInCU: 0x41610, offset: 0x92E6A, size: 0x8, addend: 0x0, symName: __ZNSt3__119__copy_trivial_implB7v160006IKPN8pybind116detail9type_infoES4_EENS_4pairIPT_PT0_EES8_S8_SA_, symObjAddr: 0x3E93C, symBinAddr: 0x56220, symSize: 0x84 }
  - { offsetInCU: 0x41678, offset: 0x92ED2, size: 0x8, addend: 0x0, symName: __ZNSt3__19make_pairB7v160006IRPKPN8pybind116detail9type_infoEPS4_EENS_4pairINS_18__unwrap_ref_decayIT_E4typeENSA_IT0_E4typeEEEOSB_OSE_, symObjAddr: 0x3E9C0, symBinAddr: 0x562A4, symSize: 0x38 }
  - { offsetInCU: 0x4171A, offset: 0x92F74, size: 0x8, addend: 0x0, symName: __ZNSt3__113__rewrap_iterB7v160006IPKPN8pybind116detail9type_infoES6_NS_18__unwrap_iter_implIS6_Lb1EEEEET_S9_T0_, symObjAddr: 0x3EAFC, symBinAddr: 0x563E0, symSize: 0x3C }
  - { offsetInCU: 0x4176F, offset: 0x92FC9, size: 0x8, addend: 0x0, symName: __ZNSt3__130__uninitialized_allocator_copyB7v160006INS_9allocatorIPN8pybind116detail9type_infoEEES5_S5_LPv0EEEPT0_RT_PKS8_SD_S9_, symObjAddr: 0x3EBD8, symBinAddr: 0x564BC, symSize: 0x38 }
  - { offsetInCU: 0x417E7, offset: 0x93041, size: 0x8, addend: 0x0, symName: __ZNSt3__1neB7v160006IPKPFP7_objectS2_P11_typeobjectEEEbRKNS_11__wrap_iterIT_EESD_, symObjAddr: 0x3FAD8, symBinAddr: 0x573BC, symSize: 0x34 }
  - { offsetInCU: 0x4182A, offset: 0x93084, size: 0x8, addend: 0x0, symName: __ZNSt3__1neB7v160006IPKNS_4pairIPKSt9type_infoPFPvS5_EEEEEbRKNS_11__wrap_iterIT_EESF_, symObjAddr: 0x3FEB4, symBinAddr: 0x57798, symSize: 0x34 }
  - { offsetInCU: 0x4186D, offset: 0x930C7, size: 0x8, addend: 0x0, symName: __ZNSt3__1eqB7v160006IPKNS_4pairIPKSt9type_infoPFPvS5_EEEEEbRKNS_11__wrap_iterIT_EESF_, symObjAddr: 0x3FFE8, symBinAddr: 0x578CC, symSize: 0x48 }
  - { offsetInCU: 0x418B0, offset: 0x9310A, size: 0x8, addend: 0x0, symName: __ZNSt3__1eqB7v160006IPKPFP7_objectS2_P11_typeobjectEEEbRKNS_11__wrap_iterIT_EESD_, symObjAddr: 0x4013C, symBinAddr: 0x57A20, symSize: 0x48 }
  - { offsetInCU: 0x41911, offset: 0x9316B, size: 0x8, addend: 0x0, symName: __ZNSt3__125__debug_db_invalidate_allB7v160006INS_12__hash_tableIP7_objectNS_4hashIS3_EENS_8equal_toIS3_EENS_9allocatorIS3_EEEEEEvPT_, symObjAddr: 0x4152C, symBinAddr: 0x58E10, symSize: 0x10 }
  - { offsetInCU: 0x41942, offset: 0x9319C, size: 0x8, addend: 0x0, symName: __ZNSt3__1neB7v160006IPPFbP7_objectRPvEEEbRKNS_11__wrap_iterIT_EESC_, symObjAddr: 0x41910, symBinAddr: 0x591F4, symSize: 0x34 }
  - { offsetInCU: 0x41985, offset: 0x931DF, size: 0x8, addend: 0x0, symName: __ZNSt3__1eqB7v160006IPPFbP7_objectRPvEEEbRKNS_11__wrap_iterIT_EESC_, symObjAddr: 0x41A10, symBinAddr: 0x592F4, symSize: 0x48 }
  - { offsetInCU: 0x419D3, offset: 0x9322D, size: 0x8, addend: 0x0, symName: __ZNSt3__13getB7v160006ILm0EJN8pybind116detail11type_casterINS2_16value_and_holderEvEENS3_IcvEENS3_IivEEEEERNS_13tuple_elementIXT_ENS_5tupleIJDpT0_EEEE4typeERSC_, symObjAddr: 0x42B70, symBinAddr: 0x5A454, symSize: 0x24 }
  - { offsetInCU: 0x41A20, offset: 0x9327A, size: 0x8, addend: 0x0, symName: __ZNSt3__13getB7v160006ILm1EJN8pybind116detail11type_casterINS2_16value_and_holderEvEENS3_IcvEENS3_IivEEEEERNS_13tuple_elementIXT_ENS_5tupleIJDpT0_EEEE4typeERSC_, symObjAddr: 0x42BEC, symBinAddr: 0x5A4D0, symSize: 0x28 }
  - { offsetInCU: 0x41A6D, offset: 0x932C7, size: 0x8, addend: 0x0, symName: __ZNSt3__13getB7v160006ILm2EJN8pybind116detail11type_casterINS2_16value_and_holderEvEENS3_IcvEENS3_IivEEEEERNS_13tuple_elementIXT_ENS_5tupleIJDpT0_EEEE4typeERSC_, symObjAddr: 0x42CF4, symBinAddr: 0x5A5D8, symSize: 0x28 }
  - { offsetInCU: 0x41AE9, offset: 0x93343, size: 0x8, addend: 0x0, symName: __ZNSt3__13getB7v160006ILm0EJN8pybind116detail11type_casterI12CustomAntEnvvEEEEERNS_13tuple_elementIXT_ENS_5tupleIJDpT0_EEEE4typeERSA_, symObjAddr: 0x448D0, symBinAddr: 0x5C188, symSize: 0x24 }
  - { offsetInCU: 0x41B2C, offset: 0x93386, size: 0x8, addend: 0x0, symName: __ZNSt3__119__debug_db_insert_cB7v160006INS_6vectorIlNS_9allocatorIlEEEEEEvPT_, symObjAddr: 0x45414, symBinAddr: 0x5CC20, symSize: 0x10 }
  - { offsetInCU: 0x41B5D, offset: 0x933B7, size: 0x8, addend: 0x0, symName: __ZNSt3__122__make_exception_guardB7v160006INS_6vectorIlNS_9allocatorIlEEE16__destroy_vectorEEENS_28__exception_guard_exceptionsIT_EES7_, symObjAddr: 0x457C4, symBinAddr: 0x5CEE8, symSize: 0x40 }
  - { offsetInCU: 0x41B92, offset: 0x933EC, size: 0x8, addend: 0x0, symName: __ZNSt3__18distanceB7v160006IPKlEENS_15iterator_traitsIT_E15difference_typeES4_S4_, symObjAddr: 0x45804, symBinAddr: 0x5CF28, symSize: 0x2C }
  - { offsetInCU: 0x41BD5, offset: 0x9342F, size: 0x8, addend: 0x0, symName: __ZNSt3__110__distanceB7v160006IPKlEENS_15iterator_traitsIT_E15difference_typeES4_S4_NS_26random_access_iterator_tagE, symObjAddr: 0x45A08, symBinAddr: 0x5D12C, symSize: 0x28 }
  - { offsetInCU: 0x41C24, offset: 0x9347E, size: 0x8, addend: 0x0, symName: __ZNSt3__119__allocate_at_leastB7v160006INS_9allocatorIlEEEENS_19__allocation_resultINS_16allocator_traitsIT_E7pointerEEERS5_m, symObjAddr: 0x45AAC, symBinAddr: 0x5D1D0, symSize: 0x40 }
  - { offsetInCU: 0x41C67, offset: 0x934C1, size: 0x8, addend: 0x0, symName: __ZNSt3__130__uninitialized_allocator_copyB7v160006INS_9allocatorIlEEllLPv0EEEPT0_RT_PKS4_S9_S5_, symObjAddr: 0x45D24, symBinAddr: 0x5D448, symSize: 0x38 }
  - { offsetInCU: 0x41CDF, offset: 0x93539, size: 0x8, addend: 0x0, symName: __ZNSt3__14copyB7v160006IPKlPlEET0_T_S5_S4_, symObjAddr: 0x45DCC, symBinAddr: 0x5D4F0, symSize: 0x40 }
  - { offsetInCU: 0x41D39, offset: 0x93593, size: 0x8, addend: 0x0, symName: __ZNSt3__16__copyB7v160006INS_17_ClassicAlgPolicyEPKlS3_PlEENS_4pairIT0_T2_EES6_T1_S7_, symObjAddr: 0x45E0C, symBinAddr: 0x5D530, symSize: 0x44 }
  - { offsetInCU: 0x41DA5, offset: 0x935FF, size: 0x8, addend: 0x0, symName: __ZNSt3__123__dispatch_copy_or_moveB7v160006INS_17_ClassicAlgPolicyENS_11__copy_loopIS1_EENS_14__copy_trivialEPKlS6_PlEENS_4pairIT2_T4_EES9_T3_SA_, symObjAddr: 0x45E50, symBinAddr: 0x5D574, symSize: 0x44 }
  - { offsetInCU: 0x41E23, offset: 0x9367D, size: 0x8, addend: 0x0, symName: __ZNSt3__121__unwrap_and_dispatchB7v160006INS_10__overloadINS_11__copy_loopINS_17_ClassicAlgPolicyEEENS_14__copy_trivialEEEPKlS8_PlLi0EEENS_4pairIT0_T2_EESB_T1_SC_, symObjAddr: 0x45E94, symBinAddr: 0x5D5B8, symSize: 0xB4 }
  - { offsetInCU: 0x41EB1, offset: 0x9370B, size: 0x8, addend: 0x0, symName: __ZNSt3__114__unwrap_rangeB7v160006IPKlS2_EENS_4pairIT0_S4_EET_S6_, symObjAddr: 0x45F48, symBinAddr: 0x5D66C, symSize: 0x60 }
  - { offsetInCU: 0x42000, offset: 0x9385A, size: 0x8, addend: 0x0, symName: __ZNSt3__113__unwrap_iterB7v160006IPlNS_18__unwrap_iter_implIS1_Lb1EEELi0EEEDTclsrT0_8__unwrapclsr3stdE7declvalIT_EEEES5_, symObjAddr: 0x45FF0, symBinAddr: 0x5D714, symSize: 0x24 }
  - { offsetInCU: 0x42044, offset: 0x9389E, size: 0x8, addend: 0x0, symName: __ZNSt3__19make_pairB7v160006IPKlPlEENS_4pairINS_18__unwrap_ref_decayIT_E4typeENS5_IT0_E4typeEEEOS6_OS9_, symObjAddr: 0x46014, symBinAddr: 0x5D738, symSize: 0x38 }
  - { offsetInCU: 0x42093, offset: 0x938ED, size: 0x8, addend: 0x0, symName: __ZNSt3__114__rewrap_rangeB7v160006IPKlS2_EET_S3_T0_, symObjAddr: 0x4604C, symBinAddr: 0x5D770, symSize: 0x2C }
  - { offsetInCU: 0x420DF, offset: 0x93939, size: 0x8, addend: 0x0, symName: __ZNSt3__113__rewrap_iterB7v160006IPlS1_NS_18__unwrap_iter_implIS1_Lb1EEEEET_S4_T0_, symObjAddr: 0x46078, symBinAddr: 0x5D79C, symSize: 0x3C }
  - { offsetInCU: 0x42134, offset: 0x9398E, size: 0x8, addend: 0x0, symName: __ZNSt3__19make_pairB7v160006IPKlS2_EENS_4pairINS_18__unwrap_ref_decayIT_E4typeENS4_IT0_E4typeEEEOS5_OS8_, symObjAddr: 0x460B4, symBinAddr: 0x5D7D8, symSize: 0x38 }
  - { offsetInCU: 0x42183, offset: 0x939DD, size: 0x8, addend: 0x0, symName: __ZNSt3__113__unwrap_iterB7v160006IPKlNS_18__unwrap_iter_implIS2_Lb1EEELi0EEEDTclsrT0_8__unwrapclsr3stdE7declvalIT_EEEES6_, symObjAddr: 0x460EC, symBinAddr: 0x5D810, symSize: 0x24 }
  - { offsetInCU: 0x422EE, offset: 0x93B48, size: 0x8, addend: 0x0, symName: __ZNSt3__112__to_addressB7v160006IKlEEPT_S3_, symObjAddr: 0x461A4, symBinAddr: 0x5D8C8, symSize: 0x14 }
  - { offsetInCU: 0x42324, offset: 0x93B7E, size: 0x8, addend: 0x0, symName: __ZNSt3__119__copy_trivial_implB7v160006IKllEENS_4pairIPT_PT0_EES4_S4_S6_, symObjAddr: 0x461B8, symBinAddr: 0x5D8DC, symSize: 0x84 }
  - { offsetInCU: 0x4238C, offset: 0x93BE6, size: 0x8, addend: 0x0, symName: __ZNSt3__19make_pairB7v160006IRPKlPlEENS_4pairINS_18__unwrap_ref_decayIT_E4typeENS6_IT0_E4typeEEEOS7_OSA_, symObjAddr: 0x4623C, symBinAddr: 0x5D960, symSize: 0x38 }
  - { offsetInCU: 0x4242E, offset: 0x93C88, size: 0x8, addend: 0x0, symName: __ZNSt3__113__rewrap_iterB7v160006IPKlS2_NS_18__unwrap_iter_implIS2_Lb1EEEEET_S5_T0_, symObjAddr: 0x46378, symBinAddr: 0x5DA9C, symSize: 0x3C }
  - { offsetInCU: 0x42483, offset: 0x93CDD, size: 0x8, addend: 0x0, symName: __ZNSt3__115__debug_db_swapB7v160006INS_6vectorIlNS_9allocatorIlEEEEEEvPT_S6_, symObjAddr: 0x46C64, symBinAddr: 0x5E370, symSize: 0x14 }
  - { offsetInCU: 0x424C2, offset: 0x93D1C, size: 0x8, addend: 0x0, symName: __ZNSt3__125__debug_db_invalidate_allB7v160006INS_6vectorIlNS_9allocatorIlEEEEEEvPT_, symObjAddr: 0x479B4, symBinAddr: 0x5F0C0, symSize: 0x10 }
  - { offsetInCU: 0x4255C, offset: 0x93DB6, size: 0x8, addend: 0x0, symName: __ZNSt3__13getB7v160006ILm0EJN8pybind116detail11type_casterI12CustomAntEnvvEENS3_IN5Eigen6MatrixIdLin1ELin1ELi0ELin1ELin1EEEvEEEEERNS_13tuple_elementIXT_ENS_5tupleIJDpT0_EEEE4typeERSE_, symObjAddr: 0x4A0EC, symBinAddr: 0x61328, symSize: 0x24 }
  - { offsetInCU: 0x425A4, offset: 0x93DFE, size: 0x8, addend: 0x0, symName: __ZNSt3__13getB7v160006ILm1EJN8pybind116detail11type_casterI12CustomAntEnvvEENS3_IN5Eigen6MatrixIdLin1ELin1ELi0ELin1ELin1EEEvEEEEERNS_13tuple_elementIXT_ENS_5tupleIJDpT0_EEEE4typeERSE_, symObjAddr: 0x4A110, symBinAddr: 0x6134C, symSize: 0x28 }
  - { offsetInCU: 0x425EC, offset: 0x93E46, size: 0x8, addend: 0x0, symName: __ZNSt3__1plB7v160006IcNS_11char_traitsIcEENS_9allocatorIcEEEENS_12basic_stringIT_T0_T1_EERKS9_PKS6_, symObjAddr: 0x4B134, symBinAddr: 0x622E8, symSize: 0x11C }
  - { offsetInCU: 0x4268D, offset: 0x93EE7, size: 0x8, addend: 0x0, symName: __ZNSt3__14copyB7v160006IPKcPcEET0_T_S5_S4_, symObjAddr: 0x4B9AC, symBinAddr: 0x629E4, symSize: 0x40 }
  - { offsetInCU: 0x426E7, offset: 0x93F41, size: 0x8, addend: 0x0, symName: __ZNSt3__16__copyB7v160006INS_17_ClassicAlgPolicyEPKcS3_PcEENS_4pairIT0_T2_EES6_T1_S7_, symObjAddr: 0x4B9EC, symBinAddr: 0x62A24, symSize: 0x44 }
  - { offsetInCU: 0x42753, offset: 0x93FAD, size: 0x8, addend: 0x0, symName: __ZNSt3__123__dispatch_copy_or_moveB7v160006INS_17_ClassicAlgPolicyENS_11__copy_loopIS1_EENS_14__copy_trivialEPKcS6_PcEENS_4pairIT2_T4_EES9_T3_SA_, symObjAddr: 0x4BA30, symBinAddr: 0x62A68, symSize: 0x44 }
  - { offsetInCU: 0x427D1, offset: 0x9402B, size: 0x8, addend: 0x0, symName: __ZNSt3__121__unwrap_and_dispatchB7v160006INS_10__overloadINS_11__copy_loopINS_17_ClassicAlgPolicyEEENS_14__copy_trivialEEEPKcS8_PcLi0EEENS_4pairIT0_T2_EESB_T1_SC_, symObjAddr: 0x4BA74, symBinAddr: 0x62AAC, symSize: 0xB4 }
  - { offsetInCU: 0x4285F, offset: 0x940B9, size: 0x8, addend: 0x0, symName: __ZNSt3__114__unwrap_rangeB7v160006IPKcS2_EENS_4pairIT0_S4_EET_S6_, symObjAddr: 0x4BB28, symBinAddr: 0x62B60, symSize: 0x60 }
  - { offsetInCU: 0x429AE, offset: 0x94208, size: 0x8, addend: 0x0, symName: __ZNSt3__113__unwrap_iterB7v160006IPcNS_18__unwrap_iter_implIS1_Lb1EEELi0EEEDTclsrT0_8__unwrapclsr3stdE7declvalIT_EEEES5_, symObjAddr: 0x4BBD0, symBinAddr: 0x62C08, symSize: 0x24 }
  - { offsetInCU: 0x429F2, offset: 0x9424C, size: 0x8, addend: 0x0, symName: __ZNSt3__19make_pairB7v160006IPKcPcEENS_4pairINS_18__unwrap_ref_decayIT_E4typeENS5_IT0_E4typeEEEOS6_OS9_, symObjAddr: 0x4BBF4, symBinAddr: 0x62C2C, symSize: 0x38 }
  - { offsetInCU: 0x42A41, offset: 0x9429B, size: 0x8, addend: 0x0, symName: __ZNSt3__114__rewrap_rangeB7v160006IPKcS2_EET_S3_T0_, symObjAddr: 0x4BC2C, symBinAddr: 0x62C64, symSize: 0x2C }
  - { offsetInCU: 0x42A8D, offset: 0x942E7, size: 0x8, addend: 0x0, symName: __ZNSt3__113__rewrap_iterB7v160006IPcS1_NS_18__unwrap_iter_implIS1_Lb1EEEEET_S4_T0_, symObjAddr: 0x4BC58, symBinAddr: 0x62C90, symSize: 0x3C }
  - { offsetInCU: 0x42AE2, offset: 0x9433C, size: 0x8, addend: 0x0, symName: __ZNSt3__19make_pairB7v160006IPKcS2_EENS_4pairINS_18__unwrap_ref_decayIT_E4typeENS4_IT0_E4typeEEEOS5_OS8_, symObjAddr: 0x4BC94, symBinAddr: 0x62CCC, symSize: 0x38 }
  - { offsetInCU: 0x42B31, offset: 0x9438B, size: 0x8, addend: 0x0, symName: __ZNSt3__113__unwrap_iterB7v160006IPKcNS_18__unwrap_iter_implIS2_Lb1EEELi0EEEDTclsrT0_8__unwrapclsr3stdE7declvalIT_EEEES6_, symObjAddr: 0x4BCCC, symBinAddr: 0x62D04, symSize: 0x24 }
  - { offsetInCU: 0x42BC8, offset: 0x94422, size: 0x8, addend: 0x0, symName: __ZNSt3__119__copy_trivial_implB7v160006IKccEENS_4pairIPT_PT0_EES4_S4_S6_, symObjAddr: 0x4BD84, symBinAddr: 0x62DBC, symSize: 0x7C }
  - { offsetInCU: 0x42C30, offset: 0x9448A, size: 0x8, addend: 0x0, symName: __ZNSt3__19make_pairB7v160006IRPKcPcEENS_4pairINS_18__unwrap_ref_decayIT_E4typeENS6_IT0_E4typeEEEOS7_OSA_, symObjAddr: 0x4BE00, symBinAddr: 0x62E38, symSize: 0x38 }
  - { offsetInCU: 0x42CD2, offset: 0x9452C, size: 0x8, addend: 0x0, symName: __ZNSt3__113__rewrap_iterB7v160006IPKcS2_NS_18__unwrap_iter_implIS2_Lb1EEEEET_S5_T0_, symObjAddr: 0x4BF3C, symBinAddr: 0x62F74, symSize: 0x3C }
  - { offsetInCU: 0x42D27, offset: 0x94581, size: 0x8, addend: 0x0, symName: __ZNSt3__16fill_nB7v160006IPcmcEET_S2_T0_RKT1_, symObjAddr: 0x4C008, symBinAddr: 0x63040, symSize: 0x44 }
  - { offsetInCU: 0x42D8A, offset: 0x945E4, size: 0x8, addend: 0x0, symName: __ZNSt3__18__fill_nB7v160006IPcmcEET_S2_T0_RKT1_, symObjAddr: 0x4C04C, symBinAddr: 0x63084, symSize: 0x64 }
  - { offsetInCU: 0x42DEE, offset: 0x94648, size: 0x8, addend: 0x0, symName: __ZNSt3__13getB7v160006ILm0EJN8pybind116detail11type_casterI12CustomAntEnvvEENS3_INS_12basic_stringIcNS_11char_traitsIcEENS_9allocatorIcEEEEvEEEEERNS_13tuple_elementIXT_ENS_5tupleIJDpT0_EEEE4typeERSH_, symObjAddr: 0x4D2FC, symBinAddr: 0x63E00, symSize: 0x24 }
  - { offsetInCU: 0x42E36, offset: 0x94690, size: 0x8, addend: 0x0, symName: __ZNSt3__13getB7v160006ILm1EJN8pybind116detail11type_casterI12CustomAntEnvvEENS3_INS_12basic_stringIcNS_11char_traitsIcEENS_9allocatorIcEEEEvEEEEERNS_13tuple_elementIXT_ENS_5tupleIJDpT0_EEEE4typeERSH_, symObjAddr: 0x4D320, symBinAddr: 0x63E24, symSize: 0x28 }
  - { offsetInCU: 0x43916, offset: 0x95170, size: 0x8, addend: 0x0, symName: __ZStneB7v160006RKSt13exception_ptrS1_, symObjAddr: 0xD3A8, symBinAddr: 0x24F34, symSize: 0x34 }
  - { offsetInCU: 0x43950, offset: 0x951AA, size: 0x8, addend: 0x0, symName: __ZSteqB7v160006RKSt13exception_ptrS1_, symObjAddr: 0xD410, symBinAddr: 0x24F9C, symSize: 0x30 }
  - { offsetInCU: 0x43C0A, offset: 0x95464, size: 0x8, addend: 0x0, symName: __ZN8pybind116detail16get_internals_ppEv, symObjAddr: 0xCC8, symBinAddr: 0x192E4, symSize: 0xC }
  - { offsetInCU: 0x43C35, offset: 0x9548F, size: 0x8, addend: 0x0, symName: __ZZN8pybind116detail16get_internals_ppEvE12internals_pp, symObjAddr: 0x51ED0, symBinAddr: 0x746F0, symSize: 0x0 }
  - { offsetInCU: 0x45E09, offset: 0x97663, size: 0x8, addend: 0x0, symName: __ZN8pybind116detail23all_type_info_get_cacheEP11_typeobject, symObjAddr: 0xDEA0, symBinAddr: 0x25A2C, symSize: 0xF4 }
  - { offsetInCU: 0x45EC8, offset: 0x97722, size: 0x8, addend: 0x0, symName: __ZN8pybind116detail19get_local_internalsEv, symObjAddr: 0x1A338, symBinAddr: 0x31C90, symSize: 0xD8 }
  - { offsetInCU: 0x45EF4, offset: 0x9774E, size: 0x8, addend: 0x0, symName: __ZZN8pybind116detail19get_local_internalsEvE6locals, symObjAddr: 0x51ED8, symBinAddr: 0x746F8, symSize: 0x0 }
  - { offsetInCU: 0x45F65, offset: 0x977BF, size: 0x8, addend: 0x0, symName: __ZN8pybind116detail25enable_dynamic_attributesEP15_heaptypeobject, symObjAddr: 0x39624, symBinAddr: 0x50F08, symSize: 0x78 }
  - { offsetInCU: 0x45F8C, offset: 0x977E6, size: 0x8, addend: 0x0, symName: __ZZN8pybind116detail25enable_dynamic_attributesEP15_heaptypeobjectE6getset, symObjAddr: 0x51F00, symBinAddr: 0x74720, symSize: 0x0 }
  - { offsetInCU: 0x45FF9, offset: 0x97853, size: 0x8, addend: 0x0, symName: __ZN8pybind116detail8initimpl23construct_or_initializeI12CustomAntEnvJPKciELi0EEEPT_DpOT0_, symObjAddr: 0x4319C, symBinAddr: 0x5AA80, symSize: 0x6C }
  - { offsetInCU: 0x49415, offset: 0x9AC6F, size: 0x8, addend: 0x0, symName: __ZN8pybind116detail13get_internalsEv, symObjAddr: 0x304, symBinAddr: 0x1896C, symSize: 0x5C0 }
  - { offsetInCU: 0x49511, offset: 0x9AD6B, size: 0x8, addend: 0x0, symName: __ZN8pybind116detail25translate_local_exceptionESt13exception_ptr, symObjAddr: 0x1190, symBinAddr: 0x197AC, symSize: 0x11C }
  - { offsetInCU: 0x4955A, offset: 0x9ADB4, size: 0x8, addend: 0x0, symName: __ZN8pybind116detail19translate_exceptionESt13exception_ptr, symObjAddr: 0x140C, symBinAddr: 0x19A28, symSize: 0x658 }
  - { offsetInCU: 0x49649, offset: 0x9AEA3, size: 0x8, addend: 0x0, symName: __ZN8pybind116detail25make_static_property_typeEv, symObjAddr: 0x1A64, symBinAddr: 0x1A080, symSize: 0x214 }
  - { offsetInCU: 0x4969F, offset: 0x9AEF9, size: 0x8, addend: 0x0, symName: __ZN8pybind116detail22make_default_metaclassEv, symObjAddr: 0x1C78, symBinAddr: 0x1A294, symSize: 0x228 }
  - { offsetInCU: 0x496F7, offset: 0x9AF51, size: 0x8, addend: 0x0, symName: __ZN8pybind116detail21make_object_base_typeEP11_typeobject, symObjAddr: 0x1EA0, symBinAddr: 0x1A4BC, symSize: 0x2C8 }
  - { offsetInCU: 0x49761, offset: 0x9AFBB, size: 0x8, addend: 0x0, symName: __ZN8pybind116detail14obj_class_nameEP7_object, symObjAddr: 0x2E64, symBinAddr: 0x1B44C, symSize: 0x5C }
  - { offsetInCU: 0x49790, offset: 0x9AFEA, size: 0x8, addend: 0x0, symName: __ZN8pybind116detail12error_stringEv, symObjAddr: 0x3CE8, symBinAddr: 0x1BE84, symSize: 0x7C }
  - { offsetInCU: 0x497AE, offset: 0x9B008, size: 0x8, addend: 0x0, symName: __ZN8pybind116detail7cast_opINSt3__112basic_stringIcNS2_11char_traitsIcEENS2_9allocatorIcEEEEEENS0_11type_casterINS0_14intrinsic_typeIT_E4typeEvE12cast_op_typeINS2_20add_rvalue_referenceISB_E4typeEEEOSE_, symObjAddr: 0x45C8, symBinAddr: 0x1C5D8, symSize: 0x24 }
  - { offsetInCU: 0x497E3, offset: 0x9B03D, size: 0x8, addend: 0x0, symName: __ZN8pybind116detail9load_typeINSt3__112basic_stringIcNS2_11char_traitsIcEENS2_9allocatorIcEEEEEENS0_11type_casterINS0_14intrinsic_typeIT_E4typeEvEERKNS_6handleE, symObjAddr: 0x45EC, symBinAddr: 0x1C5FC, symSize: 0xA0 }
  - { offsetInCU: 0x4982A, offset: 0x9B084, size: 0x8, addend: 0x0, symName: __ZN8pybind116detail9load_typeINSt3__112basic_stringIcNS2_11char_traitsIcEENS2_9allocatorIcEEEEvEERNS0_11type_casterIT_T0_EESD_RKNS_6handleE, symObjAddr: 0x46F8, symBinAddr: 0x1C708, symSize: 0x260 }
  - { offsetInCU: 0x49875, offset: 0x9B0CF, size: 0x8, addend: 0x0, symName: __ZN8pybind116detail13clean_type_idEPKc, symObjAddr: 0x5304, symBinAddr: 0x1D314, symSize: 0xA0 }
  - { offsetInCU: 0x498B0, offset: 0x9B10A, size: 0x8, addend: 0x0, symName: __ZN8pybind116detail13clean_type_idERNSt3__112basic_stringIcNS1_11char_traitsIcEENS1_9allocatorIcEEEE, symObjAddr: 0x53C8, symBinAddr: 0x1D3D8, symSize: 0x104 }
  - { offsetInCU: 0x498F4, offset: 0x9B14E, size: 0x8, addend: 0x0, symName: __ZN8pybind116detail9erase_allERNSt3__112basic_stringIcNS1_11char_traitsIcEENS1_9allocatorIcEEEERKS7_, symObjAddr: 0x5554, symBinAddr: 0x1D540, symSize: 0x80 }
  - { offsetInCU: 0x49947, offset: 0x9B1A1, size: 0x8, addend: 0x0, symName: __ZN8pybind116detail26get_thread_state_uncheckedEv, symObjAddr: 0x5FF8, symBinAddr: 0x1DC68, symSize: 0x14 }
  - { offsetInCU: 0x49965, offset: 0x9B1BF, size: 0x8, addend: 0x0, symName: __ZN8pybind116detail17collect_argumentsILNS_19return_value_policyE1EJRNS_3strEEvEENS0_16simple_collectorIXT_EEEDpOT0_, symObjAddr: 0x6EC4, symBinAddr: 0x1EB34, symSize: 0x38 }
  - { offsetInCU: 0x49A93, offset: 0x9B2ED, size: 0x8, addend: 0x0, symName: __ZN8pybind116detail7cast_opIbEENS0_11type_casterINS0_14intrinsic_typeIT_E4typeEvE12cast_op_typeINSt3__120add_rvalue_referenceIS4_E4typeEEEOS7_, symObjAddr: 0x7F1C, symBinAddr: 0x1FB8C, symSize: 0x24 }
  - { offsetInCU: 0x49AC8, offset: 0x9B322, size: 0x8, addend: 0x0, symName: __ZN8pybind116detail9load_typeIbEENS0_11type_casterINS0_14intrinsic_typeIT_E4typeEvEERKNS_6handleE, symObjAddr: 0x7F40, symBinAddr: 0x1FBB0, symSize: 0x2C }
  - { offsetInCU: 0x49C2A, offset: 0x9B484, size: 0x8, addend: 0x0, symName: __ZN8pybind116detail9load_typeIbvEERNS0_11type_casterIT_T0_EES6_RKNS_6handleE, symObjAddr: 0x7F80, symBinAddr: 0x1FBF0, symSize: 0x260 }
  - { offsetInCU: 0x49C75, offset: 0x9B4CF, size: 0x8, addend: 0x0, symName: __ZN8pybind116detail27get_fully_qualified_tp_nameEP11_typeobject, symObjAddr: 0x8A74, symBinAddr: 0x206E4, symSize: 0x3C }
  - { offsetInCU: 0x49CA2, offset: 0x9B4FC, size: 0x8, addend: 0x0, symName: __ZN8pybind116detail14object_or_castINS_7capsuleELi0EEEDTclsr3stdE7forwardIT_Efp_EEOS3_, symObjAddr: 0xC9B8, symBinAddr: 0x24544, symSize: 0x14 }
  - { offsetInCU: 0x49CDE, offset: 0x9B538, size: 0x8, addend: 0x0, symName: __ZN8pybind116detail9raise_errEP7_objectPKc, symObjAddr: 0xC9CC, symBinAddr: 0x24558, symSize: 0x7C }
  - { offsetInCU: 0x49D1B, offset: 0x9B575, size: 0x8, addend: 0x0, symName: __ZN8pybind116detail23handle_nested_exceptionISt16nested_exceptionLi0EEEbRKT_RKSt13exception_ptr, symObjAddr: 0xCA48, symBinAddr: 0x245D4, symSize: 0x120 }
  - { offsetInCU: 0x49D76, offset: 0x9B5D0, size: 0x8, addend: 0x0, symName: __ZN8pybind116detail23handle_nested_exceptionISt9exceptionLi0EEEbRKT_RKSt13exception_ptr, symObjAddr: 0xCB68, symBinAddr: 0x246F4, symSize: 0xBC }
  - { offsetInCU: 0x49DD7, offset: 0x9B631, size: 0x8, addend: 0x0, symName: __ZN8pybind116detail23handle_nested_exceptionISt14overflow_errorLi0EEEbRKT_RKSt13exception_ptr, symObjAddr: 0xCC24, symBinAddr: 0x247B0, symSize: 0xBC }
  - { offsetInCU: 0x49E38, offset: 0x9B692, size: 0x8, addend: 0x0, symName: __ZN8pybind116detail23handle_nested_exceptionISt11range_errorLi0EEEbRKT_RKSt13exception_ptr, symObjAddr: 0xCCE0, symBinAddr: 0x2486C, symSize: 0xBC }
  - { offsetInCU: 0x49E99, offset: 0x9B6F3, size: 0x8, addend: 0x0, symName: __ZN8pybind116detail23handle_nested_exceptionISt12out_of_rangeLi0EEEbRKT_RKSt13exception_ptr, symObjAddr: 0xCD9C, symBinAddr: 0x24928, symSize: 0xBC }
  - { offsetInCU: 0x49EFA, offset: 0x9B754, size: 0x8, addend: 0x0, symName: __ZN8pybind116detail23handle_nested_exceptionISt12length_errorLi0EEEbRKT_RKSt13exception_ptr, symObjAddr: 0xCE58, symBinAddr: 0x249E4, symSize: 0xBC }
  - { offsetInCU: 0x49F5B, offset: 0x9B7B5, size: 0x8, addend: 0x0, symName: __ZN8pybind116detail23handle_nested_exceptionISt16invalid_argumentLi0EEEbRKT_RKSt13exception_ptr, symObjAddr: 0xCF14, symBinAddr: 0x24AA0, symSize: 0xBC }
  - { offsetInCU: 0x49FBC, offset: 0x9B816, size: 0x8, addend: 0x0, symName: __ZN8pybind116detail23handle_nested_exceptionISt12domain_errorLi0EEEbRKT_RKSt13exception_ptr, symObjAddr: 0xCFD0, symBinAddr: 0x24B5C, symSize: 0xBC }
  - { offsetInCU: 0x4A01D, offset: 0x9B877, size: 0x8, addend: 0x0, symName: __ZN8pybind116detail23handle_nested_exceptionISt9bad_allocLi0EEEbRKT_RKSt13exception_ptr, symObjAddr: 0xD08C, symBinAddr: 0x24C18, symSize: 0xBC }
  - { offsetInCU: 0x4A07E, offset: 0x9B8D8, size: 0x8, addend: 0x0, symName: __ZN8pybind116detail23handle_nested_exceptionINS_17error_already_setELi0EEEbRKT_RKSt13exception_ptr, symObjAddr: 0xD148, symBinAddr: 0x24CD4, symSize: 0xBC }
  - { offsetInCU: 0x4A0DF, offset: 0x9B939, size: 0x8, addend: 0x0, symName: __ZN8pybind116detail11type_increfEP11_typeobject, symObjAddr: 0xD45C, symBinAddr: 0x24FE8, symSize: 0x28 }
  - { offsetInCU: 0x4A10B, offset: 0x9B965, size: 0x8, addend: 0x0, symName: __ZN8pybind116detail13all_type_infoEP11_typeobject, symObjAddr: 0xDE38, symBinAddr: 0x259C4, symSize: 0x68 }
  - { offsetInCU: 0x4A145, offset: 0x9B99F, size: 0x8, addend: 0x0, symName: __ZN8pybind116detail22all_type_info_populateEP11_typeobjectRNSt3__16vectorIPNS0_9type_infoENS3_9allocatorIS6_EEEE, symObjAddr: 0xDF94, symBinAddr: 0x25B20, symSize: 0x4B0 }
  - { offsetInCU: 0x4A492, offset: 0x9BCEC, size: 0x8, addend: 0x0, symName: __ZN8pybind116detail7cast_opINS_6handleEEENS0_11type_casterINS0_14intrinsic_typeIT_E4typeEvE12cast_op_typeINSt3__120add_rvalue_referenceIS5_E4typeEEEOS8_, symObjAddr: 0x14508, symBinAddr: 0x2BFE0, symSize: 0x24 }
  - { offsetInCU: 0x4A4C7, offset: 0x9BD21, size: 0x8, addend: 0x0, symName: __ZN8pybind116detail13get_type_infoERKNSt3__110type_indexEb, symObjAddr: 0x159F8, symBinAddr: 0x2D4D0, symSize: 0x150 }
  - { offsetInCU: 0x4A545, offset: 0x9BD9F, size: 0x8, addend: 0x0, symName: __ZN8pybind116detail26is_function_record_capsuleERKNS_7capsuleE, symObjAddr: 0x15CE0, symBinAddr: 0x2D7B8, symSize: 0x40 }
  - { offsetInCU: 0x4A574, offset: 0x9BDCE, size: 0x8, addend: 0x0, symName: __ZN8pybind116detail32get_function_record_capsule_nameEv, symObjAddr: 0x1811C, symBinAddr: 0x2FBF4, symSize: 0x8 }
  - { offsetInCU: 0x4A592, offset: 0x9BDEC, size: 0x8, addend: 0x0, symName: __ZN8pybind116detail19get_local_type_infoERKNSt3__110type_indexE, symObjAddr: 0x1A1D0, symBinAddr: 0x31B28, symSize: 0x80 }
  - { offsetInCU: 0x4A5DA, offset: 0x9BE34, size: 0x8, addend: 0x0, symName: __ZN8pybind116detail20get_global_type_infoERKNSt3__110type_indexE, symObjAddr: 0x1A250, symBinAddr: 0x31BA8, symSize: 0x80 }
  - { offsetInCU: 0x4A622, offset: 0x9BE7C, size: 0x8, addend: 0x0, symName: __ZN8pybind116detail13get_type_infoEP11_typeobject, symObjAddr: 0x1E7D0, symBinAddr: 0x36128, symSize: 0x7C }
  - { offsetInCU: 0x4A65C, offset: 0x9BEB6, size: 0x8, addend: 0x0, symName: __ZN8pybind116detail18dict_getitemstringEP7_objectPKc, symObjAddr: 0x1ECF0, symBinAddr: 0x36648, symSize: 0x124 }
  - { offsetInCU: 0x4A6B7, offset: 0x9BF11, size: 0x8, addend: 0x0, symName: __ZN8pybind116detail27apply_exception_translatorsERNSt3__112forward_listIPFvSt13exception_ptrENS1_9allocatorIS5_EEEE, symObjAddr: 0x1F71C, symBinAddr: 0x37074, symSize: 0x17C }
  - { offsetInCU: 0x4A733, offset: 0x9BF8D, size: 0x8, addend: 0x0, symName: __ZN8pybind116detailneERKNS0_16generic_iteratorINS0_17iterator_policies13dict_readonlyEEES6_, symObjAddr: 0x1FA58, symBinAddr: 0x3733C, symSize: 0x34 }
  - { offsetInCU: 0x4A770, offset: 0x9BFCA, size: 0x8, addend: 0x0, symName: __ZN8pybind116detail14object_or_castEP7_object, symObjAddr: 0x23E9C, symBinAddr: 0x3B780, symSize: 0x2C }
  - { offsetInCU: 0x4A79E, offset: 0x9BFF8, size: 0x8, addend: 0x0, symName: __ZN8pybind116detaileqERKNS0_16generic_iteratorINS0_17iterator_policies13dict_readonlyEEES6_, symObjAddr: 0x28E78, symBinAddr: 0x4075C, symSize: 0x30 }
  - { offsetInCU: 0x4A7DB, offset: 0x9C035, size: 0x8, addend: 0x0, symName: __ZN8pybind116detail17collect_argumentsILNS_19return_value_policyE1EJRNS_6handleEEvEENS0_16simple_collectorIXT_EEEDpOT0_, symObjAddr: 0x29080, symBinAddr: 0x40964, symSize: 0x38 }
  - { offsetInCU: 0x4A81F, offset: 0x9C079, size: 0x8, addend: 0x0, symName: __ZN8pybind116detailneERKNS0_16generic_iteratorINS0_17iterator_policies22sequence_fast_readonlyEEES6_, symObjAddr: 0x2A9F8, symBinAddr: 0x422DC, symSize: 0x34 }
  - { offsetInCU: 0x4A85C, offset: 0x9C0B6, size: 0x8, addend: 0x0, symName: __ZN8pybind116detaileqERKNS0_16generic_iteratorINS0_17iterator_policies22sequence_fast_readonlyEEES6_, symObjAddr: 0x2B0FC, symBinAddr: 0x429E0, symSize: 0x30 }
  - { offsetInCU: 0x4A899, offset: 0x9C0F3, size: 0x8, addend: 0x0, symName: __ZN8pybind116detail17make_new_instanceEP11_typeobject, symObjAddr: 0x30FAC, symBinAddr: 0x48890, symSize: 0x48 }
  - { offsetInCU: 0x4A8E6, offset: 0x9C140, size: 0x8, addend: 0x0, symName: __ZN8pybind116detail30instance_simple_holder_in_ptrsEv, symObjAddr: 0x31204, symBinAddr: 0x48AE8, symSize: 0x18 }
  - { offsetInCU: 0x4A905, offset: 0x9C15F, size: 0x8, addend: 0x0, symName: __ZN8pybind116detailL12size_in_ptrsEm, symObjAddr: 0x3121C, symBinAddr: 0x48B00, symSize: 0x44 }
  - { offsetInCU: 0x4A934, offset: 0x9C18E, size: 0x8, addend: 0x0, symName: __ZN8pybind116detailL4log2Emi, symObjAddr: 0x31260, symBinAddr: 0x48B44, symSize: 0x60 }
  - { offsetInCU: 0x4A971, offset: 0x9C1CB, size: 0x8, addend: 0x0, symName: __ZN8pybind116detail14clear_instanceEP7_object, symObjAddr: 0x312C0, symBinAddr: 0x48BA4, symSize: 0x1C8 }
  - { offsetInCU: 0x4AA29, offset: 0x9C283, size: 0x8, addend: 0x0, symName: __ZN8pybind116detail19deregister_instanceEPNS0_8instanceEPvPKNS0_9type_infoE, symObjAddr: 0x31488, symBinAddr: 0x48D6C, symSize: 0x70 }
  - { offsetInCU: 0x4AA84, offset: 0x9C2DE, size: 0x8, addend: 0x0, symName: __ZN8pybind116detail14clear_patientsEP7_object, symObjAddr: 0x31538, symBinAddr: 0x48E1C, symSize: 0x1B0 }
  - { offsetInCU: 0x4AB41, offset: 0x9C39B, size: 0x8, addend: 0x0, symName: __ZN8pybind116detail24deregister_instance_implEPvPNS0_8instanceE, symObjAddr: 0x316E8, symBinAddr: 0x48FCC, symSize: 0xEC }
  - { offsetInCU: 0x4ABB9, offset: 0x9C413, size: 0x8, addend: 0x0, symName: __ZN8pybind116detail21traverse_offset_basesEPvPKNS0_9type_infoEPNS0_8instanceEPFbS1_S6_E, symObjAddr: 0x317D4, symBinAddr: 0x490B8, symSize: 0x228 }
  - { offsetInCU: 0x4ACE7, offset: 0x9C541, size: 0x8, addend: 0x0, symName: __ZN8pybind116detail16set_operator_newI12CustomAntEnvEEvz, symObjAddr: 0x35758, symBinAddr: 0x4D03C, symSize: 0x4 }
  - { offsetInCU: 0x4AD08, offset: 0x9C562, size: 0x8, addend: 0x0, symName: __ZN8pybind116detail17register_instanceEPNS0_8instanceEPvPKNS0_9type_infoE, symObjAddr: 0x36134, symBinAddr: 0x4DA18, symSize: 0x5C }
  - { offsetInCU: 0x4AD50, offset: 0x9C5AA, size: 0x8, addend: 0x0, symName: __ZN8pybind116detail22register_instance_implEPvPNS0_8instanceE, symObjAddr: 0x36304, symBinAddr: 0x4DBE8, symSize: 0x50 }
  - { offsetInCU: 0x4AD8D, offset: 0x9C5E7, size: 0x8, addend: 0x0, symName: __ZN8pybind116detail20call_operator_deleteEPvmm, symObjAddr: 0x37AA8, symBinAddr: 0x4F38C, symSize: 0x54 }
  - { offsetInCU: 0x4ADD5, offset: 0x9C62F, size: 0x8, addend: 0x0, symName: __ZN8pybind116detail20make_new_python_typeERKNS0_11type_recordE, symObjAddr: 0x37CD4, symBinAddr: 0x4F5B8, symSize: 0xBC4 }
  - { offsetInCU: 0x4AED2, offset: 0x9C72C, size: 0x8, addend: 0x0, symName: __ZN8pybind116detail17collect_argumentsILNS_19return_value_policyE1EJRKPKcEvEENS0_16simple_collectorIXT_EEEDpOT0_, symObjAddr: 0x38E6C, symBinAddr: 0x50750, symSize: 0x38 }
  - { offsetInCU: 0x4AF16, offset: 0x9C770, size: 0x8, addend: 0x0, symName: __ZN8pybind116detail5c_strIJNSt3__112basic_stringIcNS2_11char_traitsIcEENS2_9allocatorIcEEEEEEEPKcDpOT_, symObjAddr: 0x39520, symBinAddr: 0x50E04, symSize: 0x40 }
  - { offsetInCU: 0x4AF5F, offset: 0x9C7B9, size: 0x8, addend: 0x0, symName: __ZN8pybind116detail22enable_buffer_protocolEP15_heaptypeobject, symObjAddr: 0x3969C, symBinAddr: 0x50F80, symSize: 0x40 }
  - { offsetInCU: 0x4AF88, offset: 0x9C7E2, size: 0x8, addend: 0x0, symName: __ZN8pybind116detail9same_typeERKSt9type_infoS3_, symObjAddr: 0x3FD20, symBinAddr: 0x57604, symSize: 0x8C }
  - { offsetInCU: 0x4AFC2, offset: 0x9C81C, size: 0x8, addend: 0x0, symName: __ZN8pybind116detail16add_class_methodERNS_6objectEPKcRKNS_12cpp_functionE, symObjAddr: 0x41F2C, symBinAddr: 0x59810, symSize: 0x23C }
  - { offsetInCU: 0x4B253, offset: 0x9CAAD, size: 0x8, addend: 0x0, symName: __ZN8pybind116detail7cast_opIRNS0_16value_and_holderEEENS0_11type_casterINS0_14intrinsic_typeIT_E4typeEvE12cast_op_typeINSt3__120add_rvalue_referenceIS6_E4typeEEEOS9_, symObjAddr: 0x43130, symBinAddr: 0x5AA14, symSize: 0x24 }
  - { offsetInCU: 0x4B288, offset: 0x9CAE2, size: 0x8, addend: 0x0, symName: __ZN8pybind116detail7cast_opIPKcEENS0_11type_casterINS0_14intrinsic_typeIT_E4typeEvE12cast_op_typeINSt3__120add_rvalue_referenceIS6_E4typeEEEOS9_, symObjAddr: 0x43154, symBinAddr: 0x5AA38, symSize: 0x24 }
  - { offsetInCU: 0x4B2BD, offset: 0x9CB17, size: 0x8, addend: 0x0, symName: __ZN8pybind116detail7cast_opIiEENS0_11type_casterINS0_14intrinsic_typeIT_E4typeEvE12cast_op_typeINSt3__120add_rvalue_referenceIS4_E4typeEEEOS7_, symObjAddr: 0x43178, symBinAddr: 0x5AA5C, symSize: 0x24 }
  - { offsetInCU: 0x4B3CB, offset: 0x9CC25, size: 0x8, addend: 0x0, symName: __ZN8pybind116detail14object_or_castIRKNS_12cpp_functionELi0EEEDTclsr3stdE7forwardIT_Efp_EEOS5_, symObjAddr: 0x438A8, symBinAddr: 0x5B18C, symSize: 0x14 }
  - { offsetInCU: 0x4B407, offset: 0x9CC61, size: 0x8, addend: 0x0, symName: __ZN8pybind116detail17collect_argumentsILNS_19return_value_policyE1EJRA9_KcEvEENS0_16simple_collectorIXT_EEEDpOT0_, symObjAddr: 0x43A80, symBinAddr: 0x5B364, symSize: 0x38 }
  - { offsetInCU: 0x4B44C, offset: 0x9CCA6, size: 0x8, addend: 0x0, symName: __ZN8pybind116detail14object_or_castINS_4noneELi0EEEDTclsr3stdE7forwardIT_Efp_EEOS3_, symObjAddr: 0x43F94, symBinAddr: 0x5B878, symSize: 0x14 }
  - { offsetInCU: 0x4B6C2, offset: 0x9CF1C, size: 0x8, addend: 0x0, symName: __ZN8pybind116detail17eigen_encapsulateINS0_10EigenPropsIN5Eigen6MatrixIdLin1ELi1ELi0ELin1ELi1EEEEES5_vEENS_6handleEPT0_, symObjAddr: 0x44AB8, symBinAddr: 0x5C370, symSize: 0x8C }
  - { offsetInCU: 0x4B74A, offset: 0x9CFA4, size: 0x8, addend: 0x0, symName: __ZN8pybind116detail16eigen_array_castINS0_10EigenPropsIN5Eigen6MatrixIdLin1ELi1ELi0ELin1ELi1EEEEEEENS_6handleERKNT_4TypeES7_b, symObjAddr: 0x44B78, symBinAddr: 0x5C430, symSize: 0x1E4 }
  - { offsetInCU: 0x4B7B8, offset: 0x9D012, size: 0x8, addend: 0x0, symName: __ZN8pybind116detail15eigen_ref_arrayINS0_10EigenPropsIN5Eigen6MatrixIdLin1ELi1ELi0ELin1ELi1EEEEES5_EENS_6handleERT0_S7_, symObjAddr: 0x44D5C, symBinAddr: 0x5C614, symSize: 0x44 }
  - { offsetInCU: 0x4B808, offset: 0x9D062, size: 0x8, addend: 0x0, symName: __ZN8pybind116detail11array_proxyEPv, symObjAddr: 0x451E4, symBinAddr: 0x5C9F0, symSize: 0x14 }
  - { offsetInCU: 0x4B835, offset: 0x9D08F, size: 0x8, addend: 0x0, symName: __ZN8pybind116detail9c_stridesERKNSt3__16vectorIlNS1_9allocatorIlEEEEl, symObjAddr: 0x47214, symBinAddr: 0x5E920, symSize: 0x124 }
  - { offsetInCU: 0x4B8A9, offset: 0x9D103, size: 0x8, addend: 0x0, symName: __ZN8pybind116detail22array_descriptor_proxyEP7_object, symObjAddr: 0x4773C, symBinAddr: 0x5EE48, symSize: 0x14 }
  - { offsetInCU: 0x4B8D6, offset: 0x9D130, size: 0x8, addend: 0x0, symName: __ZN8pybind116detail7cast_opIP12CustomAntEnvEENS0_11type_casterINS0_14intrinsic_typeIT_E4typeEvE12cast_op_typeINSt3__120add_rvalue_referenceIS6_E4typeEEEOS9_, symObjAddr: 0x47D60, symBinAddr: 0x5F46C, symSize: 0x24 }
  - { offsetInCU: 0x4B93A, offset: 0x9D194, size: 0x8, addend: 0x0, symName: __ZN8pybind116detail17eigen_encapsulateINS0_10EigenPropsIN5Eigen6MatrixIdLin1ELin1ELi0ELin1ELin1EEEEES5_vEENS_6handleEPT0_, symObjAddr: 0x48658, symBinAddr: 0x5FC00, symSize: 0x8C }
  - { offsetInCU: 0x4B9C2, offset: 0x9D21C, size: 0x8, addend: 0x0, symName: __ZN8pybind116detail16eigen_array_castINS0_10EigenPropsIN5Eigen6MatrixIdLin1ELin1ELi0ELin1ELin1EEEEEEENS_6handleERKNT_4TypeES7_b, symObjAddr: 0x48718, symBinAddr: 0x5FCC0, symSize: 0x214 }
  - { offsetInCU: 0x4BA34, offset: 0x9D28E, size: 0x8, addend: 0x0, symName: __ZN8pybind116detail15eigen_ref_arrayINS0_10EigenPropsIN5Eigen6MatrixIdLin1ELin1ELi0ELin1ELin1EEEEES5_EENS_6handleERT0_S7_, symObjAddr: 0x4892C, symBinAddr: 0x5FED4, symSize: 0x44 }
  - { offsetInCU: 0x4BA83, offset: 0x9D2DD, size: 0x8, addend: 0x0, symName: __ZN8pybind116detail7cast_opIPK12CustomAntEnvEENS0_11type_casterINS0_14intrinsic_typeIT_E4typeEvE12cast_op_typeINSt3__120add_rvalue_referenceIS7_E4typeEEEOSA_, symObjAddr: 0x48E28, symBinAddr: 0x60208, symSize: 0x24 }
  - { offsetInCU: 0x4BCC0, offset: 0x9D51A, size: 0x8, addend: 0x0, symName: __ZN8pybind116detail11check_flagsEPKvi, symObjAddr: 0x4AA10, symBinAddr: 0x61C18, symSize: 0x4C }
  - { offsetInCU: 0x4BCFE, offset: 0x9D558, size: 0x8, addend: 0x0, symName: __ZN8pybind116detail11array_proxyEPKv, symObjAddr: 0x4AA5C, symBinAddr: 0x61C64, symSize: 0x14 }
  - { offsetInCU: 0x4BD2B, offset: 0x9D585, size: 0x8, addend: 0x0, symName: __ZN8pybind116detail7cast_opIRKN5Eigen6MatrixIdLin1ELin1ELi0ELin1ELin1EEEEENS0_11type_casterINS0_14intrinsic_typeIT_E4typeEvE12cast_op_typeINSt3__120add_rvalue_referenceIS9_E4typeEEEOSC_, symObjAddr: 0x4CA5C, symBinAddr: 0x63560, symSize: 0x24 }
  - { offsetInCU: 0x4BD60, offset: 0x9D5BA, size: 0x8, addend: 0x0, symName: __ZN8pybind116detail7cast_opIRKNSt3__112basic_stringIcNS2_11char_traitsIcEENS2_9allocatorIcEEEEEENS0_11type_casterINS0_14intrinsic_typeIT_E4typeEvE12cast_op_typeINS2_20add_rvalue_referenceISD_E4typeEEEOSG_, symObjAddr: 0x4D440, symBinAddr: 0x63F44, symSize: 0x24 }
  - { offsetInCU: 0x4E823, offset: 0xA007D, size: 0x8, addend: 0x0, symName: __ZN8pybind1110raise_fromERNS_17error_already_setEP7_objectPKc, symObjAddr: 0xC24, symBinAddr: 0x19280, symSize: 0x38 }
  - { offsetInCU: 0x4E8E7, offset: 0xA0141, size: 0x8, addend: 0x0, symName: __ZN8pybind1110isinstanceINS_7capsuleELi0EEEbNS_6handleE, symObjAddr: 0xE78, symBinAddr: 0x19494, symSize: 0x30 }
  - { offsetInCU: 0x4E925, offset: 0xA017F, size: 0x8, addend: 0x0, symName: __ZN8pybind1113pybind11_failEPKc, symObjAddr: 0x12D8, symBinAddr: 0x198F4, symSize: 0x9C }
  - { offsetInCU: 0x4EA7E, offset: 0xA02D8, size: 0x8, addend: 0x0, symName: __ZN8pybind1113pybind11_failERKNSt3__112basic_stringIcNS0_11char_traitsIcEENS0_9allocatorIcEEEE, symObjAddr: 0x2D10, symBinAddr: 0x1B32C, symSize: 0x9C }
  - { offsetInCU: 0x4EAA8, offset: 0xA0302, size: 0x8, addend: 0x0, symName: __ZN8pybind1117reinterpret_stealINS_6objectEEET_NS_6handleE, symObjAddr: 0x3C90, symBinAddr: 0x1BE2C, symSize: 0x40 }
  - { offsetInCU: 0x4EADF, offset: 0xA0339, size: 0x8, addend: 0x0, symName: __ZN8pybind114castINSt3__112basic_stringIcNS1_11char_traitsIcEENS1_9allocatorIcEEEELi0EEET_RKNS_6handleE, symObjAddr: 0x4550, symBinAddr: 0x1C560, symSize: 0x78 }
  - { offsetInCU: 0x4EC06, offset: 0xA0460, size: 0x8, addend: 0x0, symName: __ZN8pybind11L7type_idINSt3__112basic_stringIcNS1_11char_traitsIcEENS1_9allocatorIcEEEEEES7_v, symObjAddr: 0x4D88, symBinAddr: 0x1CD98, symSize: 0x34 }
  - { offsetInCU: 0x4ECDB, offset: 0xA0535, size: 0x8, addend: 0x0, symName: __ZN8pybind1110make_tupleILNS_19return_value_policyE1EJRNS_3strEEEENS_5tupleEDpOT0_, symObjAddr: 0x7094, symBinAddr: 0x1ED04, symSize: 0x41C }
  - { offsetInCU: 0x4EDCF, offset: 0xA0629, size: 0x8, addend: 0x0, symName: __ZN8pybind11L7type_idIRNS_3strEEENSt3__112basic_stringIcNS3_11char_traitsIcEENS3_9allocatorIcEEEEv, symObjAddr: 0x7550, symBinAddr: 0x1F1C0, symSize: 0x34 }
  - { offsetInCU: 0x4EDF6, offset: 0xA0650, size: 0x8, addend: 0x0, symName: __ZN8pybind1137cast_error_unable_to_convert_call_argERKNSt3__112basic_stringIcNS0_11char_traitsIcEENS0_9allocatorIcEEEES8_, symObjAddr: 0x7584, symBinAddr: 0x1F1F4, symSize: 0x128 }
  - { offsetInCU: 0x4EE34, offset: 0xA068E, size: 0x8, addend: 0x0, symName: __ZN8pybind1112ssize_t_castImEElRKT_, symObjAddr: 0x7974, symBinAddr: 0x1F5E4, symSize: 0x18 }
  - { offsetInCU: 0x4EE6A, offset: 0xA06C4, size: 0x8, addend: 0x0, symName: __ZN8pybind117getattrENS_6handleEPKc, symObjAddr: 0x7AE4, symBinAddr: 0x1F754, symSize: 0xC4 }
  - { offsetInCU: 0x4EEB6, offset: 0xA0710, size: 0x8, addend: 0x0, symName: __ZN8pybind114castIbEENSt3__19enable_ifIXaantsr6detail11is_pyobjectIT_EE5valuesr6detail20move_if_unreferencedIS3_EE5valueES3_E4typeEONS_6objectE, symObjAddr: 0x7BD4, symBinAddr: 0x1F844, symSize: 0x6C }
  - { offsetInCU: 0x4EEED, offset: 0xA0747, size: 0x8, addend: 0x0, symName: __ZN8pybind114castIbLi0EEET_RKNS_6handleE, symObjAddr: 0x7C70, symBinAddr: 0x1F8E0, symSize: 0x3C }
  - { offsetInCU: 0x4EF32, offset: 0xA078C, size: 0x8, addend: 0x0, symName: __ZN8pybind114moveIbEENSt3__19enable_ifIXntsr6detail10move_neverIT_EE5valueES3_E4typeEONS_6objectE, symObjAddr: 0x7CAC, symBinAddr: 0x1F91C, symSize: 0x270 }
  - { offsetInCU: 0x4EF79, offset: 0xA07D3, size: 0x8, addend: 0x0, symName: __ZN8pybind11L7type_idIbEENSt3__112basic_stringIcNS1_11char_traitsIcEENS1_9allocatorIcEEEEv, symObjAddr: 0x8410, symBinAddr: 0x20080, symSize: 0x34 }
  - { offsetInCU: 0x4EFA0, offset: 0xA07FA, size: 0x8, addend: 0x0, symName: __ZN8pybind1118reinterpret_borrowINS_6objectEEET_NS_6handleE, symObjAddr: 0x8538, symBinAddr: 0x201A8, symSize: 0x40 }
  - { offsetInCU: 0x4EFD7, offset: 0xA0831, size: 0x8, addend: 0x0, symName: __ZN8pybind1110raise_fromEP7_objectPKc, symObjAddr: 0xD204, symBinAddr: 0x24D90, symSize: 0x168 }
  - { offsetInCU: 0x4F04C, offset: 0xA08A6, size: 0x8, addend: 0x0, symName: __ZN8pybind117setattrENS_6handleEPKcS0_, symObjAddr: 0xD548, symBinAddr: 0x250D4, symSize: 0xC8 }
  - { offsetInCU: 0x4F25F, offset: 0xA0AB9, size: 0x8, addend: 0x0, symName: __ZN8pybind114reprENS_6handleE, symObjAddr: 0x158A4, symBinAddr: 0x2D37C, symSize: 0xBC }
  - { offsetInCU: 0x4F29C, offset: 0xA0AF6, size: 0x8, addend: 0x0, symName: __ZN8pybind1118reinterpret_borrowINS_7capsuleEEET_NS_6handleE, symObjAddr: 0x15CA0, symBinAddr: 0x2D778, symSize: 0x40 }
  - { offsetInCU: 0x4F2D3, offset: 0xA0B2D, size: 0x8, addend: 0x0, symName: __ZN8pybind117hasattrENS_6handleEPKc, symObjAddr: 0x18148, symBinAddr: 0x2FC20, symSize: 0x44 }
  - { offsetInCU: 0x4F310, offset: 0xA0B6A, size: 0x8, addend: 0x0, symName: __ZN8pybind1117reinterpret_stealINS_3strEEET_NS_6handleE, symObjAddr: 0x19DEC, symBinAddr: 0x31744, symSize: 0x40 }
  - { offsetInCU: 0x4F347, offset: 0xA0BA1, size: 0x8, addend: 0x0, symName: __ZN8pybind114castINSt3__112basic_stringIcNS1_11char_traitsIcEENS1_9allocatorIcEEEEEENS1_9enable_ifIXaantsr6detail11is_pyobjectIT_EE5valuesr6detail20move_if_unreferencedIS9_EE5valueES9_E4typeEONS_6objectE, symObjAddr: 0x19E9C, symBinAddr: 0x317F4, symSize: 0x5C }
  - { offsetInCU: 0x4F37E, offset: 0xA0BD8, size: 0x8, addend: 0x0, symName: __ZN8pybind114moveINSt3__112basic_stringIcNS1_11char_traitsIcEENS1_9allocatorIcEEEEEENS1_9enable_ifIXntsr6detail10move_neverIT_EE5valueES9_E4typeEONS_6objectE, symObjAddr: 0x19EF8, symBinAddr: 0x31850, symSize: 0x2C4 }
  - { offsetInCU: 0x4F3C5, offset: 0xA0C1F, size: 0x8, addend: 0x0, symName: __ZN8pybind1118reinterpret_borrowINS_4dictEEET_NS_6handleE, symObjAddr: 0x1EE80, symBinAddr: 0x367D8, symSize: 0x40 }
  - { offsetInCU: 0x4F3FC, offset: 0xA0C56, size: 0x8, addend: 0x0, symName: __ZN8pybind1117reinterpret_stealINS_4dictEEET_NS_6handleE, symObjAddr: 0x1EEC0, symBinAddr: 0x36818, symSize: 0x40 }
  - { offsetInCU: 0x4F433, offset: 0xA0C8D, size: 0x8, addend: 0x0, symName: __ZN8pybind1118reinterpret_borrowINS_5tupleEEET_NS_6handleE, symObjAddr: 0x1F058, symBinAddr: 0x369B0, symSize: 0x40 }
  - { offsetInCU: 0x4F46B, offset: 0xA0CC5, size: 0x8, addend: 0x0, symName: __ZN8pybind1112ssize_t_castIlEElRKT_, symObjAddr: 0x23C0C, symBinAddr: 0x3B4F0, symSize: 0x18 }
  - { offsetInCU: 0x4F4A2, offset: 0xA0CFC, size: 0x8, addend: 0x0, symName: __ZN8pybind1112ssize_t_castIiEElRKT_, symObjAddr: 0x23D34, symBinAddr: 0x3B618, symSize: 0x18 }
  - { offsetInCU: 0x4F4D8, offset: 0xA0D32, size: 0x8, addend: 0x0, symName: __ZN8pybind1110make_tupleILNS_19return_value_policyE1EJRNS_6handleEEEENS_5tupleEDpOT0_, symObjAddr: 0x29120, symBinAddr: 0x40A04, symSize: 0x41C }
  - { offsetInCU: 0x4F5CC, offset: 0xA0E26, size: 0x8, addend: 0x0, symName: __ZN8pybind11L7type_idIRNS_6handleEEENSt3__112basic_stringIcNS3_11char_traitsIcEENS3_9allocatorIcEEEEv, symObjAddr: 0x29574, symBinAddr: 0x40E58, symSize: 0x34 }
  - { offsetInCU: 0x4F5F3, offset: 0xA0E4D, size: 0x8, addend: 0x0, symName: __ZN8pybind1118reinterpret_borrowINS_7module_EEET_NS_6handleE, symObjAddr: 0x349B8, symBinAddr: 0x4C29C, symSize: 0x40 }
  - { offsetInCU: 0x4F62B, offset: 0xA0E85, size: 0x8, addend: 0x0, symName: __ZN8pybind114initIJPKciEEENS_6detail8initimpl11constructorIJDpT_EEEv, symObjAddr: 0x34B00, symBinAddr: 0x4C3E4, symSize: 0x4 }
  - { offsetInCU: 0x4F659, offset: 0xA0EB3, size: 0x8, addend: 0x0, symName: __ZN8pybind1110make_tupleILNS_19return_value_policyE1EJRKPKcEEENS_5tupleEDpOT0_, symObjAddr: 0x38F0C, symBinAddr: 0x507F0, symSize: 0x400 }
  - { offsetInCU: 0x4F74D, offset: 0xA0FA7, size: 0x8, addend: 0x0, symName: __ZN8pybind11L7type_idIRKPKcEENSt3__112basic_stringIcNS5_11char_traitsIcEENS5_9allocatorIcEEEEv, symObjAddr: 0x393F4, symBinAddr: 0x50CD8, symSize: 0x34 }
  - { offsetInCU: 0x4F775, offset: 0xA0FCF, size: 0x8, addend: 0x0, symName: __ZN8pybind1114method_adaptorI12CustomAntEnvZNS_6detail8initimpl11constructorIJPKciEE7executeINS_6class_IS1_JEEEJELi0EEEvRT_DpRKT0_EUlRNS2_16value_and_holderES6_iE_EEDTclsr3stdE7forwardIT0_Efp_EEOSK_, symObjAddr: 0x41D90, symBinAddr: 0x59674, symSize: 0x14 }
  - { offsetInCU: 0x4F7B0, offset: 0xA100A, size: 0x8, addend: 0x0, symName: __ZN8pybind117getattrENS_6handleEPKcS0_, symObjAddr: 0x41E0C, symBinAddr: 0x596F0, symSize: 0x98 }
  - { offsetInCU: 0x4F811, offset: 0xA106B, size: 0x8, addend: 0x0, symName: __ZN8pybind117setattrENS_6handleES0_S0_, symObjAddr: 0x438BC, symBinAddr: 0x5B1A0, symSize: 0xDC }
  - { offsetInCU: 0x4F859, offset: 0xA10B3, size: 0x8, addend: 0x0, symName: __ZN8pybind1110make_tupleILNS_19return_value_policyE1EJRA9_KcEEENS_5tupleEDpOT0_, symObjAddr: 0x43B20, symBinAddr: 0x5B404, symSize: 0x3FC }
  - { offsetInCU: 0x4F94D, offset: 0xA11A7, size: 0x8, addend: 0x0, symName: __ZN8pybind11L7type_idIRA9_KcEENSt3__112basic_stringIcNS4_11char_traitsIcEENS4_9allocatorIcEEEEv, symObjAddr: 0x43F1C, symBinAddr: 0x5B800, symSize: 0x34 }
  - { offsetInCU: 0x4F975, offset: 0xA11CF, size: 0x8, addend: 0x0, symName: __ZN8pybind1114method_adaptorI12CustomAntEnvN5Eigen6MatrixIdLin1ELi1ELi0ELin1ELi1EEES1_JEEEMT_FT0_DpT2_EMT1_FS6_S8_E, symObjAddr: 0x43FA8, symBinAddr: 0x5B88C, symSize: 0x3C }
  - { offsetInCU: 0x4F9C3, offset: 0xA121D, size: 0x8, addend: 0x0, symName: __ZN8pybind1117reinterpret_stealINS_5dtypeEEET_NS_6handleE, symObjAddr: 0x466C0, symBinAddr: 0x5DDCC, symSize: 0x40 }
  - { offsetInCU: 0x4F9FA, offset: 0xA1254, size: 0x8, addend: 0x0, symName: __ZN8pybind1117reinterpret_stealINS_7module_EEET_NS_6handleE, symObjAddr: 0x469C4, symBinAddr: 0x5E0D0, symSize: 0x40 }
  - { offsetInCU: 0x4FA31, offset: 0xA128B, size: 0x8, addend: 0x0, symName: __ZN8pybind1110isinstanceINS_5arrayELi0EEEbNS_6handleE, symObjAddr: 0x473E0, symBinAddr: 0x5EAEC, symSize: 0x30 }
  - { offsetInCU: 0x4FA6E, offset: 0xA12C8, size: 0x8, addend: 0x0, symName: __ZN8pybind1118reinterpret_borrowINS_5arrayEEET_NS_6handleE, symObjAddr: 0x47410, symBinAddr: 0x5EB1C, symSize: 0x40 }
  - { offsetInCU: 0x4FAA6, offset: 0xA1300, size: 0x8, addend: 0x0, symName: __ZN8pybind1114method_adaptorI12CustomAntEnvN5Eigen6MatrixIdLin1ELin1ELi0ELin1ELin1EEES1_JEEEMT_KFT0_DpT2_EMT1_KFS6_S8_E, symObjAddr: 0x47ED4, symBinAddr: 0x5F4A8, symSize: 0x3C }
  - { offsetInCU: 0x4FAF5, offset: 0xA134F, size: 0x8, addend: 0x0, symName: __ZN8pybind1114method_adaptorI12CustomAntEnvvS1_JEEEMT_FT0_DpT2_EMT1_FS3_S5_E, symObjAddr: 0x48F14, symBinAddr: 0x6022C, symSize: 0x3C }
  - { offsetInCU: 0x4FB40, offset: 0xA139A, size: 0x8, addend: 0x0, symName: __ZN8pybind1114method_adaptorI12CustomAntEnvbS1_JEEEMT_KFT0_DpT2_EMT1_KFS3_S5_E, symObjAddr: 0x4939C, symBinAddr: 0x606B4, symSize: 0x3C }
  - { offsetInCU: 0x4FB8F, offset: 0xA13E9, size: 0x8, addend: 0x0, symName: __ZN8pybind1114method_adaptorI12CustomAntEnvvS1_JRKN5Eigen6MatrixIdLin1ELin1ELi0ELin1ELin1EEEEEEMT_FT0_DpT2_EMT1_FS8_SA_E, symObjAddr: 0x498B4, symBinAddr: 0x60BCC, symSize: 0x3C }
  - { offsetInCU: 0x4FBDE, offset: 0xA1438, size: 0x8, addend: 0x0, symName: __ZN8pybind1110isinstanceINS_7array_tIdLi16EEELi0EEEbNS_6handleE, symObjAddr: 0x4A500, symBinAddr: 0x6173C, symSize: 0x30 }
  - { offsetInCU: 0x4FC26, offset: 0xA1480, size: 0x8, addend: 0x0, symName: __ZN8pybind1117reinterpret_stealINS_5arrayEEET_NS_6handleE, symObjAddr: 0x4A800, symBinAddr: 0x61A08, symSize: 0x40 }
  - { offsetInCU: 0x4FDF1, offset: 0xA164B, size: 0x8, addend: 0x0, symName: __ZN8pybind1114method_adaptorI12CustomAntEnvvS1_JRKNSt3__112basic_stringIcNS2_11char_traitsIcEENS2_9allocatorIcEEEEEEEMT_FT0_DpT2_EMT1_FSC_SE_E, symObjAddr: 0x4CBF8, symBinAddr: 0x636FC, symSize: 0x3C }
  - { offsetInCU: 0x53DD6, offset: 0xA5630, size: 0x8, addend: 0x0, symName: __ZN8pybind116handle15inc_ref_counterEm, symObjAddr: 0x5258, symBinAddr: 0x1D268, symSize: 0x40 }
  - { offsetInCU: 0x543BA, offset: 0xA5C14, size: 0x8, addend: 0x0, symName: __ZN8pybind1112cpp_function10initializeIZNS_6detail23all_type_info_get_cacheEP11_typeobjectEUlNS_6handleEE_vJS5_EJEEEvOT_PFT0_DpT1_EDpRKT2_, symObjAddr: 0x11AE0, symBinAddr: 0x295B8, symSize: 0x114 }
  - { offsetInCU: 0x543DF, offset: 0xA5C39, size: 0x8, addend: 0x0, symName: __ZZN8pybind1112cpp_function10initializeIZNS_6detail23all_type_info_get_cacheEP11_typeobjectEUlNS_6handleEE_vJS5_EJEEEvOT_PFT0_DpT1_EDpRKT2_E9signature, symObjAddr: 0x519EA, symBinAddr: 0x6A1B3, symSize: 0x0 }
  - { offsetInCU: 0x543F6, offset: 0xA5C50, size: 0x8, addend: 0x0, symName: __ZZN8pybind1112cpp_function10initializeIZNS_6detail23all_type_info_get_cacheEP11_typeobjectEUlNS_6handleEE_vJS5_EJEEEvOT_PFT0_DpT1_EDpRKT2_E5types, symObjAddr: 0x51D80, symBinAddr: 0x712F0, symSize: 0x0 }
  - { offsetInCU: 0x545CA, offset: 0xA5E24, size: 0x8, addend: 0x0, symName: __ZN8pybind1112cpp_function8destructEPNS_6detail15function_recordEb, symObjAddr: 0x297D8, symBinAddr: 0x410BC, symSize: 0x2B8 }
  - { offsetInCU: 0x545EB, offset: 0xA5E45, size: 0x8, addend: 0x0, symName: __ZZN8pybind1112cpp_function8destructEPNS_6detail15function_recordEbE7is_zero, symObjAddr: 0x51EE8, symBinAddr: 0x74708, symSize: 0x0 }
  - { offsetInCU: 0x546E7, offset: 0xA5F41, size: 0x8, addend: 0x0, symName: __ZN8pybind117options12global_stateEv, symObjAddr: 0x2A280, symBinAddr: 0x41B64, symSize: 0xC }
  - { offsetInCU: 0x54707, offset: 0xA5F61, size: 0x8, addend: 0x0, symName: __ZZN8pybind117options12global_stateEvE8instance, symObjAddr: 0x51EF8, symBinAddr: 0x74718, symSize: 0x0 }
  - { offsetInCU: 0x5471D, offset: 0xA5F77, size: 0x8, addend: 0x0, symName: __ZL35pybind11_module_def_mujoco_renderer, symObjAddr: 0x29A940, symBinAddr: 0x74840, symSize: 0x0 }
  - { offsetInCU: 0x5529D, offset: 0xA6AF7, size: 0x8, addend: 0x0, symName: __ZN8pybind116detail8initimpl11constructorIJPKciEE7executeINS_6class_I12CustomAntEnvJEEEJELi0EEEvRT_DpRKT0_, symObjAddr: 0x41C18, symBinAddr: 0x594FC, symSize: 0x34 }
  - { offsetInCU: 0x5534D, offset: 0xA6BA7, size: 0x8, addend: 0x0, symName: __ZN8pybind1112cpp_function10initializeIZNS_6detail8initimpl11constructorIJPKciEE7executeINS_6class_I12CustomAntEnvJEEEJELi0EEEvRT_DpRKT0_EUlRNS2_16value_and_holderES6_iE_vJSJ_S6_iEJNS_4nameENS_9is_methodENS_7siblingENS2_24is_new_style_constructorEEEEvOSC_PFT0_DpT1_EDpRKT2_, symObjAddr: 0x42274, symBinAddr: 0x59B58, symSize: 0x128 }
  - { offsetInCU: 0x55372, offset: 0xA6BCC, size: 0x8, addend: 0x0, symName: __ZZN8pybind1112cpp_function10initializeIZNS_6detail8initimpl11constructorIJPKciEE7executeINS_6class_I12CustomAntEnvJEEEJELi0EEEvRT_DpRKT0_EUlRNS2_16value_and_holderES6_iE_vJSJ_S6_iEJNS_4nameENS_9is_methodENS_7siblingENS2_24is_new_style_constructorEEEEvOSC_PFT0_DpT1_EDpRKT2_E9signature, symObjAddr: 0x51A46, symBinAddr: 0x6A20F, symSize: 0x0 }
  - { offsetInCU: 0x55389, offset: 0xA6BE3, size: 0x8, addend: 0x0, symName: __ZZN8pybind1112cpp_function10initializeIZNS_6detail8initimpl11constructorIJPKciEE7executeINS_6class_I12CustomAntEnvJEEEJELi0EEEvRT_DpRKT0_EUlRNS2_16value_and_holderES6_iE_vJSJ_S6_iEJNS_4nameENS_9is_methodENS_7siblingENS2_24is_new_style_constructorEEEEvOSC_PFT0_DpT1_EDpRKT2_E5types, symObjAddr: 0x51DF8, symBinAddr: 0x71368, symSize: 0x0 }
  - { offsetInCU: 0x55550, offset: 0xA6DAA, size: 0x8, addend: 0x0, symName: __ZN8pybind1112cpp_functionC2IN5Eigen6MatrixIdLin1ELi1ELi0ELin1ELi1EEE12CustomAntEnvJEJNS_4nameENS_9is_methodENS_7siblingEEEEMT0_FT_DpT1_EDpRKT2_, symObjAddr: 0x44058, symBinAddr: 0x5B93C, symSize: 0xA4 }
  - { offsetInCU: 0x5562B, offset: 0xA6E85, size: 0x8, addend: 0x0, symName: __ZN8pybind1112cpp_function10initializeIZNS0_C1IN5Eigen6MatrixIdLin1ELi1ELi0ELin1ELi1EEE12CustomAntEnvJEJNS_4nameENS_9is_methodENS_7siblingEEEEMT0_FT_DpT1_EDpRKT2_EUlPS6_E_S5_JSK_EJS7_S8_S9_EEEvOSB_PFSA_SD_ESJ_, symObjAddr: 0x440FC, symBinAddr: 0x5B9E0, symSize: 0x130 }
  - { offsetInCU: 0x55650, offset: 0xA6EAA, size: 0x8, addend: 0x0, symName: __ZZN8pybind1112cpp_function10initializeIZNS0_C1IN5Eigen6MatrixIdLin1ELi1ELi0ELin1ELi1EEE12CustomAntEnvJEJNS_4nameENS_9is_methodENS_7siblingEEEEMT0_FT_DpT1_EDpRKT2_EUlPS6_E_S5_JSK_EJS7_S8_S9_EEEvOSB_PFSA_SD_ESJ_E9signature, symObjAddr: 0x51A8C, symBinAddr: 0x6A255, symSize: 0x0 }
  - { offsetInCU: 0x55667, offset: 0xA6EC1, size: 0x8, addend: 0x0, symName: __ZZN8pybind1112cpp_function10initializeIZNS0_C1IN5Eigen6MatrixIdLin1ELi1ELi0ELin1ELi1EEE12CustomAntEnvJEJNS_4nameENS_9is_methodENS_7siblingEEEEMT0_FT_DpT1_EDpRKT2_EUlPS6_E_S5_JSK_EJS7_S8_S9_EEEvOSB_PFSA_SD_ESJ_E5types, symObjAddr: 0x51E28, symBinAddr: 0x71398, symSize: 0x0 }
  - { offsetInCU: 0x55958, offset: 0xA71B2, size: 0x8, addend: 0x0, symName: __ZN8pybind116detail7npy_api3getEv, symObjAddr: 0x46620, symBinAddr: 0x5DD2C, symSize: 0xA0 }
  - { offsetInCU: 0x55978, offset: 0xA71D2, size: 0x8, addend: 0x0, symName: __ZZN8pybind116detail7npy_api3getEvE3api, symObjAddr: 0x51F50, symBinAddr: 0x74770, symSize: 0x0 }
  - { offsetInCU: 0x55999, offset: 0xA71F3, size: 0x8, addend: 0x0, symName: __ZN8pybind1112cpp_functionC2IN5Eigen6MatrixIdLin1ELin1ELi0ELin1ELin1EEE12CustomAntEnvJEJNS_4nameENS_9is_methodENS_7siblingEEEEMT0_KFT_DpT1_EDpRKT2_, symObjAddr: 0x47F84, symBinAddr: 0x5F558, symSize: 0xA4 }
  - { offsetInCU: 0x55A79, offset: 0xA72D3, size: 0x8, addend: 0x0, symName: __ZN8pybind1112cpp_function10initializeIZNS0_C1IN5Eigen6MatrixIdLin1ELin1ELi0ELin1ELin1EEE12CustomAntEnvJEJNS_4nameENS_9is_methodENS_7siblingEEEEMT0_KFT_DpT1_EDpRKT2_EUlPKS6_E_S5_JSL_EJS7_S8_S9_EEEvOSB_PFSA_SD_ESJ_, symObjAddr: 0x48028, symBinAddr: 0x5F5FC, symSize: 0x12C }
  - { offsetInCU: 0x55A9E, offset: 0xA72F8, size: 0x8, addend: 0x0, symName: __ZZN8pybind1112cpp_function10initializeIZNS0_C1IN5Eigen6MatrixIdLin1ELin1ELi0ELin1ELin1EEE12CustomAntEnvJEJNS_4nameENS_9is_methodENS_7siblingEEEEMT0_KFT_DpT1_EDpRKT2_EUlPKS6_E_S5_JSL_EJS7_S8_S9_EEEvOSB_PFSA_SD_ESJ_E9signature, symObjAddr: 0x51AB8, symBinAddr: 0x6A281, symSize: 0x0 }
  - { offsetInCU: 0x55AB5, offset: 0xA730F, size: 0x8, addend: 0x0, symName: __ZZN8pybind1112cpp_function10initializeIZNS0_C1IN5Eigen6MatrixIdLin1ELin1ELi0ELin1ELin1EEE12CustomAntEnvJEJNS_4nameENS_9is_methodENS_7siblingEEEEMT0_KFT_DpT1_EDpRKT2_EUlPKS6_E_S5_JSL_EJS7_S8_S9_EEEvOSB_PFSA_SD_ESJ_E5types, symObjAddr: 0x51E38, symBinAddr: 0x713A8, symSize: 0x0 }
  - { offsetInCU: 0x55C41, offset: 0xA749B, size: 0x8, addend: 0x0, symName: __ZN8pybind1112cpp_functionC2Iv12CustomAntEnvJEJNS_4nameENS_9is_methodENS_7siblingEEEEMT0_FT_DpT1_EDpRKT2_, symObjAddr: 0x48FC4, symBinAddr: 0x602DC, symSize: 0xA4 }
  - { offsetInCU: 0x55D0F, offset: 0xA7569, size: 0x8, addend: 0x0, symName: __ZN8pybind1112cpp_function10initializeIZNS0_C1Iv12CustomAntEnvJEJNS_4nameENS_9is_methodENS_7siblingEEEEMT0_FT_DpT1_EDpRKT2_EUlPS3_E_vJSH_EJS4_S5_S6_EEEvOS8_PFS7_SA_ESG_, symObjAddr: 0x49068, symBinAddr: 0x60380, symSize: 0x12C }
  - { offsetInCU: 0x55D34, offset: 0xA758E, size: 0x8, addend: 0x0, symName: __ZZN8pybind1112cpp_function10initializeIZNS0_C1Iv12CustomAntEnvJEJNS_4nameENS_9is_methodENS_7siblingEEEEMT0_FT_DpT1_EDpRKT2_EUlPS3_E_vJSH_EJS4_S5_S6_EEEvOS8_PFS7_SA_ESG_E9signature, symObjAddr: 0x51AE4, symBinAddr: 0x6A2AD, symSize: 0x0 }
  - { offsetInCU: 0x55D4B, offset: 0xA75A5, size: 0x8, addend: 0x0, symName: __ZZN8pybind1112cpp_function10initializeIZNS0_C1Iv12CustomAntEnvJEJNS_4nameENS_9is_methodENS_7siblingEEEEMT0_FT_DpT1_EDpRKT2_EUlPS3_E_vJSH_EJS4_S5_S6_EEEvOS8_PFS7_SA_ESG_E5types, symObjAddr: 0x51E48, symBinAddr: 0x713B8, symSize: 0x0 }
  - { offsetInCU: 0x55EE1, offset: 0xA773B, size: 0x8, addend: 0x0, symName: __ZN8pybind1112cpp_functionC2Ib12CustomAntEnvJEJNS_4nameENS_9is_methodENS_7siblingEEEEMT0_KFT_DpT1_EDpRKT2_, symObjAddr: 0x4944C, symBinAddr: 0x60764, symSize: 0xA4 }
  - { offsetInCU: 0x55FBC, offset: 0xA7816, size: 0x8, addend: 0x0, symName: __ZN8pybind1112cpp_function10initializeIZNS0_C1Ib12CustomAntEnvJEJNS_4nameENS_9is_methodENS_7siblingEEEEMT0_KFT_DpT1_EDpRKT2_EUlPKS3_E_bJSI_EJS4_S5_S6_EEEvOS8_PFS7_SA_ESG_, symObjAddr: 0x494F0, symBinAddr: 0x60808, symSize: 0x12C }
  - { offsetInCU: 0x55FE1, offset: 0xA783B, size: 0x8, addend: 0x0, symName: __ZZN8pybind1112cpp_function10initializeIZNS0_C1Ib12CustomAntEnvJEJNS_4nameENS_9is_methodENS_7siblingEEEEMT0_KFT_DpT1_EDpRKT2_EUlPKS3_E_bJSI_EJS4_S5_S6_EEEvOS8_PFS7_SA_ESG_E9signature, symObjAddr: 0x51AF2, symBinAddr: 0x6A2BB, symSize: 0x0 }
  - { offsetInCU: 0x55FF8, offset: 0xA7852, size: 0x8, addend: 0x0, symName: __ZZN8pybind1112cpp_function10initializeIZNS0_C1Ib12CustomAntEnvJEJNS_4nameENS_9is_methodENS_7siblingEEEEMT0_KFT_DpT1_EDpRKT2_EUlPKS3_E_bJSI_EJS4_S5_S6_EEEvOS8_PFS7_SA_ESG_E5types, symObjAddr: 0x51E58, symBinAddr: 0x713C8, symSize: 0x0 }
  - { offsetInCU: 0x56189, offset: 0xA79E3, size: 0x8, addend: 0x0, symName: __ZN8pybind1112cpp_functionC2Iv12CustomAntEnvJRKN5Eigen6MatrixIdLin1ELin1ELi0ELin1ELin1EEEEJNS_4nameENS_9is_methodENS_7siblingEEEEMT0_FT_DpT1_EDpRKT2_, symObjAddr: 0x49964, symBinAddr: 0x60C7C, symSize: 0xA4 }
  - { offsetInCU: 0x56266, offset: 0xA7AC0, size: 0x8, addend: 0x0, symName: __ZN8pybind1112cpp_function10initializeIZNS0_C1Iv12CustomAntEnvJRKN5Eigen6MatrixIdLin1ELin1ELi0ELin1ELin1EEEEJNS_4nameENS_9is_methodENS_7siblingEEEEMT0_FT_DpT1_EDpRKT2_EUlPS3_S8_E_vJSM_S8_EJS9_SA_SB_EEEvOSD_PFSC_SF_ESL_, symObjAddr: 0x49A08, symBinAddr: 0x60D20, symSize: 0x12C }
  - { offsetInCU: 0x5628B, offset: 0xA7AE5, size: 0x8, addend: 0x0, symName: __ZZN8pybind1112cpp_function10initializeIZNS0_C1Iv12CustomAntEnvJRKN5Eigen6MatrixIdLin1ELin1ELi0ELin1ELin1EEEEJNS_4nameENS_9is_methodENS_7siblingEEEEMT0_FT_DpT1_EDpRKT2_EUlPS3_S8_E_vJSM_S8_EJS9_SA_SB_EEEvOSD_PFSC_SF_ESL_E9signature, symObjAddr: 0x51B00, symBinAddr: 0x6A2C9, symSize: 0x0 }
  - { offsetInCU: 0x562A2, offset: 0xA7AFC, size: 0x8, addend: 0x0, symName: __ZZN8pybind1112cpp_function10initializeIZNS0_C1Iv12CustomAntEnvJRKN5Eigen6MatrixIdLin1ELin1ELi0ELin1ELin1EEEEJNS_4nameENS_9is_methodENS_7siblingEEEEMT0_FT_DpT1_EDpRKT2_EUlPS3_S8_E_vJSM_S8_EJS9_SA_SB_EEEvOSD_PFSC_SF_ESL_E5types, symObjAddr: 0x51E68, symBinAddr: 0x713D8, symSize: 0x0 }
  - { offsetInCU: 0x56451, offset: 0xA7CAB, size: 0x8, addend: 0x0, symName: __ZN8pybind1112cpp_functionC2Iv12CustomAntEnvJRKNSt3__112basic_stringIcNS3_11char_traitsIcEENS3_9allocatorIcEEEEEJNS_4nameENS_9is_methodENS_7siblingEEEEMT0_FT_DpT1_EDpRKT2_, symObjAddr: 0x4CCA8, symBinAddr: 0x637AC, symSize: 0xA4 }
  - { offsetInCU: 0x5652E, offset: 0xA7D88, size: 0x8, addend: 0x0, symName: __ZN8pybind1112cpp_function10initializeIZNS0_C1Iv12CustomAntEnvJRKNSt3__112basic_stringIcNS4_11char_traitsIcEENS4_9allocatorIcEEEEEJNS_4nameENS_9is_methodENS_7siblingEEEEMT0_FT_DpT1_EDpRKT2_EUlPS3_SC_E_vJSQ_SC_EJSD_SE_SF_EEEvOSH_PFSG_SJ_ESP_, symObjAddr: 0x4CD4C, symBinAddr: 0x63850, symSize: 0x12C }
  - { offsetInCU: 0x56553, offset: 0xA7DAD, size: 0x8, addend: 0x0, symName: __ZZN8pybind1112cpp_function10initializeIZNS0_C1Iv12CustomAntEnvJRKNSt3__112basic_stringIcNS4_11char_traitsIcEENS4_9allocatorIcEEEEEJNS_4nameENS_9is_methodENS_7siblingEEEEMT0_FT_DpT1_EDpRKT2_EUlPS3_SC_E_vJSQ_SC_EJSD_SE_SF_EEEvOSH_PFSG_SJ_ESP_E9signature, symObjAddr: 0x51B4D, symBinAddr: 0x6A316, symSize: 0x0 }
  - { offsetInCU: 0x5656A, offset: 0xA7DC4, size: 0x8, addend: 0x0, symName: __ZZN8pybind1112cpp_function10initializeIZNS0_C1Iv12CustomAntEnvJRKNSt3__112basic_stringIcNS4_11char_traitsIcEENS4_9allocatorIcEEEEEJNS_4nameENS_9is_methodENS_7siblingEEEEMT0_FT_DpT1_EDpRKT2_EUlPS3_SC_E_vJSQ_SC_EJSD_SE_SF_EEEvOSH_PFSG_SJ_ESP_E5types, symObjAddr: 0x51EC0, symBinAddr: 0x71430, symSize: 0x0 }
  - { offsetInCU: 0x57179, offset: 0xA89D3, size: 0x8, addend: 0x0, symName: __ZNSt3__16vectorIPcNS_9allocatorIS1_EEE26__swap_out_circular_bufferERNS_14__split_bufferIS1_RS3_EE, symObjAddr: 0x189E0, symBinAddr: 0x304B8, symSize: 0x118 }
  - { offsetInCU: 0x57232, offset: 0xA8A8C, size: 0x8, addend: 0x0, symName: __ZNSt3__16vectorIN8pybind116detail15argument_recordENS_9allocatorIS3_EEE26__swap_out_circular_bufferERNS_14__split_bufferIS3_RS5_EE, symObjAddr: 0x1D604, symBinAddr: 0x34F5C, symSize: 0x118 }
  - { offsetInCU: 0x57289, offset: 0xA8AE3, size: 0x8, addend: 0x0, symName: __ZNSt3__16vectorIN8pybind116handleENS_9allocatorIS2_EEE26__swap_out_circular_bufferERNS_14__split_bufferIS2_RS4_EE, symObjAddr: 0x2056C, symBinAddr: 0x37E50, symSize: 0x118 }
  - { offsetInCU: 0x57956, offset: 0xA91B0, size: 0x8, addend: 0x0, symName: __ZNSt3__16vectorIN8pybind116detail13function_callENS_9allocatorIS3_EEE26__swap_out_circular_bufferERNS_14__split_bufferIS3_RS5_EE, symObjAddr: 0x26D70, symBinAddr: 0x3E654, symSize: 0x118 }
  - { offsetInCU: 0x57B65, offset: 0xA93BF, size: 0x8, addend: 0x0, symName: __ZNSt3__16vectorIP11_typeobjectNS_9allocatorIS2_EEE26__swap_out_circular_bufferERNS_14__split_bufferIS2_RS4_EE, symObjAddr: 0x2B5EC, symBinAddr: 0x42ED0, symSize: 0x118 }
  - { offsetInCU: 0x57BBC, offset: 0xA9416, size: 0x8, addend: 0x0, symName: __ZNSt3__16vectorIPN8pybind116detail9type_infoENS_9allocatorIS4_EEE26__swap_out_circular_bufferERNS_14__split_bufferIS4_RS6_EE, symObjAddr: 0x2D190, symBinAddr: 0x44A74, symSize: 0x118 }
  - { offsetInCU: 0x59F6D, offset: 0xAB7C7, size: 0x8, addend: 0x0, symName: _PyInit_mujoco_renderer, symObjAddr: 0xB0, symBinAddr: 0x18718, symSize: 0x254 }
  - { offsetInCU: 0x59FEB, offset: 0xAB845, size: 0x8, addend: 0x0, symName: __ZN8pybind117module_23create_extension_moduleEPKcS2_P11PyModuleDef, symObjAddr: 0x8C4, symBinAddr: 0x18F2C, symSize: 0x150 }
  - { offsetInCU: 0x5A03C, offset: 0xAB896, size: 0x8, addend: 0x0, symName: __ZL29pybind11_init_mujoco_rendererRN8pybind117module_E, symObjAddr: 0xA14, symBinAddr: 0x1907C, symSize: 0x1F0 }
  - { offsetInCU: 0x5A065, offset: 0xAB8BF, size: 0x8, addend: 0x0, symName: __ZN8pybind116handle3ptrEv, symObjAddr: 0xC04, symBinAddr: 0x1926C, symSize: 0x14 }
  - { offsetInCU: 0x5A08B, offset: 0xAB8E5, size: 0x8, addend: 0x0, symName: __ZN8pybind117module_D1Ev, symObjAddr: 0xC5C, symBinAddr: 0x192B8, symSize: 0x2C }
  - { offsetInCU: 0x5A0DC, offset: 0xAB936, size: 0x8, addend: 0x0, symName: __ZZN8pybind116detail13get_internalsEvEN24gil_scoped_acquire_localC1Ev, symObjAddr: 0xCD4, symBinAddr: 0x192F0, symSize: 0x2C }
  - { offsetInCU: 0x5A11A, offset: 0xAB974, size: 0x8, addend: 0x0, symName: __ZN8pybind1111error_scopeC1Ev, symObjAddr: 0xD00, symBinAddr: 0x1931C, symSize: 0x2C }
  - { offsetInCU: 0x5A144, offset: 0xAB99E, size: 0x8, addend: 0x0, symName: __ZN8pybind113strC1EPKc, symObjAddr: 0xD2C, symBinAddr: 0x19348, symSize: 0x34 }
  - { offsetInCU: 0x5A17D, offset: 0xAB9D7, size: 0x8, addend: 0x0, symName: __ZN8pybind116handleC1IP7_objectLi0EEET_, symObjAddr: 0xD60, symBinAddr: 0x1937C, symSize: 0x34 }
  - { offsetInCU: 0x5A1C9, offset: 0xABA23, size: 0x8, addend: 0x0, symName: __ZNK8pybind116detail10object_apiINS_6handleEE8containsIRNS_3strEEEbOT_, symObjAddr: 0xD94, symBinAddr: 0x193B0, symSize: 0xE4 }
  - { offsetInCU: 0x5A208, offset: 0xABA62, size: 0x8, addend: 0x0, symName: __ZNK8pybind116detail10object_apiINS_6handleEEixES2_, symObjAddr: 0xEA8, symBinAddr: 0x194C4, symSize: 0x8C }
  - { offsetInCU: 0x5A23E, offset: 0xABA98, size: 0x8, addend: 0x0, symName: __ZNK8pybind116detail8accessorINS0_17accessor_policies12generic_itemEEcvNS_6objectEEv, symObjAddr: 0xF34, symBinAddr: 0x19550, symSize: 0x38 }
  - { offsetInCU: 0x5A264, offset: 0xABABE, size: 0x8, addend: 0x0, symName: __ZN8pybind116objectD1Ev, symObjAddr: 0xF6C, symBinAddr: 0x19588, symSize: 0x2C }
  - { offsetInCU: 0x5A28E, offset: 0xABAE8, size: 0x8, addend: 0x0, symName: __ZN8pybind116detail8accessorINS0_17accessor_policies12generic_itemEED1Ev, symObjAddr: 0xF98, symBinAddr: 0x195B4, symSize: 0x2C }
  - { offsetInCU: 0x5A2BA, offset: 0xABB14, size: 0x8, addend: 0x0, symName: __ZN8pybind117capsuleC1INS_6detail17accessor_policies12generic_itemEEERKNS2_8accessorIT_EE, symObjAddr: 0xFC4, symBinAddr: 0x195E0, symSize: 0x74 }
  - { offsetInCU: 0x5A2FC, offset: 0xABB56, size: 0x8, addend: 0x0, symName: __ZNK8pybind117capsulecvPT_IPNS_6detail9internalsEEEv, symObjAddr: 0x1038, symBinAddr: 0x19654, symSize: 0x24 }
  - { offsetInCU: 0x5A32B, offset: 0xABB85, size: 0x8, addend: 0x0, symName: __ZN8pybind117capsuleD1Ev, symObjAddr: 0x105C, symBinAddr: 0x19678, symSize: 0x2C }
  - { offsetInCU: 0x5A358, offset: 0xABBB2, size: 0x8, addend: 0x0, symName: __ZNSt3__112forward_listIPFvSt13exception_ptrENS_9allocatorIS3_EEE10push_frontEOS3_, symObjAddr: 0x1088, symBinAddr: 0x196A4, symSize: 0x108 }
  - { offsetInCU: 0x5A3AD, offset: 0xABC07, size: 0x8, addend: 0x0, symName: __ZN8pybind116detail9internalsC1Ev, symObjAddr: 0x12AC, symBinAddr: 0x198C8, symSize: 0x2C }
  - { offsetInCU: 0x5A3D7, offset: 0xABC31, size: 0x8, addend: 0x0, symName: __ZN8pybind117capsuleC1EPKvPKcPFvP7_objectE, symObjAddr: 0x1374, symBinAddr: 0x19990, symSize: 0x44 }
  - { offsetInCU: 0x5A434, offset: 0xABC8E, size: 0x8, addend: 0x0, symName: __ZNO8pybind116detail8accessorINS0_17accessor_policies12generic_itemEEaSINS_7capsuleEEEvOT_, symObjAddr: 0x13B8, symBinAddr: 0x199D4, symSize: 0x54 }
  - { offsetInCU: 0x5A472, offset: 0xABCCC, size: 0x8, addend: 0x0, symName: __ZN8pybind113strD1Ev, symObjAddr: 0x2168, symBinAddr: 0x1A784, symSize: 0x2C }
  - { offsetInCU: 0x5A49F, offset: 0xABCF9, size: 0x8, addend: 0x0, symName: __ZN8pybind1111error_scopeD1Ev, symObjAddr: 0x2194, symBinAddr: 0x1A7B0, symSize: 0x2C }
  - { offsetInCU: 0x5A4C9, offset: 0xABD23, size: 0x8, addend: 0x0, symName: __ZZN8pybind116detail13get_internalsEvEN24gil_scoped_acquire_localD1Ev, symObjAddr: 0x21C0, symBinAddr: 0x1A7DC, symSize: 0x2C }
  - { offsetInCU: 0x5A4F3, offset: 0xABD4D, size: 0x8, addend: 0x0, symName: __ZZN8pybind116detail13get_internalsEvEN24gil_scoped_acquire_localC2Ev, symObjAddr: 0x21EC, symBinAddr: 0x1A808, symSize: 0x34 }
  - { offsetInCU: 0x5A51D, offset: 0xABD77, size: 0x8, addend: 0x0, symName: __ZN8pybind1111error_scopeC2Ev, symObjAddr: 0x2220, symBinAddr: 0x1A83C, symSize: 0x3C }
  - { offsetInCU: 0x5A547, offset: 0xABDA1, size: 0x8, addend: 0x0, symName: __ZN8pybind113strC2EPKc, symObjAddr: 0x225C, symBinAddr: 0x1A878, symSize: 0x10C }
  - { offsetInCU: 0x5A580, offset: 0xABDDA, size: 0x8, addend: 0x0, symName: __ZN8pybind116objectC2ENS_6handleENS0_8stolen_tE, symObjAddr: 0x2368, symBinAddr: 0x1A984, symSize: 0x20 }
  - { offsetInCU: 0x5A615, offset: 0xABE6F, size: 0x8, addend: 0x0, symName: __ZN8pybind1117error_already_setC1Ev, symObjAddr: 0x2388, symBinAddr: 0x1A9A4, symSize: 0x2C }
  - { offsetInCU: 0x5A63F, offset: 0xABE99, size: 0x8, addend: 0x0, symName: __ZN8pybind1117error_already_setD1Ev, symObjAddr: 0x23B4, symBinAddr: 0x1A9D0, symSize: 0x2C }
  - { offsetInCU: 0x5A66C, offset: 0xABEC6, size: 0x8, addend: 0x0, symName: __ZN8pybind116objectD2Ev, symObjAddr: 0x23E0, symBinAddr: 0x1A9FC, symSize: 0x34 }
  - { offsetInCU: 0x5A696, offset: 0xABEF0, size: 0x8, addend: 0x0, symName: __ZN8pybind1117error_already_setC2Ev, symObjAddr: 0x2414, symBinAddr: 0x1AA30, symSize: 0xC8 }
  - { offsetInCU: 0x5A6C0, offset: 0xABF1A, size: 0x8, addend: 0x0, symName: __ZNSt9exceptionC2B7v160006Ev, symObjAddr: 0x24DC, symBinAddr: 0x1AAF8, symSize: 0x24 }
  - { offsetInCU: 0x5A6EA, offset: 0xABF44, size: 0x8, addend: 0x0, symName: __ZN8pybind116detail25error_fetch_and_normalizeC1EPKc, symObjAddr: 0x2500, symBinAddr: 0x1AB1C, symSize: 0x34 }
  - { offsetInCU: 0x5A723, offset: 0xABF7D, size: 0x8, addend: 0x0, symName: __ZN8pybind1117error_already_set23m_fetched_error_deleterEPNS_6detail25error_fetch_and_normalizeE, symObjAddr: 0x2534, symBinAddr: 0x1AB50, symSize: 0x8C }
  - { offsetInCU: 0x5A775, offset: 0xABFCF, size: 0x8, addend: 0x0, symName: __ZNSt3__110shared_ptrIN8pybind116detail25error_fetch_and_normalizeEEC1B7v160006IS3_PFvPS3_EvEEPT_T0_, symObjAddr: 0x25C0, symBinAddr: 0x1ABDC, symSize: 0x3C }
  - { offsetInCU: 0x5A7D0, offset: 0xAC02A, size: 0x8, addend: 0x0, symName: __ZN8pybind1117error_already_setD0Ev, symObjAddr: 0x25FC, symBinAddr: 0x1AC18, symSize: 0x30 }
  - { offsetInCU: 0x5A7FD, offset: 0xAC057, size: 0x8, addend: 0x0, symName: __ZNK8pybind1117error_already_set4whatEv, symObjAddr: 0x262C, symBinAddr: 0x1AC48, symSize: 0x78 }
  - { offsetInCU: 0x5A844, offset: 0xAC09E, size: 0x8, addend: 0x0, symName: __ZN8pybind116detail25error_fetch_and_normalizeC2EPKc, symObjAddr: 0x26A4, symBinAddr: 0x1ACC0, symSize: 0x5F0 }
  - { offsetInCU: 0x5A8C1, offset: 0xAC11B, size: 0x8, addend: 0x0, symName: __ZN8pybind116objectC1Ev, symObjAddr: 0x2C94, symBinAddr: 0x1B2B0, symSize: 0x2C }
  - { offsetInCU: 0x5A8EB, offset: 0xAC145, size: 0x8, addend: 0x0, symName: __ZNSt3__112basic_stringIcNS_11char_traitsIcEENS_9allocatorIcEEEC1B7v160006Ev, symObjAddr: 0x2CC0, symBinAddr: 0x1B2DC, symSize: 0x2C }
  - { offsetInCU: 0x5A915, offset: 0xAC16F, size: 0x8, addend: 0x0, symName: __ZNK8pybind116handlecvbEv, symObjAddr: 0x2CEC, symBinAddr: 0x1B308, symSize: 0x24 }
  - { offsetInCU: 0x5A940, offset: 0xAC19A, size: 0x8, addend: 0x0, symName: __ZNSt3__112basic_stringIcNS_11char_traitsIcEENS_9allocatorIcEEEaSB7v160006EPKc, symObjAddr: 0x2EC0, symBinAddr: 0x1B4A8, symSize: 0x2C }
  - { offsetInCU: 0x5A975, offset: 0xAC1CF, size: 0x8, addend: 0x0, symName: __ZNSt3__112basic_stringIcNS_11char_traitsIcEENS_9allocatorIcEEEpLB7v160006EPKc, symObjAddr: 0x2F20, symBinAddr: 0x1B508, symSize: 0x2C }
  - { offsetInCU: 0x5A9AA, offset: 0xAC204, size: 0x8, addend: 0x0, symName: __ZNSt3__112basic_stringIcNS_11char_traitsIcEENS_9allocatorIcEEEpLB7v160006ERKS5_, symObjAddr: 0x2F4C, symBinAddr: 0x1B534, symSize: 0x2C }
  - { offsetInCU: 0x5A9DF, offset: 0xAC239, size: 0x8, addend: 0x0, symName: __ZNK8pybind116detail25error_fetch_and_normalize22format_value_and_traceEv, symObjAddr: 0x2F78, symBinAddr: 0x1B560, symSize: 0x614 }
  - { offsetInCU: 0x5AB02, offset: 0xAC35C, size: 0x8, addend: 0x0, symName: __ZN8pybind116objectC2Ev, symObjAddr: 0x358C, symBinAddr: 0x1BB74, symSize: 0x2C }
  - { offsetInCU: 0x5AB2C, offset: 0xAC386, size: 0x8, addend: 0x0, symName: __ZN8pybind116handleC2Ev, symObjAddr: 0x35B8, symBinAddr: 0x1BBA0, symSize: 0x18 }
  - { offsetInCU: 0x5AB56, offset: 0xAC3B0, size: 0x8, addend: 0x0, symName: __ZNSt3__112basic_stringIcNS_11char_traitsIcEENS_9allocatorIcEEEC2B7v160006Ev, symObjAddr: 0x35D0, symBinAddr: 0x1BBB8, symSize: 0x54 }
  - { offsetInCU: 0x5AB86, offset: 0xAC3E0, size: 0x8, addend: 0x0, symName: __ZNSt3__112basic_stringIcNS_11char_traitsIcEENS_9allocatorIcEEEC1B7v160006EOS5_, symObjAddr: 0x37A4, symBinAddr: 0x1BC0C, symSize: 0x34 }
  - { offsetInCU: 0x5ABBF, offset: 0xAC419, size: 0x8, addend: 0x0, symName: __ZNSt3__112basic_stringIcNS_11char_traitsIcEENS_9allocatorIcEEEC2B7v160006EOS5_, symObjAddr: 0x37D8, symBinAddr: 0x1BC40, symSize: 0x80 }
  - { offsetInCU: 0x5ABF8, offset: 0xAC452, size: 0x8, addend: 0x0, symName: __ZL13_PyType_CheckP7_object, symObjAddr: 0x3994, symBinAddr: 0x1BCD4, symSize: 0x2C }
  - { offsetInCU: 0x5AC27, offset: 0xAC481, size: 0x8, addend: 0x0, symName: __ZL17PyType_HasFeatureP11_typeobjectm, symObjAddr: 0x39C0, symBinAddr: 0x1BD00, symSize: 0x34 }
  - { offsetInCU: 0x5AC74, offset: 0xAC4CE, size: 0x8, addend: 0x0, symName: __ZNSt3__112basic_stringIcNS_11char_traitsIcEENS_9allocatorIcEEE6appendB7v160006ERKS5_, symObjAddr: 0x3B50, symBinAddr: 0x1BDE0, symSize: 0x4C }
  - { offsetInCU: 0x5ACA9, offset: 0xAC503, size: 0x8, addend: 0x0, symName: __ZNK8pybind116handle3ptrEv, symObjAddr: 0x3CD0, symBinAddr: 0x1BE6C, symSize: 0x18 }
  - { offsetInCU: 0x5ACCF, offset: 0xAC529, size: 0x8, addend: 0x0, symName: __ZNSt3__112basic_stringIcNS_11char_traitsIcEENS_9allocatorIcEEEaSB7v160006EOS5_, symObjAddr: 0x3D64, symBinAddr: 0x1BF00, symSize: 0x34 }
  - { offsetInCU: 0x5AD04, offset: 0xAC55E, size: 0x8, addend: 0x0, symName: __ZNSt3__112basic_stringIcNS_11char_traitsIcEENS_9allocatorIcEEEC1B7v160006EPKcm, symObjAddr: 0x3D98, symBinAddr: 0x1BF34, symSize: 0x3C }
  - { offsetInCU: 0x5AD4C, offset: 0xAC5A6, size: 0x8, addend: 0x0, symName: __ZNKSt3__112basic_stringIcNS_11char_traitsIcEENS_9allocatorIcEEE5emptyB7v160006Ev, symObjAddr: 0x3DD4, symBinAddr: 0x1BF70, symSize: 0x30 }
  - { offsetInCU: 0x5AD72, offset: 0xAC5CC, size: 0x8, addend: 0x0, symName: __ZL11_Py_XINCREFP7_object, symObjAddr: 0x3E04, symBinAddr: 0x1BFA0, symSize: 0x3C }
  - { offsetInCU: 0x5AD9D, offset: 0xAC5F7, size: 0x8, addend: 0x0, symName: __ZNK8pybind116handle4castINSt3__112basic_stringIcNS2_11char_traitsIcEENS2_9allocatorIcEEEEEET_v, symObjAddr: 0x3E40, symBinAddr: 0x1BFDC, symSize: 0x2C }
  - { offsetInCU: 0x5ADCF, offset: 0xAC629, size: 0x8, addend: 0x0, symName: __ZNSt3__112basic_stringIcNS_11char_traitsIcEENS_9allocatorIcEEEpLB7v160006Ec, symObjAddr: 0x3E6C, symBinAddr: 0x1C008, symSize: 0x34 }
  - { offsetInCU: 0x5AE04, offset: 0xAC65E, size: 0x8, addend: 0x0, symName: __ZL10_Py_DECREFP7_object, symObjAddr: 0x3EA0, symBinAddr: 0x1C03C, symSize: 0x4C }
  - { offsetInCU: 0x5AE2F, offset: 0xAC689, size: 0x8, addend: 0x0, symName: __ZN8pybind116objectC1ENS_6handleENS0_8stolen_tE, symObjAddr: 0x3EEC, symBinAddr: 0x1C088, symSize: 0x34 }
  - { offsetInCU: 0x5AE73, offset: 0xAC6CD, size: 0x8, addend: 0x0, symName: __ZNK8pybind116detail25error_fetch_and_normalize12error_stringEv, symObjAddr: 0x3F20, symBinAddr: 0x1C0BC, symSize: 0xD0 }
  - { offsetInCU: 0x5AE99, offset: 0xAC6F3, size: 0x8, addend: 0x0, symName: __ZN8pybind116detail25error_fetch_and_normalizeD1Ev, symObjAddr: 0x3FF0, symBinAddr: 0x1C18C, symSize: 0x2C }
  - { offsetInCU: 0x5AEC6, offset: 0xAC720, size: 0x8, addend: 0x0, symName: __ZN8pybind116detail25error_fetch_and_normalizeD2Ev, symObjAddr: 0x401C, symBinAddr: 0x1C1B8, symSize: 0x50 }
  - { offsetInCU: 0x5AEF3, offset: 0xAC74D, size: 0x8, addend: 0x0, symName: __ZNSt3__112basic_stringIcNS_11char_traitsIcEENS_9allocatorIcEEE13__move_assignB7v160006ERS5_NS_17integral_constantIbLb1EEE, symObjAddr: 0x406C, symBinAddr: 0x1C208, symSize: 0xC8 }
  - { offsetInCU: 0x5AF35, offset: 0xAC78F, size: 0x8, addend: 0x0, symName: __ZNSt3__116allocator_traitsINS_9allocatorIcEEE10deallocateB7v160006ERS2_Pcm, symObjAddr: 0x4134, symBinAddr: 0x1C2D0, symSize: 0x34 }
  - { offsetInCU: 0x5AF77, offset: 0xAC7D1, size: 0x8, addend: 0x0, symName: __ZNSt3__112basic_stringIcNS_11char_traitsIcEENS_9allocatorIcEEE7__allocB7v160006Ev, symObjAddr: 0x4168, symBinAddr: 0x1C304, symSize: 0x24 }
  - { offsetInCU: 0x5AF9D, offset: 0xAC7F7, size: 0x8, addend: 0x0, symName: __ZNKSt3__112basic_stringIcNS_11char_traitsIcEENS_9allocatorIcEEE14__get_long_capB7v160006Ev, symObjAddr: 0x41B4, symBinAddr: 0x1C328, symSize: 0x30 }
  - { offsetInCU: 0x5AFC3, offset: 0xAC81D, size: 0x8, addend: 0x0, symName: __ZNSt3__112basic_stringIcNS_11char_traitsIcEENS_9allocatorIcEEE19__move_assign_allocB7v160006ERS5_, symObjAddr: 0x41E4, symBinAddr: 0x1C358, symSize: 0x2C }
  - { offsetInCU: 0x5AFF8, offset: 0xAC852, size: 0x8, addend: 0x0, symName: __ZNSt3__112basic_stringIcNS_11char_traitsIcEENS_9allocatorIcEEE16__set_short_sizeB7v160006Em, symObjAddr: 0x4210, symBinAddr: 0x1C384, symSize: 0x78 }
  - { offsetInCU: 0x5B02D, offset: 0xAC887, size: 0x8, addend: 0x0, symName: __ZNSt3__111char_traitsIcE6assignERcRKc, symObjAddr: 0x4288, symBinAddr: 0x1C3FC, symSize: 0x24 }
  - { offsetInCU: 0x5B05E, offset: 0xAC8B8, size: 0x8, addend: 0x0, symName: __ZNSt3__19allocatorIcE10deallocateB7v160006EPcm, symObjAddr: 0x42D4, symBinAddr: 0x1C420, symSize: 0x40 }
  - { offsetInCU: 0x5B0A0, offset: 0xAC8FA, size: 0x8, addend: 0x0, symName: __ZNSt3__117__compressed_pairINS_12basic_stringIcNS_11char_traitsIcEENS_9allocatorIcEEE5__repES5_E6secondB7v160006Ev, symObjAddr: 0x443C, symBinAddr: 0x1C460, symSize: 0x24 }
  - { offsetInCU: 0x5B0C6, offset: 0xAC920, size: 0x8, addend: 0x0, symName: __ZNSt3__122__compressed_pair_elemINS_9allocatorIcEELi1ELb1EE5__getB7v160006Ev, symObjAddr: 0x4460, symBinAddr: 0x1C484, symSize: 0x14 }
  - { offsetInCU: 0x5B0EC, offset: 0xAC946, size: 0x8, addend: 0x0, symName: __ZNSt3__112basic_stringIcNS_11char_traitsIcEENS_9allocatorIcEEE19__move_assign_allocB7v160006ERS5_NS_17integral_constantIbLb1EEE, symObjAddr: 0x4474, symBinAddr: 0x1C498, symSize: 0x38 }
  - { offsetInCU: 0x5B12C, offset: 0xAC986, size: 0x8, addend: 0x0, symName: __ZNSt3__112basic_stringIcNS_11char_traitsIcEENS_9allocatorIcEEEC2B7v160006EPKcm, symObjAddr: 0x44C0, symBinAddr: 0x1C4D0, symSize: 0x70 }
  - { offsetInCU: 0x5B174, offset: 0xAC9CE, size: 0x8, addend: 0x0, symName: __ZL10_Py_INCREFP7_object, symObjAddr: 0x4530, symBinAddr: 0x1C540, symSize: 0x20 }
  - { offsetInCU: 0x5B1A4, offset: 0xAC9FE, size: 0x8, addend: 0x0, symName: __ZN8pybind116detail11type_casterINSt3__112basic_stringIcNS2_11char_traitsIcEENS2_9allocatorIcEEEEvED1Ev, symObjAddr: 0x468C, symBinAddr: 0x1C69C, symSize: 0x2C }
  - { offsetInCU: 0x5B1D1, offset: 0xACA2B, size: 0x8, addend: 0x0, symName: __ZNO8pybind116detail13string_casterINSt3__112basic_stringIcNS2_11char_traitsIcEENS2_9allocatorIcEEEELb0EEcvOS8_Ev, symObjAddr: 0x46B8, symBinAddr: 0x1C6C8, symSize: 0x14 }
  - { offsetInCU: 0x5B1F7, offset: 0xACA51, size: 0x8, addend: 0x0, symName: __ZN8pybind116detail11type_casterINSt3__112basic_stringIcNS2_11char_traitsIcEENS2_9allocatorIcEEEEvEC1Ev, symObjAddr: 0x46CC, symBinAddr: 0x1C6DC, symSize: 0x2C }
  - { offsetInCU: 0x5B224, offset: 0xACA7E, size: 0x8, addend: 0x0, symName: __ZN8pybind116detail11type_casterINSt3__112basic_stringIcNS2_11char_traitsIcEENS2_9allocatorIcEEEEvEC2Ev, symObjAddr: 0x4958, symBinAddr: 0x1C968, symSize: 0x2C }
  - { offsetInCU: 0x5B251, offset: 0xACAAB, size: 0x8, addend: 0x0, symName: __ZN8pybind116detail13string_casterINSt3__112basic_stringIcNS2_11char_traitsIcEENS2_9allocatorIcEEEELb0EEC2Ev, symObjAddr: 0x4984, symBinAddr: 0x1C994, symSize: 0x2C }
  - { offsetInCU: 0x5B27E, offset: 0xACAD8, size: 0x8, addend: 0x0, symName: __ZN8pybind116detail13string_casterINSt3__112basic_stringIcNS2_11char_traitsIcEENS2_9allocatorIcEEEELb0EE4loadENS_6handleEb, symObjAddr: 0x49B0, symBinAddr: 0x1C9C0, symSize: 0x148 }
  - { offsetInCU: 0x5B308, offset: 0xACB62, size: 0x8, addend: 0x0, symName: __ZN8pybind114type9handle_ofENS_6handleE, symObjAddr: 0x4B38, symBinAddr: 0x1CB48, symSize: 0x3C }
  - { offsetInCU: 0x5B32C, offset: 0xACB86, size: 0x8, addend: 0x0, symName: __ZN8pybind113strC1ENS_6handleE, symObjAddr: 0x4B74, symBinAddr: 0x1CB84, symSize: 0x34 }
  - { offsetInCU: 0x5B365, offset: 0xACBBF, size: 0x8, addend: 0x0, symName: __ZNK8pybind113strcvNSt3__112basic_stringIcNS1_11char_traitsIcEENS1_9allocatorIcEEEEEv, symObjAddr: 0x4BA8, symBinAddr: 0x1CBB8, symSize: 0x1E0 }
  - { offsetInCU: 0x5B3B9, offset: 0xACC13, size: 0x8, addend: 0x0, symName: __ZN8pybind1110cast_errorCI1St13runtime_errorERKNSt3__112basic_stringIcNS1_11char_traitsIcEENS1_9allocatorIcEEEE, symObjAddr: 0x4DBC, symBinAddr: 0x1CDCC, symSize: 0x34 }
  - { offsetInCU: 0x5B3EF, offset: 0xACC49, size: 0x8, addend: 0x0, symName: __ZN8pybind1110cast_errorD1Ev, symObjAddr: 0x4DF0, symBinAddr: 0x1CE00, symSize: 0x2C }
  - { offsetInCU: 0x5B41C, offset: 0xACC76, size: 0x8, addend: 0x0, symName: __ZN8pybind116detail13string_casterINSt3__112basic_stringIcNS2_11char_traitsIcEENS2_9allocatorIcEEEELb0EE8load_rawIcEEbNS2_9enable_ifIXsr3std7is_sameIT_cEE5valueENS_6handleEE4typeE, symObjAddr: 0x4E1C, symBinAddr: 0x1CE2C, symSize: 0x1D4 }
  - { offsetInCU: 0x5B495, offset: 0xACCEF, size: 0x8, addend: 0x0, symName: __ZL11_Py_IS_TYPEPK7_objectPK11_typeobject, symObjAddr: 0x4FF0, symBinAddr: 0x1D000, symSize: 0x2C }
  - { offsetInCU: 0x5B4D0, offset: 0xACD2A, size: 0x8, addend: 0x0, symName: __ZN8pybind113strC2ENS_6handleE, symObjAddr: 0x501C, symBinAddr: 0x1D02C, symSize: 0xE4 }
  - { offsetInCU: 0x5B509, offset: 0xACD63, size: 0x8, addend: 0x0, symName: __ZN8pybind113str7raw_strEP7_object, symObjAddr: 0x5100, symBinAddr: 0x1D110, symSize: 0x2C }
  - { offsetInCU: 0x5B53C, offset: 0xACD96, size: 0x8, addend: 0x0, symName: __ZN8pybind116objectC1ERKS0_, symObjAddr: 0x512C, symBinAddr: 0x1D13C, symSize: 0x34 }
  - { offsetInCU: 0x5B575, offset: 0xACDCF, size: 0x8, addend: 0x0, symName: __ZN8pybind116objectaSEOS0_, symObjAddr: 0x5160, symBinAddr: 0x1D170, symSize: 0x80 }
  - { offsetInCU: 0x5B5BF, offset: 0xACE19, size: 0x8, addend: 0x0, symName: __ZN8pybind116objectC2ERKS0_, symObjAddr: 0x51E0, symBinAddr: 0x1D1F0, symSize: 0x3C }
  - { offsetInCU: 0x5B5F8, offset: 0xACE52, size: 0x8, addend: 0x0, symName: __ZNKR8pybind116handle7inc_refEv, symObjAddr: 0x521C, symBinAddr: 0x1D22C, symSize: 0x3C }
  - { offsetInCU: 0x5B61E, offset: 0xACE78, size: 0x8, addend: 0x0, symName: __ZNKR8pybind116handle7dec_refEv, symObjAddr: 0x5298, symBinAddr: 0x1D2A8, symSize: 0x30 }
  - { offsetInCU: 0x5B644, offset: 0xACE9E, size: 0x8, addend: 0x0, symName: __ZL11_Py_XDECREFP7_object, symObjAddr: 0x52C8, symBinAddr: 0x1D2D8, symSize: 0x3C }
  - { offsetInCU: 0x5B683, offset: 0xACEDD, size: 0x8, addend: 0x0, symName: __ZNKSt9type_info4nameB7v160006Ev, symObjAddr: 0x53A4, symBinAddr: 0x1D3B4, symSize: 0x24 }
  - { offsetInCU: 0x5B746, offset: 0xACFA0, size: 0x8, addend: 0x0, symName: __ZNSt3__110unique_ptrIcPFvPvEEC1B7v160006ILb1EvEEPcNS_16__dependent_typeINS_27__unique_ptr_deleter_sfinaeIS3_EEXT_EE20__good_rval_ref_typeE, symObjAddr: 0x54F0, symBinAddr: 0x1D4DC, symSize: 0x3C }
  - { offsetInCU: 0x5B797, offset: 0xACFF1, size: 0x8, addend: 0x0, symName: __ZNKSt3__110unique_ptrIcPFvPvEE3getB7v160006Ev, symObjAddr: 0x552C, symBinAddr: 0x1D518, symSize: 0x28 }
  - { offsetInCU: 0x5B7BD, offset: 0xAD017, size: 0x8, addend: 0x0, symName: __ZNSt3__110unique_ptrIcPFvPvEED1B7v160006Ev, symObjAddr: 0x55D4, symBinAddr: 0x1D5C0, symSize: 0x2C }
  - { offsetInCU: 0x5B7E7, offset: 0xAD041, size: 0x8, addend: 0x0, symName: __ZNSt3__110unique_ptrIcPFvPvEEC2B7v160006ILb1EvEEPcNS_16__dependent_typeINS_27__unique_ptr_deleter_sfinaeIS3_EEXT_EE20__good_rval_ref_typeE, symObjAddr: 0x5600, symBinAddr: 0x1D5EC, symSize: 0x48 }
  - { offsetInCU: 0x5B838, offset: 0xAD092, size: 0x8, addend: 0x0, symName: __ZNSt3__117__compressed_pairIPcPFvPvEEC1B7v160006IRS1_S4_EEOT_OT0_, symObjAddr: 0x5648, symBinAddr: 0x1D634, symSize: 0x3C }
  - { offsetInCU: 0x5B890, offset: 0xAD0EA, size: 0x8, addend: 0x0, symName: __ZNSt3__117__compressed_pairIPcPFvPvEEC2B7v160006IRS1_S4_EEOT_OT0_, symObjAddr: 0x5684, symBinAddr: 0x1D670, symSize: 0x48 }
  - { offsetInCU: 0x5B8E8, offset: 0xAD142, size: 0x8, addend: 0x0, symName: __ZNSt3__122__compressed_pair_elemIPcLi0ELb0EEC2B7v160006IRS1_vEEOT_, symObjAddr: 0x56CC, symBinAddr: 0x1D6B8, symSize: 0x24 }
  - { offsetInCU: 0x5B92A, offset: 0xAD184, size: 0x8, addend: 0x0, symName: __ZNSt3__122__compressed_pair_elemIPFvPvELi1ELb0EEC2B7v160006IS3_vEEOT_, symObjAddr: 0x56F0, symBinAddr: 0x1D6DC, symSize: 0x24 }
  - { offsetInCU: 0x5B96C, offset: 0xAD1C6, size: 0x8, addend: 0x0, symName: __ZNKSt3__117__compressed_pairIPcPFvPvEE5firstB7v160006Ev, symObjAddr: 0x5714, symBinAddr: 0x1D700, symSize: 0x24 }
  - { offsetInCU: 0x5B992, offset: 0xAD1EC, size: 0x8, addend: 0x0, symName: __ZNKSt3__122__compressed_pair_elemIPcLi0ELb0EE5__getB7v160006Ev, symObjAddr: 0x5738, symBinAddr: 0x1D724, symSize: 0x14 }
  - { offsetInCU: 0x5B9B8, offset: 0xAD212, size: 0x8, addend: 0x0, symName: __ZNKSt3__112basic_stringIcNS_11char_traitsIcEENS_9allocatorIcEEE4findB7v160006ERKS5_m, symObjAddr: 0x574C, symBinAddr: 0x1D738, symSize: 0x78 }
  - { offsetInCU: 0x5B9FE, offset: 0xAD258, size: 0x8, addend: 0x0, symName: __ZNKSt3__112basic_stringIcNS_11char_traitsIcEENS_9allocatorIcEEE6lengthB7v160006Ev, symObjAddr: 0x57C4, symBinAddr: 0x1D7B0, symSize: 0x24 }
  - { offsetInCU: 0x5BA24, offset: 0xAD27E, size: 0x8, addend: 0x0, symName: __ZNSt3__110unique_ptrIcPFvPvEED2B7v160006Ev, symObjAddr: 0x5B64, symBinAddr: 0x1D7D4, symSize: 0x30 }
  - { offsetInCU: 0x5BA4E, offset: 0xAD2A8, size: 0x8, addend: 0x0, symName: __ZNSt3__110unique_ptrIcPFvPvEE5resetB7v160006EPc, symObjAddr: 0x5B94, symBinAddr: 0x1D804, symSize: 0x84 }
  - { offsetInCU: 0x5BA92, offset: 0xAD2EC, size: 0x8, addend: 0x0, symName: __ZNSt3__117__compressed_pairIPcPFvPvEE5firstB7v160006Ev, symObjAddr: 0x5C18, symBinAddr: 0x1D888, symSize: 0x24 }
  - { offsetInCU: 0x5BAB8, offset: 0xAD312, size: 0x8, addend: 0x0, symName: __ZNSt3__117__compressed_pairIPcPFvPvEE6secondB7v160006Ev, symObjAddr: 0x5C3C, symBinAddr: 0x1D8AC, symSize: 0x28 }
  - { offsetInCU: 0x5BADE, offset: 0xAD338, size: 0x8, addend: 0x0, symName: __ZNSt3__122__compressed_pair_elemIPcLi0ELb0EE5__getB7v160006Ev, symObjAddr: 0x5C64, symBinAddr: 0x1D8D4, symSize: 0x14 }
  - { offsetInCU: 0x5BB04, offset: 0xAD35E, size: 0x8, addend: 0x0, symName: __ZNSt3__122__compressed_pair_elemIPFvPvELi1ELb0EE5__getB7v160006Ev, symObjAddr: 0x5C78, symBinAddr: 0x1D8E8, symSize: 0x14 }
  - { offsetInCU: 0x5BB2A, offset: 0xAD384, size: 0x8, addend: 0x0, symName: __ZN8pybind1110cast_errorCI2St13runtime_errorERKNSt3__112basic_stringIcNS1_11char_traitsIcEENS1_9allocatorIcEEEE, symObjAddr: 0x5C8C, symBinAddr: 0x1D8FC, symSize: 0x4C }
  - { offsetInCU: 0x5BB65, offset: 0xAD3BF, size: 0x8, addend: 0x0, symName: __ZN8pybind1117builtin_exceptionCI2St13runtime_errorERKNSt3__112basic_stringIcNS1_11char_traitsIcEENS1_9allocatorIcEEEE, symObjAddr: 0x5CD8, symBinAddr: 0x1D948, symSize: 0x4C }
  - { offsetInCU: 0x5BB9B, offset: 0xAD3F5, size: 0x8, addend: 0x0, symName: __ZN8pybind1110cast_errorD0Ev, symObjAddr: 0x5D24, symBinAddr: 0x1D994, symSize: 0x30 }
  - { offsetInCU: 0x5BBC8, offset: 0xAD422, size: 0x8, addend: 0x0, symName: __ZNK8pybind1110cast_error9set_errorEv, symObjAddr: 0x5D54, symBinAddr: 0x1D9C4, symSize: 0x48 }
  - { offsetInCU: 0x5BBEE, offset: 0xAD448, size: 0x8, addend: 0x0, symName: __ZN8pybind1117builtin_exceptionD1Ev, symObjAddr: 0x5D9C, symBinAddr: 0x1DA0C, symSize: 0x14 }
  - { offsetInCU: 0x5BC1B, offset: 0xAD475, size: 0x8, addend: 0x0, symName: __ZN8pybind1117builtin_exceptionD0Ev, symObjAddr: 0x5DB0, symBinAddr: 0x1DA20, symSize: 0xC }
  - { offsetInCU: 0x5BC48, offset: 0xAD4A2, size: 0x8, addend: 0x0, symName: __ZN8pybind1110cast_errorD2Ev, symObjAddr: 0x5DBC, symBinAddr: 0x1DA2C, symSize: 0x2C }
  - { offsetInCU: 0x5BC75, offset: 0xAD4CF, size: 0x8, addend: 0x0, symName: __ZN8pybind1117builtin_exceptionD2Ev, symObjAddr: 0x5DE8, symBinAddr: 0x1DA58, symSize: 0x2C }
  - { offsetInCU: 0x5BCA2, offset: 0xAD4FC, size: 0x8, addend: 0x0, symName: __ZN8pybind116detail11type_casterINSt3__112basic_stringIcNS2_11char_traitsIcEENS2_9allocatorIcEEEEvED2Ev, symObjAddr: 0x5E14, symBinAddr: 0x1DA84, symSize: 0x2C }
  - { offsetInCU: 0x5BCCF, offset: 0xAD529, size: 0x8, addend: 0x0, symName: __ZN8pybind116detail13string_casterINSt3__112basic_stringIcNS2_11char_traitsIcEENS2_9allocatorIcEEEELb0EED2Ev, symObjAddr: 0x5E40, symBinAddr: 0x1DAB0, symSize: 0x2C }
  - { offsetInCU: 0x5BD10, offset: 0xAD56A, size: 0x8, addend: 0x0, symName: __ZN8pybind1118gil_scoped_acquireC1Ev, symObjAddr: 0x5E6C, symBinAddr: 0x1DADC, symSize: 0x2C }
  - { offsetInCU: 0x5BD3A, offset: 0xAD594, size: 0x8, addend: 0x0, symName: __ZN8pybind1118gil_scoped_acquireD1Ev, symObjAddr: 0x5E98, symBinAddr: 0x1DB08, symSize: 0x2C }
  - { offsetInCU: 0x5BD64, offset: 0xAD5BE, size: 0x8, addend: 0x0, symName: __ZN8pybind1118gil_scoped_acquireC2Ev, symObjAddr: 0x5EC4, symBinAddr: 0x1DB34, symSize: 0x134 }
  - { offsetInCU: 0x5BDAA, offset: 0xAD604, size: 0x8, addend: 0x0, symName: __ZN8pybind1118gil_scoped_acquire7inc_refEv, symObjAddr: 0x600C, symBinAddr: 0x1DC7C, symSize: 0x24 }
  - { offsetInCU: 0x5BDD0, offset: 0xAD62A, size: 0x8, addend: 0x0, symName: __ZN8pybind1118gil_scoped_acquireD2Ev, symObjAddr: 0x6030, symBinAddr: 0x1DCA0, symSize: 0x58 }
  - { offsetInCU: 0x5BDFA, offset: 0xAD654, size: 0x8, addend: 0x0, symName: __ZN8pybind1118gil_scoped_acquire7dec_refEv, symObjAddr: 0x6088, symBinAddr: 0x1DCF8, symSize: 0xFC }
  - { offsetInCU: 0x5BE20, offset: 0xAD67A, size: 0x8, addend: 0x0, symName: __ZNSt3__110shared_ptrIN8pybind116detail25error_fetch_and_normalizeEEC2B7v160006IS3_PFvPS3_EvEEPT_T0_, symObjAddr: 0x6184, symBinAddr: 0x1DDF4, symSize: 0x110 }
  - { offsetInCU: 0x5BE94, offset: 0xAD6EE, size: 0x8, addend: 0x0, symName: __ZNSt3__19allocatorIN8pybind116detail25error_fetch_and_normalizeEEC1B7v160006Ev, symObjAddr: 0x6294, symBinAddr: 0x1DF04, symSize: 0x2C }
  - { offsetInCU: 0x5BF7C, offset: 0xAD7D6, size: 0x8, addend: 0x0, symName: __ZNSt3__120__shared_ptr_pointerIPN8pybind116detail25error_fetch_and_normalizeEPFvS4_ENS_9allocatorIS3_EEEC1B7v160006ES4_S6_S8_, symObjAddr: 0x62C0, symBinAddr: 0x1DF30, symSize: 0x3C }
  - { offsetInCU: 0x5BFD0, offset: 0xAD82A, size: 0x8, addend: 0x0, symName: __ZNSt3__110shared_ptrIN8pybind116detail25error_fetch_and_normalizeEE18__enable_weak_thisB7v160006Ez, symObjAddr: 0x62FC, symBinAddr: 0x1DF6C, symSize: 0x10 }
  - { offsetInCU: 0x5BFF8, offset: 0xAD852, size: 0x8, addend: 0x0, symName: __ZNSt3__19allocatorIN8pybind116detail25error_fetch_and_normalizeEEC2B7v160006Ev, symObjAddr: 0x630C, symBinAddr: 0x1DF7C, symSize: 0x2C }
  - { offsetInCU: 0x5C022, offset: 0xAD87C, size: 0x8, addend: 0x0, symName: __ZNSt3__116__non_trivial_ifILb1ENS_9allocatorIN8pybind116detail25error_fetch_and_normalizeEEEEC2B7v160006Ev, symObjAddr: 0x6338, symBinAddr: 0x1DFA8, symSize: 0x14 }
  - { offsetInCU: 0x5C04C, offset: 0xAD8A6, size: 0x8, addend: 0x0, symName: __ZNSt3__120__shared_ptr_pointerIPN8pybind116detail25error_fetch_and_normalizeEPFvS4_ENS_9allocatorIS3_EEEC2B7v160006ES4_S6_S8_, symObjAddr: 0x634C, symBinAddr: 0x1DFBC, symSize: 0xB4 }
  - { offsetInCU: 0x5C0A0, offset: 0xAD8FA, size: 0x8, addend: 0x0, symName: __ZNSt3__119__shared_weak_countC2B7v160006El, symObjAddr: 0x6400, symBinAddr: 0x1E070, symSize: 0x54 }
  - { offsetInCU: 0x5C0DE, offset: 0xAD938, size: 0x8, addend: 0x0, symName: __ZNSt3__117__compressed_pairIPN8pybind116detail25error_fetch_and_normalizeEPFvS4_EEC1B7v160006IRS4_S6_EEOT_OT0_, symObjAddr: 0x6454, symBinAddr: 0x1E0C4, symSize: 0x3C }
  - { offsetInCU: 0x5C142, offset: 0xAD99C, size: 0x8, addend: 0x0, symName: __ZNSt3__117__compressed_pairINS0_IPN8pybind116detail25error_fetch_and_normalizeEPFvS4_EEENS_9allocatorIS3_EEEC1B7v160006IS7_S9_EEOT_OT0_, symObjAddr: 0x6490, symBinAddr: 0x1E100, symSize: 0x3C }
  - { offsetInCU: 0x5C19A, offset: 0xAD9F4, size: 0x8, addend: 0x0, symName: __ZNSt3__120__shared_ptr_pointerIPN8pybind116detail25error_fetch_and_normalizeEPFvS4_ENS_9allocatorIS3_EEED1Ev, symObjAddr: 0x64CC, symBinAddr: 0x1E13C, symSize: 0x2C }
  - { offsetInCU: 0x5C1C6, offset: 0xADA20, size: 0x8, addend: 0x0, symName: __ZNSt3__120__shared_ptr_pointerIPN8pybind116detail25error_fetch_and_normalizeEPFvS4_ENS_9allocatorIS3_EEED0Ev, symObjAddr: 0x64F8, symBinAddr: 0x1E168, symSize: 0x30 }
  - { offsetInCU: 0x5C1F2, offset: 0xADA4C, size: 0x8, addend: 0x0, symName: __ZNSt3__120__shared_ptr_pointerIPN8pybind116detail25error_fetch_and_normalizeEPFvS4_ENS_9allocatorIS3_EEE16__on_zero_sharedEv, symObjAddr: 0x6528, symBinAddr: 0x1E198, symSize: 0x6C }
  - { offsetInCU: 0x5C219, offset: 0xADA73, size: 0x8, addend: 0x0, symName: __ZNKSt3__120__shared_ptr_pointerIPN8pybind116detail25error_fetch_and_normalizeEPFvS4_ENS_9allocatorIS3_EEE13__get_deleterERKSt9type_info, symObjAddr: 0x6594, symBinAddr: 0x1E204, symSize: 0x68 }
  - { offsetInCU: 0x5C24E, offset: 0xADAA8, size: 0x8, addend: 0x0, symName: __ZNSt3__120__shared_ptr_pointerIPN8pybind116detail25error_fetch_and_normalizeEPFvS4_ENS_9allocatorIS3_EEE21__on_zero_shared_weakEv, symObjAddr: 0x65FC, symBinAddr: 0x1E26C, symSize: 0x60 }
  - { offsetInCU: 0x5C28F, offset: 0xADAE9, size: 0x8, addend: 0x0, symName: __ZNSt3__114__shared_countC2B7v160006El, symObjAddr: 0x665C, symBinAddr: 0x1E2CC, symSize: 0x30 }
  - { offsetInCU: 0x5C2C7, offset: 0xADB21, size: 0x8, addend: 0x0, symName: __ZNSt3__117__compressed_pairIPN8pybind116detail25error_fetch_and_normalizeEPFvS4_EEC2B7v160006IRS4_S6_EEOT_OT0_, symObjAddr: 0x668C, symBinAddr: 0x1E2FC, symSize: 0x48 }
  - { offsetInCU: 0x5C31F, offset: 0xADB79, size: 0x8, addend: 0x0, symName: __ZNSt3__122__compressed_pair_elemIPN8pybind116detail25error_fetch_and_normalizeELi0ELb0EEC2B7v160006IRS4_vEEOT_, symObjAddr: 0x66D4, symBinAddr: 0x1E344, symSize: 0x24 }
  - { offsetInCU: 0x5C361, offset: 0xADBBB, size: 0x8, addend: 0x0, symName: __ZNSt3__122__compressed_pair_elemIPFvPN8pybind116detail25error_fetch_and_normalizeEELi1ELb0EEC2B7v160006IS6_vEEOT_, symObjAddr: 0x66F8, symBinAddr: 0x1E368, symSize: 0x24 }
  - { offsetInCU: 0x5C3A3, offset: 0xADBFD, size: 0x8, addend: 0x0, symName: __ZNSt3__117__compressed_pairINS0_IPN8pybind116detail25error_fetch_and_normalizeEPFvS4_EEENS_9allocatorIS3_EEEC2B7v160006IS7_S9_EEOT_OT0_, symObjAddr: 0x671C, symBinAddr: 0x1E38C, symSize: 0x44 }
  - { offsetInCU: 0x5C3FB, offset: 0xADC55, size: 0x8, addend: 0x0, symName: __ZNSt3__122__compressed_pair_elemINS_17__compressed_pairIPN8pybind116detail25error_fetch_and_normalizeEPFvS5_EEELi0ELb0EEC2B7v160006IS8_vEEOT_, symObjAddr: 0x6760, symBinAddr: 0x1E3D0, symSize: 0x24 }
  - { offsetInCU: 0x5C43D, offset: 0xADC97, size: 0x8, addend: 0x0, symName: __ZNSt3__122__compressed_pair_elemINS_9allocatorIN8pybind116detail25error_fetch_and_normalizeEEELi1ELb1EEC2B7v160006IS5_vEEOT_, symObjAddr: 0x6784, symBinAddr: 0x1E3F4, symSize: 0x18 }
  - { offsetInCU: 0x5C47F, offset: 0xADCD9, size: 0x8, addend: 0x0, symName: __ZNSt3__120__shared_ptr_pointerIPN8pybind116detail25error_fetch_and_normalizeEPFvS4_ENS_9allocatorIS3_EEED2Ev, symObjAddr: 0x679C, symBinAddr: 0x1E40C, symSize: 0x2C }
  - { offsetInCU: 0x5C4AB, offset: 0xADD05, size: 0x8, addend: 0x0, symName: __ZNSt3__117__compressed_pairINS0_IPN8pybind116detail25error_fetch_and_normalizeEPFvS4_EEENS_9allocatorIS3_EEE5firstB7v160006Ev, symObjAddr: 0x67C8, symBinAddr: 0x1E438, symSize: 0x24 }
  - { offsetInCU: 0x5C4D1, offset: 0xADD2B, size: 0x8, addend: 0x0, symName: __ZNSt3__117__compressed_pairIPN8pybind116detail25error_fetch_and_normalizeEPFvS4_EE6secondB7v160006Ev, symObjAddr: 0x67EC, symBinAddr: 0x1E45C, symSize: 0x28 }
  - { offsetInCU: 0x5C4F7, offset: 0xADD51, size: 0x8, addend: 0x0, symName: __ZNSt3__117__compressed_pairIPN8pybind116detail25error_fetch_and_normalizeEPFvS4_EE5firstB7v160006Ev, symObjAddr: 0x6814, symBinAddr: 0x1E484, symSize: 0x24 }
  - { offsetInCU: 0x5C51D, offset: 0xADD77, size: 0x8, addend: 0x0, symName: __ZNSt3__122__compressed_pair_elemINS_17__compressed_pairIPN8pybind116detail25error_fetch_and_normalizeEPFvS5_EEELi0ELb0EE5__getB7v160006Ev, symObjAddr: 0x6838, symBinAddr: 0x1E4A8, symSize: 0x14 }
  - { offsetInCU: 0x5C543, offset: 0xADD9D, size: 0x8, addend: 0x0, symName: __ZNSt3__122__compressed_pair_elemIPFvPN8pybind116detail25error_fetch_and_normalizeEELi1ELb0EE5__getB7v160006Ev, symObjAddr: 0x684C, symBinAddr: 0x1E4BC, symSize: 0x14 }
  - { offsetInCU: 0x5C569, offset: 0xADDC3, size: 0x8, addend: 0x0, symName: __ZNSt3__122__compressed_pair_elemIPN8pybind116detail25error_fetch_and_normalizeELi0ELb0EE5__getB7v160006Ev, symObjAddr: 0x6860, symBinAddr: 0x1E4D0, symSize: 0x14 }
  - { offsetInCU: 0x5C5AF, offset: 0xADE09, size: 0x8, addend: 0x0, symName: __ZNKSt9type_infoeqB7v160006ERKS_, symObjAddr: 0x6874, symBinAddr: 0x1E4E4, symSize: 0xDC }
  - { offsetInCU: 0x5C646, offset: 0xADEA0, size: 0x8, addend: 0x0, symName: __ZNKSt3__117__compressed_pairINS0_IPN8pybind116detail25error_fetch_and_normalizeEPFvS4_EEENS_9allocatorIS3_EEE5firstB7v160006Ev, symObjAddr: 0x6950, symBinAddr: 0x1E5C0, symSize: 0x24 }
  - { offsetInCU: 0x5C66C, offset: 0xADEC6, size: 0x8, addend: 0x0, symName: __ZNKSt3__117__compressed_pairIPN8pybind116detail25error_fetch_and_normalizeEPFvS4_EE6secondB7v160006Ev, symObjAddr: 0x6974, symBinAddr: 0x1E5E4, symSize: 0x28 }
  - { offsetInCU: 0x5C692, offset: 0xADEEC, size: 0x8, addend: 0x0, symName: __ZNSt27__type_info_implementations30__non_unique_arm_rtti_bit_impl21__is_type_name_uniqueB7v160006Em, symObjAddr: 0x699C, symBinAddr: 0x1E60C, symSize: 0x20 }
  - { offsetInCU: 0x5C6B6, offset: 0xADF10, size: 0x8, addend: 0x0, symName: __ZNKSt3__122__compressed_pair_elemINS_17__compressed_pairIPN8pybind116detail25error_fetch_and_normalizeEPFvS5_EEELi0ELb0EE5__getB7v160006Ev, symObjAddr: 0x69BC, symBinAddr: 0x1E62C, symSize: 0x14 }
  - { offsetInCU: 0x5C6DC, offset: 0xADF36, size: 0x8, addend: 0x0, symName: __ZNKSt3__122__compressed_pair_elemIPFvPN8pybind116detail25error_fetch_and_normalizeEELi1ELb0EE5__getB7v160006Ev, symObjAddr: 0x69D0, symBinAddr: 0x1E640, symSize: 0x14 }
  - { offsetInCU: 0x5C702, offset: 0xADF5C, size: 0x8, addend: 0x0, symName: __ZNSt3__117__compressed_pairINS0_IPN8pybind116detail25error_fetch_and_normalizeEPFvS4_EEENS_9allocatorIS3_EEE6secondB7v160006Ev, symObjAddr: 0x69E4, symBinAddr: 0x1E654, symSize: 0x24 }
  - { offsetInCU: 0x5C750, offset: 0xADFAA, size: 0x8, addend: 0x0, symName: __ZNSt3__19allocatorINS_20__shared_ptr_pointerIPN8pybind116detail25error_fetch_and_normalizeEPFvS5_ENS0_IS4_EEEEEC1B7v160006IS4_EERKNS0_IT_EE, symObjAddr: 0x6A08, symBinAddr: 0x1E678, symSize: 0x34 }
  - { offsetInCU: 0x5C78E, offset: 0xADFE8, size: 0x8, addend: 0x0, symName: __ZNSt3__19allocatorINS_20__shared_ptr_pointerIPN8pybind116detail25error_fetch_and_normalizeEPFvS5_ENS0_IS4_EEEEE10deallocateB7v160006EPS9_m, symObjAddr: 0x6A3C, symBinAddr: 0x1E6AC, symSize: 0x44 }
  - { offsetInCU: 0x5C7D0, offset: 0xAE02A, size: 0x8, addend: 0x0, symName: __ZNSt3__114pointer_traitsIPNS_20__shared_ptr_pointerIPN8pybind116detail25error_fetch_and_normalizeEPFvS5_ENS_9allocatorIS4_EEEEE10pointer_toB7v160006ERSA_, symObjAddr: 0x6A80, symBinAddr: 0x1E6F0, symSize: 0x14 }
  - { offsetInCU: 0x5C7F3, offset: 0xAE04D, size: 0x8, addend: 0x0, symName: __ZNSt3__122__compressed_pair_elemINS_9allocatorIN8pybind116detail25error_fetch_and_normalizeEEELi1ELb1EE5__getB7v160006Ev, symObjAddr: 0x6A94, symBinAddr: 0x1E704, symSize: 0x14 }
  - { offsetInCU: 0x5C819, offset: 0xAE073, size: 0x8, addend: 0x0, symName: __ZNSt3__19allocatorINS_20__shared_ptr_pointerIPN8pybind116detail25error_fetch_and_normalizeEPFvS5_ENS0_IS4_EEEEEC2B7v160006IS4_EERKNS0_IT_EE, symObjAddr: 0x6AA8, symBinAddr: 0x1E718, symSize: 0x30 }
  - { offsetInCU: 0x5C857, offset: 0xAE0B1, size: 0x8, addend: 0x0, symName: __ZNSt3__116__non_trivial_ifILb1ENS_9allocatorINS_20__shared_ptr_pointerIPN8pybind116detail25error_fetch_and_normalizeEPFvS6_ENS1_IS5_EEEEEEEC2B7v160006Ev, symObjAddr: 0x6AD8, symBinAddr: 0x1E748, symSize: 0x14 }
  - { offsetInCU: 0x5C881, offset: 0xAE0DB, size: 0x8, addend: 0x0, symName: __ZNKSt3__110shared_ptrIN8pybind116detail25error_fetch_and_normalizeEEptB7v160006Ev, symObjAddr: 0x6AEC, symBinAddr: 0x1E75C, symSize: 0x18 }
  - { offsetInCU: 0x5C8A7, offset: 0xAE101, size: 0x8, addend: 0x0, symName: __ZN8pybind1117error_already_setD2Ev, symObjAddr: 0x6B04, symBinAddr: 0x1E774, symSize: 0x48 }
  - { offsetInCU: 0x5C8D4, offset: 0xAE12E, size: 0x8, addend: 0x0, symName: __ZNSt3__110shared_ptrIN8pybind116detail25error_fetch_and_normalizeEED1B7v160006Ev, symObjAddr: 0x6B4C, symBinAddr: 0x1E7BC, symSize: 0x2C }
  - { offsetInCU: 0x5C8FE, offset: 0xAE158, size: 0x8, addend: 0x0, symName: __ZNSt3__110shared_ptrIN8pybind116detail25error_fetch_and_normalizeEED2B7v160006Ev, symObjAddr: 0x6B78, symBinAddr: 0x1E7E8, symSize: 0x54 }
  - { offsetInCU: 0x5C928, offset: 0xAE182, size: 0x8, addend: 0x0, symName: __ZNSt3__119__shared_weak_count16__release_sharedB7v160006Ev, symObjAddr: 0x6BCC, symBinAddr: 0x1E83C, symSize: 0x3C }
  - { offsetInCU: 0x5C94E, offset: 0xAE1A8, size: 0x8, addend: 0x0, symName: __ZNSt3__114__shared_count16__release_sharedB7v160006Ev, symObjAddr: 0x6C08, symBinAddr: 0x1E878, symSize: 0x7C }
  - { offsetInCU: 0x5C974, offset: 0xAE1CE, size: 0x8, addend: 0x0, symName: __ZN8pybind116handleC2IP7_objectLi0EEET_, symObjAddr: 0x6CB4, symBinAddr: 0x1E924, symSize: 0x20 }
  - { offsetInCU: 0x5C9BB, offset: 0xAE215, size: 0x8, addend: 0x0, symName: __ZNK8pybind116detail10object_apiINS_6handleEE4attrEPKc, symObjAddr: 0x6CD4, symBinAddr: 0x1E944, symSize: 0x4C }
  - { offsetInCU: 0x5C9F1, offset: 0xAE24B, size: 0x8, addend: 0x0, symName: __ZNK8pybind116detail10object_apiINS0_8accessorINS0_17accessor_policies8str_attrEEEEclILNS_19return_value_policyE1EJRNS_3strEEEENS_6objectEDpOT0_, symObjAddr: 0x6D20, symBinAddr: 0x1E990, symSize: 0xB8 }
  - { offsetInCU: 0x5CA3D, offset: 0xAE297, size: 0x8, addend: 0x0, symName: __ZNO8pybind116object4castIbEET_v, symObjAddr: 0x6DD8, symBinAddr: 0x1EA48, symSize: 0x28 }
  - { offsetInCU: 0x5CA6C, offset: 0xAE2C6, size: 0x8, addend: 0x0, symName: __ZN8pybind116detail8accessorINS0_17accessor_policies8str_attrEED1Ev, symObjAddr: 0x6E00, symBinAddr: 0x1EA70, symSize: 0x2C }
  - { offsetInCU: 0x5CA98, offset: 0xAE2F2, size: 0x8, addend: 0x0, symName: __ZNK8pybind116detail10object_apiINS_6handleEE7derivedEv, symObjAddr: 0x6E2C, symBinAddr: 0x1EA9C, symSize: 0x14 }
  - { offsetInCU: 0x5CABE, offset: 0xAE318, size: 0x8, addend: 0x0, symName: __ZN8pybind116detail8accessorINS0_17accessor_policies8str_attrEEC1ENS_6handleEPKc, symObjAddr: 0x6E40, symBinAddr: 0x1EAB0, symSize: 0x3C }
  - { offsetInCU: 0x5CB06, offset: 0xAE360, size: 0x8, addend: 0x0, symName: __ZN8pybind116detail8accessorINS0_17accessor_policies8str_attrEEC2ENS_6handleEPKc, symObjAddr: 0x6E7C, symBinAddr: 0x1EAEC, symSize: 0x48 }
  - { offsetInCU: 0x5CB4E, offset: 0xAE3A8, size: 0x8, addend: 0x0, symName: __ZNK8pybind116detail16simple_collectorILNS_19return_value_policyE1EE4callEP7_object, symObjAddr: 0x6EFC, symBinAddr: 0x1EB6C, symSize: 0xC4 }
  - { offsetInCU: 0x5CB92, offset: 0xAE3EC, size: 0x8, addend: 0x0, symName: __ZNK8pybind116detail10object_apiINS0_8accessorINS0_17accessor_policies8str_attrEEEE7derivedEv, symObjAddr: 0x6FC0, symBinAddr: 0x1EC30, symSize: 0x14 }
  - { offsetInCU: 0x5CBB8, offset: 0xAE412, size: 0x8, addend: 0x0, symName: __ZNK8pybind116detail8accessorINS0_17accessor_policies8str_attrEE3ptrEv, symObjAddr: 0x6FD4, symBinAddr: 0x1EC44, symSize: 0x2C }
  - { offsetInCU: 0x5CBDE, offset: 0xAE438, size: 0x8, addend: 0x0, symName: __ZN8pybind116detail16simple_collectorILNS_19return_value_policyE1EED1Ev, symObjAddr: 0x7000, symBinAddr: 0x1EC70, symSize: 0x2C }
  - { offsetInCU: 0x5CC0B, offset: 0xAE465, size: 0x8, addend: 0x0, symName: __ZN8pybind116detail16simple_collectorILNS_19return_value_policyE1EEC1IJRNS_3strEEEEDpOT_, symObjAddr: 0x702C, symBinAddr: 0x1EC9C, symSize: 0x34 }
  - { offsetInCU: 0x5CC4F, offset: 0xAE4A9, size: 0x8, addend: 0x0, symName: __ZN8pybind116detail16simple_collectorILNS_19return_value_policyE1EEC2IJRNS_3strEEEEDpOT_, symObjAddr: 0x7060, symBinAddr: 0x1ECD0, symSize: 0x34 }
  - { offsetInCU: 0x5CCAD, offset: 0xAE507, size: 0x8, addend: 0x0, symName: __ZN8pybind116detail15pyobject_casterINS_3strEE4castERKNS_6handleENS_19return_value_policyES4_, symObjAddr: 0x74B0, symBinAddr: 0x1F120, symSize: 0x38 }
  - { offsetInCU: 0x5CCE7, offset: 0xAE541, size: 0x8, addend: 0x0, symName: __ZN8pybind116handleC1IDnLi0EEET_, symObjAddr: 0x74E8, symBinAddr: 0x1F158, symSize: 0x34 }
  - { offsetInCU: 0x5CD2E, offset: 0xAE588, size: 0x8, addend: 0x0, symName: __ZNKSt3__15arrayIN8pybind116objectELm1EE4sizeB7v160006Ev, symObjAddr: 0x751C, symBinAddr: 0x1F18C, symSize: 0x14 }
  - { offsetInCU: 0x5CD54, offset: 0xAE5AE, size: 0x8, addend: 0x0, symName: __ZNSt3__15arrayIN8pybind116objectELm1EEixB7v160006Em, symObjAddr: 0x7530, symBinAddr: 0x1F1A0, symSize: 0x20 }
  - { offsetInCU: 0x5CDC3, offset: 0xAE61D, size: 0x8, addend: 0x0, symName: __ZNSt3__15arrayINS_12basic_stringIcNS_11char_traitsIcEENS_9allocatorIcEEEELm1EEixB7v160006Em, symObjAddr: 0x76AC, symBinAddr: 0x1F31C, symSize: 0x28 }
  - { offsetInCU: 0x5CDF7, offset: 0xAE651, size: 0x8, addend: 0x0, symName: __ZNSt3__15arrayINS_12basic_stringIcNS_11char_traitsIcEENS_9allocatorIcEEEELm1EED1Ev, symObjAddr: 0x76D4, symBinAddr: 0x1F344, symSize: 0x2C }
  - { offsetInCU: 0x5CE23, offset: 0xAE67D, size: 0x8, addend: 0x0, symName: __ZN8pybind115tupleC1ImLi0EEET_, symObjAddr: 0x7700, symBinAddr: 0x1F370, symSize: 0x34 }
  - { offsetInCU: 0x5CE6B, offset: 0xAE6C5, size: 0x8, addend: 0x0, symName: __ZNSt3__15arrayIN8pybind116objectELm1EE5beginB7v160006Ev, symObjAddr: 0x7734, symBinAddr: 0x1F3A4, symSize: 0x24 }
  - { offsetInCU: 0x5CE91, offset: 0xAE6EB, size: 0x8, addend: 0x0, symName: __ZNSt3__15arrayIN8pybind116objectELm1EE3endB7v160006Ev, symObjAddr: 0x7758, symBinAddr: 0x1F3C8, symSize: 0x28 }
  - { offsetInCU: 0x5CEB7, offset: 0xAE711, size: 0x8, addend: 0x0, symName: __ZN8pybind116object7releaseEv, symObjAddr: 0x7780, symBinAddr: 0x1F3F0, symSize: 0x3C }
  - { offsetInCU: 0x5CEEC, offset: 0xAE746, size: 0x8, addend: 0x0, symName: __ZN8pybind115tupleD1Ev, symObjAddr: 0x77BC, symBinAddr: 0x1F42C, symSize: 0x2C }
  - { offsetInCU: 0x5CF19, offset: 0xAE773, size: 0x8, addend: 0x0, symName: __ZNSt3__15arrayIN8pybind116objectELm1EED1Ev, symObjAddr: 0x77E8, symBinAddr: 0x1F458, symSize: 0x2C }
  - { offsetInCU: 0x5CF45, offset: 0xAE79F, size: 0x8, addend: 0x0, symName: __ZN8pybind116handleC2IDnLi0EEET_, symObjAddr: 0x7814, symBinAddr: 0x1F484, symSize: 0x1C }
  - { offsetInCU: 0x5CF8C, offset: 0xAE7E6, size: 0x8, addend: 0x0, symName: __ZNSt3__15arrayINS_12basic_stringIcNS_11char_traitsIcEENS_9allocatorIcEEEELm1EED2Ev, symObjAddr: 0x7870, symBinAddr: 0x1F4E0, symSize: 0x64 }
  - { offsetInCU: 0x5CFB8, offset: 0xAE812, size: 0x8, addend: 0x0, symName: __ZN8pybind115tupleC2ImLi0EEET_, symObjAddr: 0x78D4, symBinAddr: 0x1F544, symSize: 0xA0 }
  - { offsetInCU: 0x5D000, offset: 0xAE85A, size: 0x8, addend: 0x0, symName: __ZNSt3__15arrayIN8pybind116objectELm1EE4dataB7v160006Ev, symObjAddr: 0x798C, symBinAddr: 0x1F5FC, symSize: 0x14 }
  - { offsetInCU: 0x5D026, offset: 0xAE880, size: 0x8, addend: 0x0, symName: __ZN8pybind115tupleD2Ev, symObjAddr: 0x79A0, symBinAddr: 0x1F610, symSize: 0x2C }
  - { offsetInCU: 0x5D053, offset: 0xAE8AD, size: 0x8, addend: 0x0, symName: __ZNSt3__15arrayIN8pybind116objectELm1EED2Ev, symObjAddr: 0x79CC, symBinAddr: 0x1F63C, symSize: 0x64 }
  - { offsetInCU: 0x5D07F, offset: 0xAE8D9, size: 0x8, addend: 0x0, symName: __ZNK8pybind116detail8accessorINS0_17accessor_policies8str_attrEE9get_cacheEv, symObjAddr: 0x7A30, symBinAddr: 0x1F6A0, symSize: 0x78 }
  - { offsetInCU: 0x5D0A5, offset: 0xAE8FF, size: 0x8, addend: 0x0, symName: __ZN8pybind116detail17accessor_policies8str_attr3getENS_6handleEPKc, symObjAddr: 0x7AA8, symBinAddr: 0x1F718, symSize: 0x3C }
  - { offsetInCU: 0x5D0D8, offset: 0xAE932, size: 0x8, addend: 0x0, symName: __ZN8pybind116detail16simple_collectorILNS_19return_value_policyE1EED2Ev, symObjAddr: 0x7BA8, symBinAddr: 0x1F818, symSize: 0x2C }
  - { offsetInCU: 0x5D105, offset: 0xAE95F, size: 0x8, addend: 0x0, symName: __ZNK8pybind116detail10object_apiINS_6handleEE9ref_countEv, symObjAddr: 0x7C40, symBinAddr: 0x1F8B0, symSize: 0x30 }
  - { offsetInCU: 0x5D153, offset: 0xAE9AD, size: 0x8, addend: 0x0, symName: __ZNO8pybind116detail11type_casterIbvEcvObEv, symObjAddr: 0x7F6C, symBinAddr: 0x1FBDC, symSize: 0x14 }
  - { offsetInCU: 0x5D179, offset: 0xAE9D3, size: 0x8, addend: 0x0, symName: __ZN8pybind116detail11type_casterIbvE4loadENS_6handleEb, symObjAddr: 0x81E0, symBinAddr: 0x1FE50, symSize: 0x230 }
  - { offsetInCU: 0x5D1EF, offset: 0xAEA49, size: 0x8, addend: 0x0, symName: __ZNK8pybind116detail10object_apiINS_6handleEE7is_noneEv, symObjAddr: 0x8444, symBinAddr: 0x200B4, symSize: 0x3C }
  - { offsetInCU: 0x5D215, offset: 0xAEA6F, size: 0x8, addend: 0x0, symName: __ZN8pybind116detail11type_casterIbvEcvRbEv, symObjAddr: 0x8480, symBinAddr: 0x200F0, symSize: 0x14 }
  - { offsetInCU: 0x5D23B, offset: 0xAEA95, size: 0x8, addend: 0x0, symName: __ZN8pybind116detail8accessorINS0_17accessor_policies8str_attrEED2Ev, symObjAddr: 0x8494, symBinAddr: 0x20104, symSize: 0x30 }
  - { offsetInCU: 0x5D267, offset: 0xAEAC1, size: 0x8, addend: 0x0, symName: __ZN8pybind117capsule6check_ENS_6handleE, symObjAddr: 0x84C4, symBinAddr: 0x20134, symSize: 0x74 }
  - { offsetInCU: 0x5D28B, offset: 0xAEAE5, size: 0x8, addend: 0x0, symName: __ZN8pybind116detail8accessorINS0_17accessor_policies12generic_itemEEC1ENS_6handleENS_6objectE, symObjAddr: 0x8578, symBinAddr: 0x201E8, symSize: 0x3C }
  - { offsetInCU: 0x5D2D4, offset: 0xAEB2E, size: 0x8, addend: 0x0, symName: __ZN8pybind116objectC1ENS_6handleENS0_10borrowed_tE, symObjAddr: 0x85B4, symBinAddr: 0x20224, symSize: 0x34 }
  - { offsetInCU: 0x5D318, offset: 0xAEB72, size: 0x8, addend: 0x0, symName: __ZN8pybind116objectC2ENS_6handleENS0_10borrowed_tE, symObjAddr: 0x85E8, symBinAddr: 0x20258, symSize: 0x38 }
  - { offsetInCU: 0x5D35C, offset: 0xAEBB6, size: 0x8, addend: 0x0, symName: __ZN8pybind116detail8accessorINS0_17accessor_policies12generic_itemEEC2ENS_6handleENS_6objectE, symObjAddr: 0x8620, symBinAddr: 0x20290, symSize: 0x58 }
  - { offsetInCU: 0x5D3A5, offset: 0xAEBFF, size: 0x8, addend: 0x0, symName: __ZN8pybind116objectC1EOS0_, symObjAddr: 0x8678, symBinAddr: 0x202E8, symSize: 0x34 }
  - { offsetInCU: 0x5D3DE, offset: 0xAEC38, size: 0x8, addend: 0x0, symName: __ZN8pybind116objectC2EOS0_, symObjAddr: 0x86AC, symBinAddr: 0x2031C, symSize: 0x2C }
  - { offsetInCU: 0x5D417, offset: 0xAEC71, size: 0x8, addend: 0x0, symName: __ZNK8pybind116detail8accessorINS0_17accessor_policies12generic_itemEE9get_cacheEv, symObjAddr: 0x86D8, symBinAddr: 0x20348, symSize: 0x80 }
  - { offsetInCU: 0x5D43D, offset: 0xAEC97, size: 0x8, addend: 0x0, symName: __ZN8pybind116detail17accessor_policies12generic_item3getENS_6handleES3_, symObjAddr: 0x8758, symBinAddr: 0x203C8, symSize: 0xE4 }
  - { offsetInCU: 0x5D47F, offset: 0xAECD9, size: 0x8, addend: 0x0, symName: __ZN8pybind116detail8accessorINS0_17accessor_policies12generic_itemEED2Ev, symObjAddr: 0x883C, symBinAddr: 0x204AC, symSize: 0x3C }
  - { offsetInCU: 0x5D4AB, offset: 0xAED05, size: 0x8, addend: 0x0, symName: __ZN8pybind117capsuleC1EONS_6objectE, symObjAddr: 0x8878, symBinAddr: 0x204E8, symSize: 0x34 }
  - { offsetInCU: 0x5D4E4, offset: 0xAED3E, size: 0x8, addend: 0x0, symName: __ZN8pybind117capsuleC2EONS_6objectE, symObjAddr: 0x88AC, symBinAddr: 0x2051C, symSize: 0x1C8 }
  - { offsetInCU: 0x5D51D, offset: 0xAED77, size: 0x8, addend: 0x0, symName: __ZN8pybind1110type_errorCI1St13runtime_errorERKNSt3__112basic_stringIcNS1_11char_traitsIcEENS1_9allocatorIcEEEE, symObjAddr: 0x8AB0, symBinAddr: 0x20720, symSize: 0x34 }
  - { offsetInCU: 0x5D553, offset: 0xAEDAD, size: 0x8, addend: 0x0, symName: __ZN8pybind1110type_errorD1Ev, symObjAddr: 0x8AE4, symBinAddr: 0x20754, symSize: 0x2C }
  - { offsetInCU: 0x5D580, offset: 0xAEDDA, size: 0x8, addend: 0x0, symName: __ZN8pybind1110type_errorCI2St13runtime_errorERKNSt3__112basic_stringIcNS1_11char_traitsIcEENS1_9allocatorIcEEEE, symObjAddr: 0x8B10, symBinAddr: 0x20780, symSize: 0x4C }
  - { offsetInCU: 0x5D5B6, offset: 0xAEE10, size: 0x8, addend: 0x0, symName: __ZN8pybind1110type_errorD0Ev, symObjAddr: 0x8B5C, symBinAddr: 0x207CC, symSize: 0x30 }
  - { offsetInCU: 0x5D5E3, offset: 0xAEE3D, size: 0x8, addend: 0x0, symName: __ZNK8pybind1110type_error9set_errorEv, symObjAddr: 0x8B8C, symBinAddr: 0x207FC, symSize: 0x48 }
  - { offsetInCU: 0x5D609, offset: 0xAEE63, size: 0x8, addend: 0x0, symName: __ZN8pybind1110type_errorD2Ev, symObjAddr: 0x8BD4, symBinAddr: 0x20844, symSize: 0x2C }
  - { offsetInCU: 0x5D636, offset: 0xAEE90, size: 0x8, addend: 0x0, symName: __ZNK8pybind117capsule11get_pointerIPNS_6detail9internalsEEEPT_v, symObjAddr: 0x8C00, symBinAddr: 0x20870, symSize: 0xA8 }
  - { offsetInCU: 0x5D683, offset: 0xAEEDD, size: 0x8, addend: 0x0, symName: __ZNK8pybind117capsule4nameEv, symObjAddr: 0x8CA8, symBinAddr: 0x20918, symSize: 0xA8 }
  - { offsetInCU: 0x5D6B8, offset: 0xAEF12, size: 0x8, addend: 0x0, symName: __ZN8pybind117capsuleD2Ev, symObjAddr: 0x8D50, symBinAddr: 0x209C0, symSize: 0x2C }
  - { offsetInCU: 0x5D6E5, offset: 0xAEF3F, size: 0x8, addend: 0x0, symName: __ZNSt3__119__forward_list_baseIPFvSt13exception_ptrENS_9allocatorIS3_EEE7__allocB7v160006Ev, symObjAddr: 0x8D7C, symBinAddr: 0x209EC, symSize: 0x24 }
  - { offsetInCU: 0x5D710, offset: 0xAEF6A, size: 0x8, addend: 0x0, symName: __ZNSt3__116allocator_traitsINS_9allocatorINS_19__forward_list_nodeIPFvSt13exception_ptrEPvEEEEE8allocateB7v160006ERS8_m, symObjAddr: 0x8DA0, symBinAddr: 0x20A10, symSize: 0x2C }
  - { offsetInCU: 0x5D748, offset: 0xAEFA2, size: 0x8, addend: 0x0, symName: __ZNSt3__122__allocator_destructorINS_9allocatorINS_19__forward_list_nodeIPFvSt13exception_ptrEPvEEEEEC1B7v160006ERS8_m, symObjAddr: 0x8DCC, symBinAddr: 0x20A3C, symSize: 0x3C }
  - { offsetInCU: 0x5D81C, offset: 0xAF076, size: 0x8, addend: 0x0, symName: __ZNSt3__110unique_ptrINS_19__forward_list_nodeIPFvSt13exception_ptrEPvEENS_22__allocator_destructorINS_9allocatorIS6_EEEEEC1B7v160006ILb1EvEEPS6_NS_16__dependent_typeINS_27__unique_ptr_deleter_sfinaeISA_EEXT_EE20__good_rval_ref_typeE, symObjAddr: 0x8E08, symBinAddr: 0x20A78, symSize: 0x3C }
  - { offsetInCU: 0x5D873, offset: 0xAF0CD, size: 0x8, addend: 0x0, symName: __ZNSt3__116allocator_traitsINS_9allocatorINS_19__forward_list_nodeIPFvSt13exception_ptrEPvEEEEE9constructB7v160006IS5_JS5_EvEEvRS8_PT_DpOT0_, symObjAddr: 0x8E44, symBinAddr: 0x20AB4, symSize: 0x34 }
  - { offsetInCU: 0x5D8CA, offset: 0xAF124, size: 0x8, addend: 0x0, symName: __ZNKSt3__110unique_ptrINS_19__forward_list_nodeIPFvSt13exception_ptrEPvEENS_22__allocator_destructorINS_9allocatorIS6_EEEEEptB7v160006Ev, symObjAddr: 0x8E78, symBinAddr: 0x20AE8, symSize: 0x28 }
  - { offsetInCU: 0x5D8F0, offset: 0xAF14A, size: 0x8, addend: 0x0, symName: __ZNSt3__119__forward_list_baseIPFvSt13exception_ptrENS_9allocatorIS3_EEE14__before_beginB7v160006Ev, symObjAddr: 0x8EA0, symBinAddr: 0x20B10, symSize: 0x28 }
  - { offsetInCU: 0x5D916, offset: 0xAF170, size: 0x8, addend: 0x0, symName: __ZNSt3__110unique_ptrINS_19__forward_list_nodeIPFvSt13exception_ptrEPvEENS_22__allocator_destructorINS_9allocatorIS6_EEEEE7releaseB7v160006Ev, symObjAddr: 0x8EC8, symBinAddr: 0x20B38, symSize: 0x44 }
  - { offsetInCU: 0x5D94B, offset: 0xAF1A5, size: 0x8, addend: 0x0, symName: __ZNSt3__110unique_ptrINS_19__forward_list_nodeIPFvSt13exception_ptrEPvEENS_22__allocator_destructorINS_9allocatorIS6_EEEEED1B7v160006Ev, symObjAddr: 0x8F0C, symBinAddr: 0x20B7C, symSize: 0x2C }
  - { offsetInCU: 0x5D975, offset: 0xAF1CF, size: 0x8, addend: 0x0, symName: __ZNSt3__117__compressed_pairINS_20__forward_begin_nodeIPNS_19__forward_list_nodeIPFvSt13exception_ptrEPvEEEENS_9allocatorIS7_EEE6secondB7v160006Ev, symObjAddr: 0x8F38, symBinAddr: 0x20BA8, symSize: 0x24 }
  - { offsetInCU: 0x5D99B, offset: 0xAF1F5, size: 0x8, addend: 0x0, symName: __ZNSt3__122__compressed_pair_elemINS_9allocatorINS_19__forward_list_nodeIPFvSt13exception_ptrEPvEEEELi1ELb1EE5__getB7v160006Ev, symObjAddr: 0x8F5C, symBinAddr: 0x20BCC, symSize: 0x14 }
  - { offsetInCU: 0x5D9C1, offset: 0xAF21B, size: 0x8, addend: 0x0, symName: __ZNSt3__19allocatorINS_19__forward_list_nodeIPFvSt13exception_ptrEPvEEE8allocateB7v160006Em, symObjAddr: 0x8F70, symBinAddr: 0x20BE0, symSize: 0x58 }
  - { offsetInCU: 0x5D9FF, offset: 0xAF259, size: 0x8, addend: 0x0, symName: __ZNSt3__116allocator_traitsINS_9allocatorINS_19__forward_list_nodeIPFvSt13exception_ptrEPvEEEEE8max_sizeB7v160006IS8_vEEmRKS8_, symObjAddr: 0x8FC8, symBinAddr: 0x20C38, symSize: 0x24 }
  - { offsetInCU: 0x5DA2D, offset: 0xAF287, size: 0x8, addend: 0x0, symName: __ZNKSt3__19allocatorINS_19__forward_list_nodeIPFvSt13exception_ptrEPvEEE8max_sizeB7v160006Ev, symObjAddr: 0x9080, symBinAddr: 0x20C5C, symSize: 0x14 }
  - { offsetInCU: 0x5DA53, offset: 0xAF2AD, size: 0x8, addend: 0x0, symName: __ZNSt3__122__allocator_destructorINS_9allocatorINS_19__forward_list_nodeIPFvSt13exception_ptrEPvEEEEEC2B7v160006ERS8_m, symObjAddr: 0x90E4, symBinAddr: 0x20C70, symSize: 0x2C }
  - { offsetInCU: 0x5DA99, offset: 0xAF2F3, size: 0x8, addend: 0x0, symName: __ZNSt3__110unique_ptrINS_19__forward_list_nodeIPFvSt13exception_ptrEPvEENS_22__allocator_destructorINS_9allocatorIS6_EEEEEC2B7v160006ILb1EvEEPS6_NS_16__dependent_typeINS_27__unique_ptr_deleter_sfinaeISA_EEXT_EE20__good_rval_ref_typeE, symObjAddr: 0x9110, symBinAddr: 0x20C9C, symSize: 0x48 }
  - { offsetInCU: 0x5DAEA, offset: 0xAF344, size: 0x8, addend: 0x0, symName: __ZNSt3__117__compressed_pairIPNS_19__forward_list_nodeIPFvSt13exception_ptrEPvEENS_22__allocator_destructorINS_9allocatorIS6_EEEEEC1B7v160006IRS7_SB_EEOT_OT0_, symObjAddr: 0x9158, symBinAddr: 0x20CE4, symSize: 0x3C }
  - { offsetInCU: 0x5DB42, offset: 0xAF39C, size: 0x8, addend: 0x0, symName: __ZNSt3__117__compressed_pairIPNS_19__forward_list_nodeIPFvSt13exception_ptrEPvEENS_22__allocator_destructorINS_9allocatorIS6_EEEEEC2B7v160006IRS7_SB_EEOT_OT0_, symObjAddr: 0x9194, symBinAddr: 0x20D20, symSize: 0x48 }
  - { offsetInCU: 0x5DB9A, offset: 0xAF3F4, size: 0x8, addend: 0x0, symName: __ZNSt3__122__compressed_pair_elemIPNS_19__forward_list_nodeIPFvSt13exception_ptrEPvEELi0ELb0EEC2B7v160006IRS7_vEEOT_, symObjAddr: 0x91DC, symBinAddr: 0x20D68, symSize: 0x24 }
  - { offsetInCU: 0x5DBDC, offset: 0xAF436, size: 0x8, addend: 0x0, symName: __ZNSt3__122__compressed_pair_elemINS_22__allocator_destructorINS_9allocatorINS_19__forward_list_nodeIPFvSt13exception_ptrEPvEEEEEELi1ELb0EEC2B7v160006ISA_vEEOT_, symObjAddr: 0x9200, symBinAddr: 0x20D8C, symSize: 0x24 }
  - { offsetInCU: 0x5DC1E, offset: 0xAF478, size: 0x8, addend: 0x0, symName: __ZNSt3__19allocatorINS_19__forward_list_nodeIPFvSt13exception_ptrEPvEEE9constructB7v160006IS4_JS4_EEEvPT_DpOT0_, symObjAddr: 0x9224, symBinAddr: 0x20DB0, symSize: 0x28 }
  - { offsetInCU: 0x5DC74, offset: 0xAF4CE, size: 0x8, addend: 0x0, symName: __ZNKSt3__117__compressed_pairIPNS_19__forward_list_nodeIPFvSt13exception_ptrEPvEENS_22__allocator_destructorINS_9allocatorIS6_EEEEE5firstB7v160006Ev, symObjAddr: 0x924C, symBinAddr: 0x20DD8, symSize: 0x24 }
  - { offsetInCU: 0x5DC9A, offset: 0xAF4F4, size: 0x8, addend: 0x0, symName: __ZNKSt3__122__compressed_pair_elemIPNS_19__forward_list_nodeIPFvSt13exception_ptrEPvEELi0ELb0EE5__getB7v160006Ev, symObjAddr: 0x9270, symBinAddr: 0x20DFC, symSize: 0x14 }
  - { offsetInCU: 0x5DCC0, offset: 0xAF51A, size: 0x8, addend: 0x0, symName: __ZNSt3__114pointer_traitsIPNS_20__forward_begin_nodeIPNS_19__forward_list_nodeIPFvSt13exception_ptrEPvEEEEE10pointer_toB7v160006ERS9_, symObjAddr: 0x9284, symBinAddr: 0x20E10, symSize: 0x14 }
  - { offsetInCU: 0x5DCE3, offset: 0xAF53D, size: 0x8, addend: 0x0, symName: __ZNSt3__117__compressed_pairINS_20__forward_begin_nodeIPNS_19__forward_list_nodeIPFvSt13exception_ptrEPvEEEENS_9allocatorIS7_EEE5firstB7v160006Ev, symObjAddr: 0x9298, symBinAddr: 0x20E24, symSize: 0x24 }
  - { offsetInCU: 0x5DD09, offset: 0xAF563, size: 0x8, addend: 0x0, symName: __ZNSt3__122__compressed_pair_elemINS_20__forward_begin_nodeIPNS_19__forward_list_nodeIPFvSt13exception_ptrEPvEEEELi0ELb0EE5__getB7v160006Ev, symObjAddr: 0x92BC, symBinAddr: 0x20E48, symSize: 0x14 }
  - { offsetInCU: 0x5DD2F, offset: 0xAF589, size: 0x8, addend: 0x0, symName: __ZNSt3__117__compressed_pairIPNS_19__forward_list_nodeIPFvSt13exception_ptrEPvEENS_22__allocator_destructorINS_9allocatorIS6_EEEEE5firstB7v160006Ev, symObjAddr: 0x92D0, symBinAddr: 0x20E5C, symSize: 0x24 }
  - { offsetInCU: 0x5DD55, offset: 0xAF5AF, size: 0x8, addend: 0x0, symName: __ZNSt3__122__compressed_pair_elemIPNS_19__forward_list_nodeIPFvSt13exception_ptrEPvEELi0ELb0EE5__getB7v160006Ev, symObjAddr: 0x92F4, symBinAddr: 0x20E80, symSize: 0x14 }
  - { offsetInCU: 0x5DD7B, offset: 0xAF5D5, size: 0x8, addend: 0x0, symName: __ZNSt3__110unique_ptrINS_19__forward_list_nodeIPFvSt13exception_ptrEPvEENS_22__allocator_destructorINS_9allocatorIS6_EEEEED2B7v160006Ev, symObjAddr: 0x9308, symBinAddr: 0x20E94, symSize: 0x30 }
  - { offsetInCU: 0x5DDA5, offset: 0xAF5FF, size: 0x8, addend: 0x0, symName: __ZNSt3__110unique_ptrINS_19__forward_list_nodeIPFvSt13exception_ptrEPvEENS_22__allocator_destructorINS_9allocatorIS6_EEEEE5resetB7v160006EPS6_, symObjAddr: 0x9338, symBinAddr: 0x20EC4, symSize: 0x78 }
  - { offsetInCU: 0x5DDE9, offset: 0xAF643, size: 0x8, addend: 0x0, symName: __ZNSt3__117__compressed_pairIPNS_19__forward_list_nodeIPFvSt13exception_ptrEPvEENS_22__allocator_destructorINS_9allocatorIS6_EEEEE6secondB7v160006Ev, symObjAddr: 0x93B0, symBinAddr: 0x20F3C, symSize: 0x28 }
  - { offsetInCU: 0x5DE0F, offset: 0xAF669, size: 0x8, addend: 0x0, symName: __ZNSt3__122__allocator_destructorINS_9allocatorINS_19__forward_list_nodeIPFvSt13exception_ptrEPvEEEEEclB7v160006EPS7_, symObjAddr: 0x93D8, symBinAddr: 0x20F64, symSize: 0x34 }
  - { offsetInCU: 0x5DE43, offset: 0xAF69D, size: 0x8, addend: 0x0, symName: __ZNSt3__122__compressed_pair_elemINS_22__allocator_destructorINS_9allocatorINS_19__forward_list_nodeIPFvSt13exception_ptrEPvEEEEEELi1ELb0EE5__getB7v160006Ev, symObjAddr: 0x940C, symBinAddr: 0x20F98, symSize: 0x14 }
  - { offsetInCU: 0x5DE69, offset: 0xAF6C3, size: 0x8, addend: 0x0, symName: __ZNSt3__116allocator_traitsINS_9allocatorINS_19__forward_list_nodeIPFvSt13exception_ptrEPvEEEEE10deallocateB7v160006ERS8_PS7_m, symObjAddr: 0x9420, symBinAddr: 0x20FAC, symSize: 0x34 }
  - { offsetInCU: 0x5DEAB, offset: 0xAF705, size: 0x8, addend: 0x0, symName: __ZNSt3__19allocatorINS_19__forward_list_nodeIPFvSt13exception_ptrEPvEEE10deallocateB7v160006EPS6_m, symObjAddr: 0x9454, symBinAddr: 0x20FE0, symSize: 0x40 }
  - { offsetInCU: 0x5DEED, offset: 0xAF747, size: 0x8, addend: 0x0, symName: __ZNKSt13exception_ptrcvbB7v160006Ev, symObjAddr: 0x9494, symBinAddr: 0x21020, symSize: 0x24 }
  - { offsetInCU: 0x5DF13, offset: 0xAF76D, size: 0x8, addend: 0x0, symName: __ZN8pybind1117error_already_set7restoreEv, symObjAddr: 0x94B8, symBinAddr: 0x21044, symSize: 0x2C }
  - { offsetInCU: 0x5DF39, offset: 0xAF793, size: 0x8, addend: 0x0, symName: __ZN8pybind116detail25error_fetch_and_normalize7restoreEv, symObjAddr: 0x94E4, symBinAddr: 0x21070, symSize: 0xD0 }
  - { offsetInCU: 0x5DF5F, offset: 0xAF7B9, size: 0x8, addend: 0x0, symName: __ZN8pybind116detail9internalsC2Ev, symObjAddr: 0x95B4, symBinAddr: 0x21140, symSize: 0xA0 }
  - { offsetInCU: 0x5DF89, offset: 0xAF7E3, size: 0x8, addend: 0x0, symName: __ZNSt3__113unordered_mapINS_10type_indexEPN8pybind116detail9type_infoENS3_9type_hashENS3_13type_equal_toENS_9allocatorINS_4pairIKS1_S5_EEEEEC1B7v160006Ev, symObjAddr: 0x9654, symBinAddr: 0x211E0, symSize: 0x2C }
  - { offsetInCU: 0x5DFB3, offset: 0xAF80D, size: 0x8, addend: 0x0, symName: __ZNSt3__113unordered_mapIP11_typeobjectNS_6vectorIPN8pybind116detail9type_infoENS_9allocatorIS7_EEEENS_4hashIS2_EENS_8equal_toIS2_EENS8_INS_4pairIKS2_SA_EEEEEC1B7v160006Ev, symObjAddr: 0x9680, symBinAddr: 0x2120C, symSize: 0x2C }
  - { offsetInCU: 0x5DFDD, offset: 0xAF837, size: 0x8, addend: 0x0, symName: __ZNSt3__118unordered_multimapIPKvPN8pybind116detail8instanceENS_4hashIS2_EENS_8equal_toIS2_EENS_9allocatorINS_4pairIKS2_S6_EEEEEC1B7v160006Ev, symObjAddr: 0x96AC, symBinAddr: 0x21238, symSize: 0x2C }
